 ConEmu64

 Timestamp is 5f0ca6a2 (Mon Jul 13 20:23:30 2020)

 Preferred load address is 0000000140000000

 Start         Length     Name                   Class
 0001:00000000 00000100H .text$di                CODE
 0001:00000100 00161930H .text$mn                CODE
 0001:00161a30 00000040H .text$mn$00             CODE
 0001:00161a70 000038c0H .text$x                 CODE
 0001:00165330 00000168H .text$yd                CODE
 0002:00000000 00001098H .idata$5                DATA
 0002:00001098 00000028H .00cfg                  DATA
 0002:000010c0 00000008H .CRT$XCA                DATA
 0002:000010c8 00000008H .CRT$XCAA               DATA
 0002:000010d0 00000010H .CRT$XCC                DATA
 0002:000010e0 00000050H .CRT$XCU                DATA
 0002:00001130 00000008H .CRT$XCZ                DATA
 0002:00001138 00000008H .CRT$XIA                DATA
 0002:00001140 00000008H .CRT$XIAA               DATA
 0002:00001148 00000008H .CRT$XIAC               DATA
 0002:00001150 00000028H .CRT$XIC                DATA
 0002:00001178 00000008H .CRT$XIZ                DATA
 0002:00001180 00000008H .CRT$XLA                DATA
 0002:00001188 00000008H .CRT$XLZ                DATA
 0002:00001190 00000008H .CRT$XPA                DATA
 0002:00001198 00000008H .CRT$XPB                DATA
 0002:000011a0 00000010H .CRT$XPX                DATA
 0002:000011b0 00000008H .CRT$XPXA               DATA
 0002:000011b8 00000008H .CRT$XPZ                DATA
 0002:000011c0 00000008H .CRT$XTA                DATA
 0002:000011c8 00000008H .CRT$XTZ                DATA
 0002:000011d0 00000000H .gfids$y                DATA
 0002:000011d0 0006a1e0H .rdata                  DATA
 0002:0006b3b0 00000030H .rdata$T                DATA
 0002:0006b3e0 0000750cH .rdata$r                DATA
 0002:000728ec 0000043cH .rdata$zzzdbg           DATA
 0002:00072d28 00000008H .rtc$IAA                DATA
 0002:00072d30 00000008H .rtc$IZZ                DATA
 0002:00072d38 00000008H .rtc$TAA                DATA
 0002:00072d40 00000008H .rtc$TZZ                DATA
 0002:00072d48 00000004H .tls                    DATA
 0002:00072d4c 00000004H .tls$                   DATA
 0002:00072d50 00000008H .tls$ZZZ                DATA
 0002:00072d58 00012b48H .xdata                  DATA
 0002:000858a0 00000c0cH .xdata$x                DATA
 0002:000864ac 00000000H .edata                  DATA
 0002:000864ac 00000104H .idata$2                DATA
 0002:000865b0 00000018H .idata$3                DATA
 0002:000865c8 00001098H .idata$4                DATA
 0002:00087660 00002550H .idata$6                DATA
 0003:00000000 00005120H .data                   DATA
 0003:00005120 00002fa0H .data$r                 DATA
 0003:000080c0 00046d28H .bss                    DATA
 0004:00000000 0000e2e0H .pdata                  DATA
 0005:00000000 00000100H _RDATA                  DATA
 0006:00000000 00001250H .rsrc$01                DATA
 0006:00001250 000457f0H .rsrc$02                DATA

  Address         Publics by Value              Rva+Base               Lib:Object

 0000:00000000       __guard_eh_cont_count      0000000000000000     <absolute>
 0000:00000000       __guard_fids_count         0000000000000000     <absolute>
 0000:00000000       ___safe_se_handler_table   0000000000000000     <absolute>
 0000:00000000       __enclave_config           0000000000000000     <absolute>
 0000:00000000       __guard_eh_cont_table      0000000000000000     <absolute>
 0000:00000000       __guard_longjmp_table      0000000000000000     <absolute>
 0000:00000000       __arm64x_redirection_metadata 0000000000000000     <absolute>
 0000:00000000       __guard_iat_table          0000000000000000     <absolute>
 0000:00000000       ___safe_se_handler_count   0000000000000000     <absolute>
 0000:00000000       __guard_longjmp_count      0000000000000000     <absolute>
 0000:00000000       __hybrid_code_map_count    0000000000000000     <absolute>
 0000:00000000       __x64_code_ranges_to_entry_points 0000000000000000     <absolute>
 0000:00000000       __hybrid_code_map          0000000000000000     <absolute>
 0000:00000000       __guard_iat_count          0000000000000000     <absolute>
 0000:00000000       __arm64x_native_entrypoint 0000000000000000     <absolute>
 0000:00000000       __volatile_metadata        0000000000000000     <absolute>
 0000:00000000       __AbsoluteZero             0000000000000000     <absolute>
 0000:00000000       __guard_fids_table         0000000000000000     <absolute>
 0000:00000000       __hybrid_auxiliary_iat     0000000000000000     <absolute>
 0000:00000000       __dynamic_value_reloc_table 0000000000000000     <absolute>
 0000:00000100       __guard_flags              0000000000000100     <absolute>
 0000:00000000       __ImageBase                0000000140000000     <linker-defined>
 0001:00000100       ??$SafeDelete@VCImgButtons@@@@YAXAEAPEAVCImgButtons@@@Z 0000000140001100 f i AboutDlg.obj
 0001:00000148       ??$swprintf_c@$0BE@@@YAHAEAY0BE@_WPEB_WZZ 0000000140001148 f i AboutDlg.obj
 0001:00000174       ??$swprintf_c@$0BI@@@YAHAEAY0BI@_WPEB_WZZ 0000000140001174 f i AboutDlg.obj
 0001:000001a0       ??$swprintf_c@$0CA@@@YAHAEAY0CA@_WPEB_WZZ 00000001400011a0 f i AboutDlg.obj
 0001:000001cc       ??$swprintf_c@$0EBA@@@YAHAEAY0EBA@_WPEB_WZZ 00000001400011cc f i AboutDlg.obj
 0001:000001f8       ??$swprintf_c@$0IA@@@YAHAEAY0IA@_WPEB_WZZ 00000001400011f8 f i AboutDlg.obj
 0001:00000224       ??$ultow_s@$0CA@@@YAPEB_WIAEAY0CA@_WH@Z 0000000140001224 f i AboutDlg.obj
 0001:00000250       ??$wcscpy_c@$0BE@@@YAHAEAY0BE@_WPEB_W@Z 0000000140001250 f i AboutDlg.obj
 0001:0000029c       ??$wcscpy_c@$0CA@@@YAHAEAY0CA@_WPEB_W@Z 000000014000129c f i AboutDlg.obj
 0001:000002e8       ??$wcscpy_c@$0EBA@@@YAHAEAY0EBA@_WPEB_W@Z 00000001400012e8 f i AboutDlg.obj
 0001:00000334       ?InitCommCtrls@ConEmuAbout@@YAXXZ 0000000140001334 f   AboutDlg.obj
 0001:00000368       ?LoadWindowsBuild@LoadStartupEnvEx@@KAPEA_WAEBU_OSVERSIONINFOEXW@@@Z 0000000140001368 f i AboutDlg.obj
 0001:000005f4       ?LogStartEnvInt@ConEmuAbout@@YAXPEB_W_J_N2@Z 00000001400015f4 f   AboutDlg.obj
 0001:00000694       ?OnInfo_About@ConEmuAbout@@YAXPEB_W@Z 0000000140001694 f   AboutDlg.obj
 0001:00000848       ?OnInfo_Donate@ConEmuAbout@@YAXXZ 0000000140001848 f   AboutDlg.obj
 0001:00000878       ?OnInfo_DonateLink@ConEmuAbout@@YAXXZ 0000000140001878 f   AboutDlg.obj
 0001:000008d0       ?OnInfo_DownloadPage@ConEmuAbout@@YAXXZ 00000001400018d0 f   AboutDlg.obj
 0001:00000928       ?OnInfo_FirstStartPage@ConEmuAbout@@YAXXZ 0000000140001928 f   AboutDlg.obj
 0001:00000980       ?OnInfo_Help@ConEmuAbout@@YAXXZ 0000000140001980 f   AboutDlg.obj
 0001:00000a34       ?OnInfo_HomePage@ConEmuAbout@@YAXXZ 0000000140001a34 f   AboutDlg.obj
 0001:00000a8c       ?OnInfo_OnlineWiki@ConEmuAbout@@YAXPEB_W@Z 0000000140001a8c f   AboutDlg.obj
 0001:00000b3c       ?OnInfo_ReportBug@ConEmuAbout@@YAXXZ 0000000140001b3c f   AboutDlg.obj
 0001:00000b94       ?OnInfo_ReportCrash@ConEmuAbout@@YAXPEB_W@Z 0000000140001b94 f   AboutDlg.obj
 0001:00000c50       ?OnInfo_ThrowTrapException@ConEmuAbout@@YAX_N@Z 0000000140001c50 f   AboutDlg.obj
 0001:00000ce8       ?OnInfo_WhatsNew@ConEmuAbout@@YAX_N@Z 0000000140001ce8 f   AboutDlg.obj
 0001:00000df0       ?ReloadSysInfo@ConEmuAbout@@YAXXZ 0000000140001df0 f   AboutDlg.obj
 0001:00000e48       ?StringCchCatW@@YAJPEA_W_KPEB_W@Z 0000000140001e48 f i AboutDlg.obj
 0001:00000f08       ?StringCchVPrintfW@@YAJPEA_W_KPEB_WPEAD@Z 0000000140001f08 f i AboutDlg.obj
 0001:00000fac       ?TabSelected@ConEmuAbout@@YAXPEAUHWND__@@H@Z 0000000140001fac f   AboutDlg.obj
 0001:000010a0       ?ToString@LoadStartupEnvEx@@SAXPEAUCEStartupEnv@@P6AXPEB_W_J_N3@Z2@Z 00000001400020a0 f i AboutDlg.obj
 0001:00002020       ?aboutProc@ConEmuAbout@@YA_JPEAUHWND__@@I_K_J@Z 0000000140003020 f   AboutDlg.obj
 0001:00002734       ?searchProc@ConEmuAbout@@YAXPEAUHWND__@@0_N@Z 0000000140003734 f   AboutDlg.obj
 0001:00002a7c       __local_stdio_printf_options 0000000140003a7c f i AboutDlg.obj
 0001:00002a84       ??$swprintf_c@$0FA@@@YAHAEAY0FA@_WPEB_WZZ 0000000140003a84 f i AltNumpad.obj
 0001:00002ab0       ??$swprintf_c@$0HI@@@YAHAEAY0HI@_WPEB_WZZ 0000000140003ab0 f i AltNumpad.obj
 0001:00002adc       ??0CAltNumpad@@QEAA@PEAVCConEmuMain@@@Z 0000000140003adc f   AltNumpad.obj
 0001:00002b04       ?ResetOnStart@CVirtualConsole@@QEAAXXZ 0000000140003b04 f   VirtualConsole.obj
 0001:00002b04       ??1critical_section@Concurrency@@QEAA@XZ 0000000140003b04 f   libconcrt:rtlocks.obj
 0001:00002b04       ?NotifyResourcesExternallyIdle@ThreadScheduler@details@Concurrency@@UEAAXPEAPEAUIVirtualProcessorRoot@3@I@Z 0000000140003b04 f   libconcrt:ThreadScheduler.obj
 0001:00002b04       _initialize_denormal_control 0000000140003b04 f   LIBCMT:denormal_control.obj
 0001:00002b04       ?RMAwaken@InternalContextBase@details@Concurrency@@EEAAXXZ 0000000140003b04 f   libconcrt:InternalContextBase.obj
 0001:00002b04       ?RunDebugTests@@YAXXZ      0000000140003b04 f   UnitTests.obj
 0001:00002b04       ??1HandleMonitor@@QEAA@XZ  0000000140003b04 f   GdiObjects.obj
 0001:00002b04       ??1CAltNumpad@@QEAA@XZ     0000000140003b04 f   AltNumpad.obj
 0001:00002b04       ?destroy@stl_condition_variable_win7@details@Concurrency@@UEAAXXZ 0000000140003b04 f   libcpmt:cond.obj
 0001:00002b04       ?PostCreateThreadFinished@CDefaultTerminal@@MEAAXXZ 0000000140003b04 f   DefaultTerm.obj
 0001:00002b04       ?destroy@stl_critical_section_win7@details@Concurrency@@UEAAXXZ 0000000140003b04 f   libcpmt:mutex.obj
 0001:00002b04       ?LogHookingStatus@CDefTermBase@@UEAAXKPEB_W@Z 0000000140003b04 f   DefaultTerm.obj
 0001:00002b04       ?OnTaskbarCreated@CDragDropData@@QEAAXXZ 0000000140003b04 f   DragDropData.obj
 0001:00002b04       ?PostCreateThreadFinished@CDefTermBase@@MEAAXXZ 0000000140003b04 f   DefaultTerm.obj
 0001:00002b04       ?DragFeedBack@CBaseDropTarget@@UEAAXK@Z 0000000140003b04 f   BaseDragDrops.obj
 0001:00002b04       ?DeleteKey@SettingsINI@@UEAAXPEB_W@Z 0000000140003b04 f   SettingsStorage.obj
 0001:00002b04       ?Type@CStartEnvTitle@@UEAAXPEB_W0@Z 0000000140003b04 f   common-user64:ProcessSetEnv.obj
 0001:00002b04       ?destroy@stl_condition_variable_vista@details@Concurrency@@UEAAXXZ 0000000140003b04 f   libcpmt:cond.obj
 0001:00002b04       ?VirtualProcessorActiveNotification@SchedulerBase@details@Concurrency@@MEAAX_NJ@Z 0000000140003b04 f   libconcrt:SchedulerBase.obj
 0001:00002b04       ?OnUseTheming@CConEmuMain@@MEAAX_N@Z 0000000140003b04 f   ConEmu.obj
 0001:00002b04       ?Set@CStartEnvTitle@@UEAAXPEB_W0@Z 0000000140003b04 f   common-user64:ProcessSetEnv.obj
 0001:00002b04       ?ChCp@CStartEnvTitle@@UEAAXPEB_W@Z 0000000140003b04 f   common-user64:ProcessSetEnv.obj
 0001:00002b04       ?OnUseDwm@CConEmuMain@@MEAAX_N@Z 0000000140003b04 f   ConEmu.obj
 0001:00002b04       ?NotifyAffinitizedWork@FairScheduleGroupSegment@details@Concurrency@@UEAAXXZ 0000000140003b04 f   libconcrt:SchedulerBase.obj
 0001:00002b04       ?ReleaseBuffer@MPipeBase@@UEAAXXZ 0000000140003b04 f   RealConsole.obj
 0001:00002b04       _initialize_invalid_parameter_handler 0000000140003b04 f   LIBCMT:invalid_parameter_handler.obj
 0001:00002b04       ?CreateNodeTopology@ResourceManager@details@Concurrency@@UEAAXIPEAIPEAPEAI0@Z 0000000140003b04 f   libconcrt:ResourceManager.obj
 0001:00002b04       ?ConhostLocker@CDefTermBase@@MEAAX_NAEA_N@Z 0000000140003b04 f   DefaultTerm.obj
 0001:00002b04       _guard_check_icall_nop     0000000140003b04 f   LIBCMT:guard_support.obj
 0001:00002b04       ?PreCreateThread@CDefTermBase@@MEAAXXZ 0000000140003b04 f   DefaultTerm.obj
 0001:00002b04       ?_Doraise@exception@stdext@@MEBAXXZ 0000000140003b04 f   common-kernel64:CEStr.obj
 0001:00002b04       ?Echo@CStartEnvTitle@@UEAAXPEB_W0@Z 0000000140003b04 f   common-user64:ProcessSetEnv.obj
 0001:00002b04       ?PrintRecentStack@CTabBarClass@@QEAAXXZ 0000000140003b04 f   TabBar.obj
 0001:00002b04       ?Alias@CStartEnvTitle@@UEAAXPEB_W0@Z 0000000140003b04 f   common-user64:ProcessSetEnv.obj
 0001:00002b04       ?OnPostLocalize@CSetPgBase@@UEAAXPEAUHWND__@@@Z 0000000140003b04 f   SetPgANSI.obj
 0001:00002b04       ?OnUseGlass@CConEmuMain@@MEAAX_N@Z 0000000140003b04 f   ConEmu.obj
 0001:00002b04       ??1CPushInfo@@QEAA@XZ      0000000140003b04 f   PushInfo.obj
 0001:00002b04       ?SyncWindowToConsole@CVConGroup@@SAXXZ 0000000140003b04 f   VConGroup.obj
 0001:00002b04       ?Save@SettingsINI@@UEAAXPEB_WPEBEKK@Z 0000000140003b04 f   SettingsStorage.obj
 0001:00002b04       ??1CRConFiles@@QEAA@XZ     0000000140003b04 f   RConFiles.obj
 0001:00002b04       ?ResetCache@CRConFiles@@QEAAXXZ 0000000140003b04 f   RConFiles.obj
 0001:00002b04       ?NotifyResourcesExternallyBusy@ThreadScheduler@details@Concurrency@@UEAAXPEAPEAUIVirtualProcessorRoot@3@I@Z 0000000140003b04 f   libconcrt:ThreadScheduler.obj
 0001:00002b04       ?ExecuteProcessFinished@CConEmuMain@@IEAAX_N@Z 0000000140003b04 f   ConEmu.obj
 0001:00002b04       ?Destroy@WaitAnyBlock@details@Concurrency@@UEAAXXZ 0000000140003b04 f   libconcrt:event.obj
 0001:00002b08       ?ClearAltNumber@CAltNumpad@@IEAAX_N@Z 0000000140003b08 f   AltNumpad.obj
 0001:00002bac       ?DumpAltNumber@CAltNumpad@@IEAA?AW4AltCharAction@@XZ 0000000140003bac f   AltNumpad.obj
 0001:00002cd4       ?DumpChars@CAltNumpad@@IEAAXPEA_W@Z 0000000140003cd4 f   AltNumpad.obj
 0001:00002d90       ?DumpStatus@CAltNumpad@@IEAAXXZ 0000000140003d90 f   AltNumpad.obj
 0001:00002ef0       ?GetChars@CAltNumpad@@IEAAHAEAY02_W@Z 0000000140003ef0 f   AltNumpad.obj
 0001:00002f7c       ?OnKeyboard@CAltNumpad@@QEAA_NPEAUHWND__@@I_K_J@Z 0000000140003f7c f   AltNumpad.obj
 0001:0000333c       ?StartCapture@CAltNumpad@@QEAAXII_N@Z 000000014000433c f   AltNumpad.obj
 0001:0000344c       ?isAltNumpad@CAltNumpad@@IEAA_NXZ 000000014000444c f   AltNumpad.obj
 0001:000034b0       ?isUseAltGrayPlus@CAltNumpad@@IEAA_NXZ 00000001400044b0 f   AltNumpad.obj
 0001:00003524       ??$SafeDelete@VCDpiForDialog@@@@YAXAEAPEAVCDpiForDialog@@@Z 0000000140004524 f i Attach.obj
 0001:0000356c       ??$SafeDelete@VCVConGuard@@@@YAXAEAPEAVCVConGuard@@@Z 000000014000456c f i VConGroup.obj
 0001:0000356c       ??$SafeDelete@VCConEmuInside@@@@YAXAEAPEAVCConEmuInside@@@Z 000000014000456c f i ConEmu.obj
 0001:0000356c       ??$SafeDelete@VCSetPgBase@@@@YAXAEAPEAVCSetPgBase@@@Z 000000014000456c f i OptionsClass.obj
 0001:0000356c       ??$SafeDelete@VCDynDialog@@@@YAXAEAPEAVCDynDialog@@@Z 000000014000456c f i Attach.obj
 0001:0000356c       ??$SafeDelete@VCToolTip@@@@YAXAEAPEAVCToolTip@@@Z 000000014000456c f i ConEmu.obj
 0001:0000356c       ??$SafeDelete@VCTabBarClass@@@@YAXAEAPEAVCTabBarClass@@@Z 000000014000456c f i ConEmu.obj
 0001:0000356c       ??$SafeDelete@VCBackground@@@@YAXAEAPEAVCBackground@@@Z 000000014000456c f i VirtualConsole.obj
 0001:0000356c       ??$SafeDelete@VCStatus@@@@YAXAEAPEAVCStatus@@@Z 000000014000456c f i ConEmu.obj
 0001:0000356c       ??$SafeDelete@VMFileLog@@@@YAXAEAPEAVMFileLog@@@Z 000000014000456c f i RealConsole.obj
 0001:0000356c       ??$SafeDelete@VCTabPanelBase@@@@YAXAEAPEAVCTabPanelBase@@@Z 000000014000456c f i TabBar.obj
 0001:0000356c       ??$SafeDelete@VCRConPalette@@@@YAXAEAPEAVCRConPalette@@@Z 000000014000456c f i RealConsole.obj
 0001:0000356c       ??$SafeDelete@VCFormatCopy@@@@YAXAEAPEAVCFormatCopy@@@Z 000000014000456c f i RealBuffer.obj
 0001:0000356c       ??$SafeDelete@VCTaskSchedulerBase@@@@YAXAEAPEAVCTaskSchedulerBase@@@Z 000000014000456c f i TaskScheduler.obj
 0001:0000356c       ??$SafeDelete@VCSettings@@@@YAXAEAPEAVCSettings@@@Z 000000014000456c f i ConEmuApp.obj
 0001:0000356c       ??$SafeDelete@VMFileLogEx@@@@YAXAEAPEAVMFileLogEx@@@Z 000000014000456c f i ConEmu.obj
 0001:000035a0       ??$_Emplace_reallocate@AEBUGuiMacroArg@@@?$vector@UGuiMacroArg@@V?$MArrayAllocator@UGuiMacroArg@@@@@std@@QEAAPEAUGuiMacroArg@@QEAU2@AEBU2@@Z 00000001400045a0 f i MacroImpl.obj
 0001:000035a0       ??$_Emplace_reallocate@AEBU_FindAllMonitorsItem@@@?$vector@U_FindAllMonitorsItem@@V?$MArrayAllocator@U_FindAllMonitorsItem@@@@@std@@QEAAPEAU_FindAllMonitorsItem@@QEAU2@AEBU2@@Z 00000001400045a0 f i common-user64:Monitors.obj
 0001:000035a0       ??$_Emplace_reallocate@AEBUProcessInfo@CDefTermBase@@@?$vector@UProcessInfo@CDefTermBase@@V?$MArrayAllocator@UProcessInfo@CDefTermBase@@@@@std@@QEAAPEAUProcessInfo@CDefTermBase@@QEAU23@AEBU23@@Z 00000001400045a0 f i ConEmu.obj
 0001:000035a0       ??$_Emplace_reallocate@AEBUAttachParm@@@?$vector@UAttachParm@@V?$MArrayAllocator@UAttachParm@@@@@std@@QEAAPEAUAttachParm@@QEAU2@AEBU2@@Z 00000001400045a0 f i Attach.obj
 0001:000036dc       ??$swprintf_c@$0BAE@@@YAHAEAY0BAE@_WPEB_WZZ 00000001400046dc f i Attach.obj
 0001:00003708       ??$swprintf_c@$0CAD@@@YAHAEAY0CAD@_WPEB_WZZ 0000000140004708 f i Attach.obj
 0001:00003734       ??$swprintf_c@$0DAM@@@YAHAEAY0DAM@_WPEB_WZZ 0000000140004734 f i Attach.obj
 0001:00003760       ??$swprintf_c@$0EAA@@@YAHAEAY0EAA@_WPEB_WZZ 0000000140004760 f i Attach.obj
 0001:0000378c       ??$wcscpy_c@$0BA@@@YAHAEAY0BA@_WPEB_W@Z 000000014000478c f i Attach.obj
 0001:000037d8       ??$wcscpy_c@$0BAE@@@YAHAEAY0BAE@_WPEB_W@Z 00000001400047d8 f i Attach.obj
 0001:00003824       ??$wcscpy_c@$0BEE@@@YAHAEAY0BEE@_WPEB_W@Z 0000000140004824 f i Attach.obj
 0001:00003870       ??$wcscpy_c@$0EA@@@YAHAEAY0EA@_WPEB_W@Z 0000000140004870 f i Attach.obj
 0001:000038bc       ??$wcscpy_c@$0PP@@@YAHAEAY0PP@_WPEB_W@Z 00000001400048bc f i Attach.obj
 0001:00003908       ??0CAttachDlg@@QEAA@XZ     0000000140004908 f   Attach.obj
 0001:0000394c       ??0CProcessData@@QEAA@XZ   000000014000494c f i Attach.obj
 0001:000039c4       ??0bad_alloc@std@@QEAA@AEBV01@@Z 00000001400049c4 f i Attach.obj
 0001:00003a00       ??0bad_alloc@std@@QEAA@XZ  0000000140004a00 f i Attach.obj
 0001:00003a20       ??0exception@std@@QEAA@AEBV01@@Z 0000000140004a20 f i Attach.obj
 0001:00003a54       ??1CAttachDlg@@QEAA@XZ     0000000140004a54 f   Attach.obj
 0001:00003a64       ??1CProcessData@@QEAA@XZ   0000000140004a64 f i Attach.obj
 0001:00003aa0       ??1exception@std@@UEAA@XZ  0000000140004aa0 f i Attach.obj
 0001:00003aa0       ??1context_unblock_unbalanced@Concurrency@@UEAA@XZ 0000000140004aa0 f i libconcrt:Exceptions.obj
 0001:00003aa0       ??1scheduler_worker_creation_error@Concurrency@@UEAA@XZ 0000000140004aa0 f i libconcrt:Exceptions.obj
 0001:00003aa0       ??1improper_scheduler_reference@Concurrency@@UEAA@XZ 0000000140004aa0 f i libconcrt:Exceptions.obj
 0001:00003aa0       ??1invalid_scheduler_policy_value@Concurrency@@UEAA@XZ 0000000140004aa0 f i libconcrt:Exceptions.obj
 0001:00003aa0       ??1unsupported_os@Concurrency@@UEAA@XZ 0000000140004aa0 f i libconcrt:Exceptions.obj
 0001:00003aa0       ??1invalid_operation@Concurrency@@UEAA@XZ 0000000140004aa0 f i libconcrt:ResourceManager.obj
 0001:00003aa0       ??1out_of_range@std@@UEAA@XZ 0000000140004aa0 f i libcpmt:xthrow.obj
 0001:00003aa0       ??1_Interruption_exception@details@Concurrency@@UEAA@XZ 0000000140004aa0 f i libconcrt:TaskCollection.obj
 0001:00003aa0       ??1scheduler_resource_allocation_error@Concurrency@@UEAA@XZ 0000000140004aa0 f i libconcrt:Platform.obj
 0001:00003aa0       ??1parse_error@rapidxml@@UEAA@XZ 0000000140004aa0 f i SettingsStorage.obj
 0001:00003aa0       ??1bad_alloc@std@@UEAA@XZ  0000000140004aa0 f i Attach.obj
 0001:00003aa0       ??1nested_scheduler_missing_detach@Concurrency@@UEAA@XZ 0000000140004aa0 f i libconcrt:Exceptions.obj
 0001:00003aa0       ??1bad_exception@std@@UEAA@XZ 0000000140004aa0 f i libvcruntime:frame.obj
 0001:00003aa0       ??1improper_lock@Concurrency@@UEAA@XZ 0000000140004aa0 f i libconcrt:rtlocks.obj
 0001:00003aa0       ??1bad_array_new_length@std@@UEAA@XZ 0000000140004aa0 f i ConEmu.obj
 0001:00003aa0       ??1missing_wait@Concurrency@@UEAA@XZ 0000000140004aa0 f i libconcrt:Exceptions.obj
 0001:00003aa0       ??1length_error@std@@UEAA@XZ 0000000140004aa0 f i libcpmt:xthrow.obj
 0001:00003aa0       ??1invalid_scheduler_policy_thread_specification@Concurrency@@UEAA@XZ 0000000140004aa0 f i libconcrt:Exceptions.obj
 0001:00003aa0       ??1invalid_argument@std@@UEAA@XZ 0000000140004aa0 f i libcpmt:xthrow.obj
 0001:00003aa0       ??1system_error@std@@UEAA@XZ 0000000140004aa0 f i libcpmt:thread0.obj
 0001:00003aa0       ??1improper_scheduler_attach@Concurrency@@UEAA@XZ 0000000140004aa0 f i libconcrt:Exceptions.obj
 0001:00003aa0       ??1bad_cast@std@@UEAA@XZ   0000000140004aa0 f i libvcruntime:rtti.obj
 0001:00003aa0       ??1context_self_unblock@Concurrency@@UEAA@XZ 0000000140004aa0 f i libconcrt:Exceptions.obj
 0001:00003aa0       ??1invalid_scheduler_policy_key@Concurrency@@UEAA@XZ 0000000140004aa0 f i libconcrt:Exceptions.obj
 0001:00003aa0       ??1bad_function_call@std@@UEAA@XZ 0000000140004aa0 f i libcpmt:xthrow.obj
 0001:00003aa0       ??1__non_rtti_object@std@@UEAA@XZ 0000000140004aa0 f i libvcruntime:rtti.obj
 0001:00003aa0       ??1invalid_oversubscribe_operation@Concurrency@@UEAA@XZ 0000000140004aa0 f i libconcrt:Exceptions.obj
 0001:00003ab4       ??_Eexception@std@@UEAAPEAXI@Z 0000000140004ab4 f i Attach.obj
 0001:00003ab4       ??_Econtext_unblock_unbalanced@Concurrency@@UEAAPEAXI@Z 0000000140004ab4 f i libconcrt:Exceptions.obj
 0001:00003ab4       ??_Eimproper_lock@Concurrency@@UEAAPEAXI@Z 0000000140004ab4 f i libconcrt:rtlocks.obj
 0001:00003ab4       ??_Gcontext_self_unblock@Concurrency@@UEAAPEAXI@Z 0000000140004ab4 f i libconcrt:Exceptions.obj
 0001:00003ab4       ??_Ginvalid_argument@std@@UEAAPEAXI@Z 0000000140004ab4 f i libcpmt:xthrow.obj
 0001:00003ab4       ??_Gimproper_scheduler_reference@Concurrency@@UEAAPEAXI@Z 0000000140004ab4 f i libconcrt:Exceptions.obj
 0001:00003ab4       ??_Gbad_exception@std@@UEAAPEAXI@Z 0000000140004ab4 f i libvcruntime:frame.obj
 0001:00003ab4       ??_Gimproper_scheduler_attach@Concurrency@@UEAAPEAXI@Z 0000000140004ab4 f i libconcrt:Exceptions.obj
 0001:00003ab4       ??_G__non_rtti_object@std@@UEAAPEAXI@Z 0000000140004ab4 f i libvcruntime:rtti.obj
 0001:00003ab4       ??_Econtext_self_unblock@Concurrency@@UEAAPEAXI@Z 0000000140004ab4 f i libconcrt:Exceptions.obj
 0001:00003ab4       ??_Elength_error@std@@UEAAPEAXI@Z 0000000140004ab4 f i libcpmt:xthrow.obj
 0001:00003ab4       ??_Eunsupported_os@Concurrency@@UEAAPEAXI@Z 0000000140004ab4 f i libconcrt:Exceptions.obj
 0001:00003ab4       ??_Gruntime_error@std@@UEAAPEAXI@Z 0000000140004ab4 f i libcpmt:xthrow.obj
 0001:00003ab4       ??_Gout_of_range@std@@UEAAPEAXI@Z 0000000140004ab4 f i libcpmt:xthrow.obj
 0001:00003ab4       ??_Ginvalid_scheduler_policy_thread_specification@Concurrency@@UEAAPEAXI@Z 0000000140004ab4 f i libconcrt:Exceptions.obj
 0001:00003ab4       ??_Gbad_array_new_length@std@@UEAAPEAXI@Z 0000000140004ab4 f i ConEmu.obj
 0001:00003ab4       ??_Gunsupported_os@Concurrency@@UEAAPEAXI@Z 0000000140004ab4 f i libconcrt:Exceptions.obj
 0001:00003ab4       ??_Elogic_error@std@@UEAAPEAXI@Z 0000000140004ab4 f i libcpmt:xthrow.obj
 0001:00003ab4       ??_Ginvalid_operation@Concurrency@@UEAAPEAXI@Z 0000000140004ab4 f i libconcrt:ResourceManager.obj
 0001:00003ab4       ??_Ebad_alloc@std@@UEAAPEAXI@Z 0000000140004ab4 f i Attach.obj
 0001:00003ab4       ??_Ginvalid_scheduler_policy_key@Concurrency@@UEAAPEAXI@Z 0000000140004ab4 f i libconcrt:Exceptions.obj
 0001:00003ab4       ??_Einvalid_oversubscribe_operation@Concurrency@@UEAAPEAXI@Z 0000000140004ab4 f i libconcrt:Exceptions.obj
 0001:00003ab4       ??_Eout_of_range@std@@UEAAPEAXI@Z 0000000140004ab4 f i libcpmt:xthrow.obj
 0001:00003ab4       ??_Gcontext_unblock_unbalanced@Concurrency@@UEAAPEAXI@Z 0000000140004ab4 f i libconcrt:Exceptions.obj
 0001:00003ab4       ??_Einvalid_operation@Concurrency@@UEAAPEAXI@Z 0000000140004ab4 f i libconcrt:ResourceManager.obj
 0001:00003ab4       ??_Enested_scheduler_missing_detach@Concurrency@@UEAAPEAXI@Z 0000000140004ab4 f i libconcrt:Exceptions.obj
 0001:00003ab4       ??_Gbad_alloc@std@@UEAAPEAXI@Z 0000000140004ab4 f i Attach.obj
 0001:00003ab4       ??_Ebad_function_call@std@@UEAAPEAXI@Z 0000000140004ab4 f i libcpmt:xthrow.obj
 0001:00003ab4       ??_Ginvalid_oversubscribe_operation@Concurrency@@UEAAPEAXI@Z 0000000140004ab4 f i libconcrt:Exceptions.obj
 0001:00003ab4       ??_Gbad_typeid@std@@UEAAPEAXI@Z 0000000140004ab4 f i libvcruntime:rtti.obj
 0001:00003ab4       ??_Eimproper_scheduler_attach@Concurrency@@UEAAPEAXI@Z 0000000140004ab4 f i libconcrt:Exceptions.obj
 0001:00003ab4       ??_Einvalid_argument@std@@UEAAPEAXI@Z 0000000140004ab4 f i libcpmt:xthrow.obj
 0001:00003ab4       ??_Gimproper_lock@Concurrency@@UEAAPEAXI@Z 0000000140004ab4 f i libconcrt:rtlocks.obj
 0001:00003ab4       ??_Gnested_scheduler_missing_detach@Concurrency@@UEAAPEAXI@Z 0000000140004ab4 f i libconcrt:Exceptions.obj
 0001:00003ab4       ??_Eimproper_scheduler_reference@Concurrency@@UEAAPEAXI@Z 0000000140004ab4 f i libconcrt:Exceptions.obj
 0001:00003ab4       ??_Glength_error@std@@UEAAPEAXI@Z 0000000140004ab4 f i libcpmt:xthrow.obj
 0001:00003ab4       ??_G_Interruption_exception@details@Concurrency@@UEAAPEAXI@Z 0000000140004ab4 f i libconcrt:TaskCollection.obj
 0001:00003ab4       ??_Ebad_typeid@std@@UEAAPEAXI@Z 0000000140004ab4 f i libvcruntime:rtti.obj
 0001:00003ab4       ??_Gmissing_wait@Concurrency@@UEAAPEAXI@Z 0000000140004ab4 f i libconcrt:Exceptions.obj
 0001:00003ab4       ??_Einvalid_scheduler_policy_value@Concurrency@@UEAAPEAXI@Z 0000000140004ab4 f i libconcrt:Exceptions.obj
 0001:00003ab4       ??_Einvalid_scheduler_policy_key@Concurrency@@UEAAPEAXI@Z 0000000140004ab4 f i libconcrt:Exceptions.obj
 0001:00003ab4       ??_Gbad_function_call@std@@UEAAPEAXI@Z 0000000140004ab4 f i libcpmt:xthrow.obj
 0001:00003ab4       ??_Ebad_array_new_length@std@@UEAAPEAXI@Z 0000000140004ab4 f i ConEmu.obj
 0001:00003ab4       ??_Eruntime_error@std@@UEAAPEAXI@Z 0000000140004ab4 f i libcpmt:xthrow.obj
 0001:00003ab4       ??_Ebad_cast@std@@UEAAPEAXI@Z 0000000140004ab4 f i libvcruntime:rtti.obj
 0001:00003ab4       ??_Einvalid_scheduler_policy_thread_specification@Concurrency@@UEAAPEAXI@Z 0000000140004ab4 f i libconcrt:Exceptions.obj
 0001:00003ab4       ??_Ginvalid_scheduler_policy_value@Concurrency@@UEAAPEAXI@Z 0000000140004ab4 f i libconcrt:Exceptions.obj
 0001:00003ab4       ??_Emissing_wait@Concurrency@@UEAAPEAXI@Z 0000000140004ab4 f i libconcrt:Exceptions.obj
 0001:00003ab4       ??_Glogic_error@std@@UEAAPEAXI@Z 0000000140004ab4 f i libcpmt:xthrow.obj
 0001:00003ab4       ??_Gexception@std@@UEAAPEAXI@Z 0000000140004ab4 f i Attach.obj
 0001:00003ab4       ??_E_Interruption_exception@details@Concurrency@@UEAAPEAXI@Z 0000000140004ab4 f i libconcrt:TaskCollection.obj
 0001:00003ab4       ??_Gbad_cast@std@@UEAAPEAXI@Z 0000000140004ab4 f i libvcruntime:rtti.obj
 0001:00003ab4       ??_E__non_rtti_object@std@@UEAAPEAXI@Z 0000000140004ab4 f i libvcruntime:rtti.obj
 0001:00003ab4       ??_Ebad_exception@std@@UEAAPEAXI@Z 0000000140004ab4 f i libvcruntime:frame.obj
 0001:00003af8       ?AttachDlg@CAttachDlg@@QEAAXXZ 0000000140004af8 f   Attach.obj
 0001:00003bb0       ?AttachDlgEnumWin@CAttachDlg@@SAHPEAUHWND__@@_J@Z 0000000140004bb0 f   Attach.obj
 0001:00003dd0       ?AttachDlgProc@CAttachDlg@@SA_JPEAUHWND__@@I_K_J@Z 0000000140004dd0 f   Attach.obj
 0001:00004838       ?AttachFromMacro@CAttachDlg@@SA?AW4AttachMacroRet@1@K_N@Z 0000000140005838 f   Attach.obj
 0001:00004b00       ?CanAttachWindow@CAttachDlg@@KA_NPEAUHWND__@@KPEAVCProcessData@@AEAUAttachWndInfo@1@@Z 0000000140005b00 f   Attach.obj
 0001:00004f7c       ?Close@CAttachDlg@@QEAAXXZ 0000000140005f7c f   Attach.obj
 0001:00005018       ?FindProcessName@CProcessData@@IEAA_NKPEA_WK@Z 0000000140006018 f i Attach.obj
 0001:00005118       ?GetHWND@CAttachDlg@@QEAAPEAUHWND__@@XZ 0000000140006118 f   Attach.obj
 0001:00005124       ?GetInternalProcessData@CProcessData@@IEAAHPEAXPEAUModuleData@1@AEAPEAUPROCESS_PARAMETERS@1@AEAPEAD_N@Z 0000000140006124 f i Attach.obj
 0001:000052a8       ?GetOpenProcessData@CProcessData@@IEAAXPEAXPEA_WK1K1K@Z 00000001400062a8 f i Attach.obj
 0001:00005494       ?GetProcessName@CProcessData@@QEAA_NKPEA_WK0KPEAH@Z 0000000140006494 f i Attach.obj
 0001:00005728       ?LoadPerfData@CProcessData@@IEAA_NXZ 0000000140006728 f i Attach.obj
 0001:00005a08       ?OnStartAttach@CAttachDlg@@IEAA_NXZ 0000000140006a08 f   Attach.obj
 0001:00005d84       ?StartAttach@CAttachDlg@@KA_NPEAUHWND__@@KKW4AttachProcessType@@HH@Z 0000000140006d84 f   Attach.obj
 0001:00006438       ?StartAttachThread@CAttachDlg@@SAKPEAV?$MArray@UAttachParm@@@@@Z 0000000140007438 f   Attach.obj
 0001:000064e4       ?_Xlength@?$vector@PEAVCFont@@V?$MArrayAllocator@PEAVCFont@@@@@std@@CAXXZ 00000001400074e4 f i FontMgr.obj
 0001:000064e4       ?_Xlength@?$vector@UFontHeightInfo@@V?$MArrayAllocator@UFontHeightInfo@@@@@std@@CAXXZ 00000001400074e4 f i FontMgr.obj
 0001:000064e4       ?_Xlength@?$vector@PEAVCTabID@@V?$MArrayAllocator@PEAVCTabID@@@@@std@@CAXXZ 00000001400074e4 f i TabBar.obj
 0001:000064e4       ?_Xlength@?$vector@ULngRcItem@CLngRc@@V?$MArrayAllocator@ULngRcItem@CLngRc@@@@@std@@CAXXZ 00000001400074e4 f i LngRc.obj
 0001:000064e4       ?_Xlength@?$vector@UThreadHandle@CDefTermBase@@V?$MArrayAllocator@UThreadHandle@CDefTermBase@@@@@std@@CAXXZ 00000001400074e4 f i ConEmu.obj
 0001:000064e4       ?_Xlength@?$vector@UFoundFile@FastConfig@@V?$MArrayAllocator@UFoundFile@FastConfig@@@@@std@@CAXXZ 00000001400074e4 f i OptionsFast.obj
 0001:000064e4       ?_Xlength@?$vector@PEAVCVConGuard@@V?$MArrayAllocator@PEAVCVConGuard@@@@@std@@CAXXZ 00000001400074e4 f i VConGroup.obj
 0001:000064e4       ?_Xlength@?$vector@UAppInfo@AppFoundList@FastConfig@@V?$MArrayAllocator@UAppInfo@AppFoundList@FastConfig@@@@@std@@CAXXZ 00000001400074e4 f i OptionsFast.obj
 0001:000064e4       ?_Xlength@?$vector@ULngDefinition@CLngRc@@V?$MArrayAllocator@ULngDefinition@CLngRc@@@@@std@@CAXXZ 00000001400074e4 f i LngRc.obj
 0001:000064e4       ?_Xlength@?$vector@USshAgent@CConEmuMain@@V?$MArrayAllocator@USshAgent@CConEmuMain@@@@@std@@CAXXZ 00000001400074e4 f i ConEmu.obj
 0001:000064e4       ?_Xlength@?$vector@UCmdTaskPopupItem@CConEmuMenu@@V?$MArrayAllocator@UCmdTaskPopupItem@CConEmuMenu@@@@@std@@CAXXZ 00000001400074e4 f i Menu.obj
 0001:000064e4       ?_Xlength@?$vector@UGuiMacroArg@@V?$MArrayAllocator@UGuiMacroArg@@@@@std@@CAXXZ 00000001400074e4 f i MacroImpl.obj
 0001:000064e4       ?_Xlength@?$vector@HV?$MArrayAllocator@H@@@std@@CAXXZ 00000001400074e4 f i CmdHistory.obj
 0001:000064e4       ?_Xlength@?$vector@URunQueueItem@CRunQueue@@V?$MArrayAllocator@URunQueueItem@CRunQueue@@@@@std@@CAXXZ 00000001400074e4 f i RunQueue.obj
 0001:000064e4       ?_Xlength@?$vector@PEAUHWND__@@V?$MArrayAllocator@PEAUHWND__@@@@@std@@CAXXZ 00000001400074e4 f i ConEmu.obj
 0001:000064e4       ?_Xlength@?$vector@UProcessInfo@CDefTermBase@@V?$MArrayAllocator@UProcessInfo@CDefTermBase@@@@@std@@CAXXZ 00000001400074e4 f i ConEmu.obj
 0001:000064e4       ?_Xlength@?$vector@U_FindAllMonitorsItem@@V?$MArrayAllocator@U_FindAllMonitorsItem@@@@@std@@CAXXZ 00000001400074e4 f i common-user64:Monitors.obj
 0001:000064e4       ?_Xlength@?$vector@Utxt@CFormatCopy@@V?$MArrayAllocator@Utxt@CFormatCopy@@@@@std@@CAXXZ 00000001400074e4 f i HtmlCopy.obj
 0001:000064e4       ?_Xlength@?$vector@UDragData@CDataObject@@V?$MArrayAllocator@UDragData@CDataObject@@@@@std@@CAXXZ 00000001400074e4 f i BaseDragDrops.obj
 0001:000064e4       ?_Xlength@?$vector@PEAUSwitch@@V?$MArrayAllocator@PEAUSwitch@@@@@std@@CAXXZ 00000001400074e4 f i SetPgIntegr.obj
 0001:000064e4       ?_Xlength@?$vector@UAttachParm@@V?$MArrayAllocator@UAttachParm@@@@@std@@CAXXZ 00000001400074e4 f i Attach.obj
 0001:000064e4       ?_Xlength@?$vector@UMonitorInfoCache@CConEmuSize@@V?$MArrayAllocator@UMonitorInfoCache@CConEmuSize@@@@@std@@CAXXZ 00000001400074e4 f i ConEmuSize.obj
 0001:000064e4       ?_Xlength@?$vector@UCEStr@@V?$allocator@UCEStr@@@std@@@std@@CAXXZ 00000001400074e4 f i FontMgr.obj
 0001:000064e4       ?_Xlength@?$vector@PEAVCVConGroup@@V?$MArrayAllocator@PEAVCVConGroup@@@@@std@@CAXXZ 00000001400074e4 f i VConGroup.obj
 0001:000064e4       ?_Xlength@?$vector@UVarDef@CVarDefs@FastConfig@@V?$MArrayAllocator@UVarDef@CVarDefs@FastConfig@@@@@std@@CAXXZ 00000001400074e4 f i OptionsFast.obj
 0001:000064e4       ?_Xlength@?$vector@UConEmuHotKey@@V?$MArrayAllocator@UConEmuHotKey@@@@@std@@CAXXZ 00000001400074e4 f i HotkeyList.obj
 0001:000064e4       ?_Xlength@?$vector@DV?$MArrayAllocator@D@@@std@@CAXXZ 00000001400074e4 f i SettingsStorage.obj
 0001:000064e4       ?_Xlength@?$vector@PEAVCustomFont@@V?$MArrayAllocator@PEAVCustomFont@@@@@std@@CAXXZ 00000001400074e4 f i CustomFonts.obj
 0001:000064e4       ?_Xlength@?$vector@UBtnInfo@@V?$MArrayAllocator@UBtnInfo@@@@@std@@CAXXZ 00000001400074e4 f i ImgButton.obj
 0001:000064e4       ?_Xlength@?$vector@PEAXV?$MArrayAllocator@PEAX@@@std@@CAXXZ 00000001400074e4 f i TaskBar.obj
 0001:000064e4       ?_Xlength@?$vector@UtagPROCESSENTRY32W@@V?$MArrayAllocator@UtagPROCESSENTRY32W@@@@@std@@CAXXZ 00000001400074e4 f i RealConsole.obj
 0001:000064e4       ?_Xlength@?$vector@UHighlightRect@CVirtualConsole@@V?$MArrayAllocator@UHighlightRect@CVirtualConsole@@@@@std@@CAXXZ 00000001400074e4 f i VirtualConsole.obj
 0001:000064e4       ?_Xlength@?$vector@PEAVCBackgroundInfo@@V?$MArrayAllocator@PEAVCBackgroundInfo@@@@@std@@CAXXZ 00000001400074e4 f i Background.obj
 0001:000064e4       ?_Xlength@?$vector@PEB_WV?$MArrayAllocator@PEB_W@@@std@@CAXXZ 00000001400074e4 f i ConEmu.obj
 0001:000064e4       ?_Xlength@?$vector@UTabIconCache@CIconList@@V?$MArrayAllocator@UTabIconCache@CIconList@@@@@std@@CAXXZ 00000001400074e4 f i IconList.obj
 0001:000064e4       ?_Xlength@?$vector@UDlgItem@CDpiForDialog@@V?$MArrayAllocator@UDlgItem@CDpiForDialog@@@@@std@@CAXXZ 00000001400074e4 f i DpiAware.obj
 0001:000064e4       ?_Xlength@?$vector@UConProcess@@V?$MArrayAllocator@UConProcess@@@@@std@@CAXXZ 00000001400074e4 f i RealConsole.obj
 0001:000064e4       ?_Xlength@?$vector@U_ThInfo@CDragDrop@@V?$MArrayAllocator@U_ThInfo@CDragDrop@@@@@std@@CAXXZ 00000001400074e4 f i DragDrop.obj
 0001:000064e4       ?_Xlength@?$vector@PEA_WV?$MArrayAllocator@PEA_W@@@std@@CAXXZ 00000001400074e4 f i CmdHistory.obj
 0001:000064e4       ?_Xlength@?$vector@UItemInfo@CDynDialog@@V?$MArrayAllocator@UItemInfo@CDynDialog@@@@@std@@CAXXZ 00000001400074e4 f i DynDialog.obj
 0001:000064e4       ?_Xlength@?$vector@URegFont@@V?$MArrayAllocator@URegFont@@@@@std@@CAXXZ 00000001400074e4 f i FontMgr.obj
 0001:000064e4       ?_Xlength@?$vector@PEAUCommand@CProcessEnvCmd@@V?$MArrayAllocator@PEAUCommand@CProcessEnvCmd@@@@@std@@CAXXZ 00000001400074e4 f i common-user64:ProcessSetEnv.obj
 0001:000064e4       ?_Xlength@?$vector@U?$pair@_JUCEStr@@@std@@V?$MArrayAllocator@U?$pair@_JUCEStr@@@std@@@@@std@@CAXXZ 00000001400074e4 f i common-kernel64:CEStr.obj
 0001:000064f8       ?deallocate@?$MArrayAllocator@UFoundFile@FastConfig@@@@QEAAXPEAUFoundFile@FastConfig@@_K@Z 00000001400074f8 f i OptionsFast.obj
 0001:000064f8       ?deallocate@?$MArrayAllocator@D@@QEAAXPEAD_K@Z 00000001400074f8 f i SettingsStorage.obj
 0001:000064f8       ?deallocate@?$MArrayAllocator@UMonitorInfoCache@CConEmuSize@@@@QEAAXPEAUMonitorInfoCache@CConEmuSize@@_K@Z 00000001400074f8 f i ConEmuSize.obj
 0001:000064f8       ?deallocate@?$MArrayAllocator@PEAVCVConGuard@@@@QEAAXPEAPEAVCVConGuard@@_K@Z 00000001400074f8 f i VConGroup.obj
 0001:000064f8       ?deallocate@?$MArrayAllocator@PEAVCFont@@@@QEAAXPEAPEAVCFont@@_K@Z 00000001400074f8 f i FontMgr.obj
 0001:000064f8       ?deallocate@?$MArrayAllocator@UGuiMacroArg@@@@QEAAXPEAUGuiMacroArg@@_K@Z 00000001400074f8 f i MacroImpl.obj
 0001:000064f8       ?deallocate@?$MArrayAllocator@ULngDefinition@CLngRc@@@@QEAAXPEAULngDefinition@CLngRc@@_K@Z 00000001400074f8 f i LngRc.obj
 0001:000064f8       ?deallocate@?$MArrayAllocator@PEAUCommand@CProcessEnvCmd@@@@QEAAXPEAPEAUCommand@CProcessEnvCmd@@_K@Z 00000001400074f8 f i common-user64:ProcessSetEnv.obj
 0001:000064f8       ?deallocate@?$MArrayAllocator@UConEmuHotKey@@@@QEAAXPEAUConEmuHotKey@@_K@Z 00000001400074f8 f i HotkeyList.obj
 0001:000064f8       ?deallocate@?$MArrayAllocator@PEAUSwitch@@@@QEAAXPEAPEAUSwitch@@_K@Z 00000001400074f8 f i SetPgIntegr.obj
 0001:000064f8       ?deallocate@?$MArrayAllocator@UThreadHandle@CDefTermBase@@@@QEAAXPEAUThreadHandle@CDefTermBase@@_K@Z 00000001400074f8 f i ConEmu.obj
 0001:000064f8       ?deallocate@?$MArrayAllocator@Utxt@CFormatCopy@@@@QEAAXPEAUtxt@CFormatCopy@@_K@Z 00000001400074f8 f i HtmlCopy.obj
 0001:000064f8       ?deallocate@?$MArrayAllocator@PEAVCBackgroundInfo@@@@QEAAXPEAPEAVCBackgroundInfo@@_K@Z 00000001400074f8 f i Background.obj
 0001:000064f8       ?deallocate@?$MArrayAllocator@UDlgItem@CDpiForDialog@@@@QEAAXPEAUDlgItem@CDpiForDialog@@_K@Z 00000001400074f8 f i DpiAware.obj
 0001:000064f8       ?deallocate@?$MArrayAllocator@UProcessInfo@CDefTermBase@@@@QEAAXPEAUProcessInfo@CDefTermBase@@_K@Z 00000001400074f8 f i ConEmu.obj
 0001:000064f8       ?deallocate@?$MArrayAllocator@PEAVCVConGroup@@@@QEAAXPEAPEAVCVConGroup@@_K@Z 00000001400074f8 f i VConGroup.obj
 0001:000064f8       ?deallocate@?$MArrayAllocator@U_ThInfo@CDragDrop@@@@QEAAXPEAU_ThInfo@CDragDrop@@_K@Z 00000001400074f8 f i DragDrop.obj
 0001:000064f8       ?deallocate@?$MArrayAllocator@UTabIconCache@CIconList@@@@QEAAXPEAUTabIconCache@CIconList@@_K@Z 00000001400074f8 f i IconList.obj
 0001:000064f8       ?deallocate@?$MArrayAllocator@UAppInfo@AppFoundList@FastConfig@@@@QEAAXPEAUAppInfo@AppFoundList@FastConfig@@_K@Z 00000001400074f8 f i OptionsFast.obj
 0001:000064f8       ?deallocate@?$MArrayAllocator@U_FindAllMonitorsItem@@@@QEAAXPEAU_FindAllMonitorsItem@@_K@Z 00000001400074f8 f i common-user64:Monitors.obj
 0001:000064f8       ?deallocate@?$MArrayAllocator@URunQueueItem@CRunQueue@@@@QEAAXPEAURunQueueItem@CRunQueue@@_K@Z 00000001400074f8 f i RunQueue.obj
 0001:000064f8       ?deallocate@?$MArrayAllocator@UCmdTaskPopupItem@CConEmuMenu@@@@QEAAXPEAUCmdTaskPopupItem@CConEmuMenu@@_K@Z 00000001400074f8 f i Menu.obj
 0001:000064f8       ?deallocate@?$MArrayAllocator@PEAVCustomFont@@@@QEAAXPEAPEAVCustomFont@@_K@Z 00000001400074f8 f i CustomFonts.obj
 0001:000064f8       ?deallocate@?$MArrayAllocator@UBtnInfo@@@@QEAAXPEAUBtnInfo@@_K@Z 00000001400074f8 f i ImgButton.obj
 0001:000064f8       ?deallocate@?$MArrayAllocator@H@@QEAAXPEAH_K@Z 00000001400074f8 f i CmdHistory.obj
 0001:000064f8       ?deallocate@?$MArrayAllocator@ULngRcItem@CLngRc@@@@QEAAXPEAULngRcItem@CLngRc@@_K@Z 00000001400074f8 f i LngRc.obj
 0001:000064f8       ?deallocate@?$MArrayAllocator@UDragData@CDataObject@@@@QEAAXPEAUDragData@CDataObject@@_K@Z 00000001400074f8 f i BaseDragDrops.obj
 0001:000064f8       ?deallocate@?$MArrayAllocator@UHighlightRect@CVirtualConsole@@@@QEAAXPEAUHighlightRect@CVirtualConsole@@_K@Z 00000001400074f8 f i VirtualConsole.obj
 0001:000064f8       ?deallocate@?$MArrayAllocator@URegFont@@@@QEAAXPEAURegFont@@_K@Z 00000001400074f8 f i FontMgr.obj
 0001:000064f8       ?deallocate@?$MArrayAllocator@UItemInfo@CDynDialog@@@@QEAAXPEAUItemInfo@CDynDialog@@_K@Z 00000001400074f8 f i DynDialog.obj
 0001:000064f8       ?deallocate@?$MArrayAllocator@PEAUHWND__@@@@QEAAXPEAPEAUHWND__@@_K@Z 00000001400074f8 f i ConEmu.obj
 0001:000064f8       ?deallocate@?$MArrayAllocator@UVarDef@CVarDefs@FastConfig@@@@QEAAXPEAUVarDef@CVarDefs@FastConfig@@_K@Z 00000001400074f8 f i OptionsFast.obj
 0001:000064f8       ?deallocate@?$MArrayAllocator@UtagPROCESSENTRY32W@@@@QEAAXPEAUtagPROCESSENTRY32W@@_K@Z 00000001400074f8 f i RealConsole.obj
 0001:000064f8       ?deallocate@?$MArrayAllocator@USshAgent@CConEmuMain@@@@QEAAXPEAUSshAgent@CConEmuMain@@_K@Z 00000001400074f8 f i ConEmu.obj
 0001:000064f8       ?deallocate@?$MArrayAllocator@PEAVCTabID@@@@QEAAXPEAPEAVCTabID@@_K@Z 00000001400074f8 f i TabBar.obj
 0001:000064f8       ?deallocate@?$MArrayAllocator@UFontHeightInfo@@@@QEAAXPEAUFontHeightInfo@@_K@Z 00000001400074f8 f i FontMgr.obj
 0001:000064f8       ?deallocate@?$MArrayAllocator@UAttachParm@@@@QEAAXPEAUAttachParm@@_K@Z 00000001400074f8 f i Attach.obj
 0001:000064f8       ?deallocate@?$MArrayAllocator@PEB_W@@QEAAXPEAPEB_W_K@Z 00000001400074f8 f i ConEmu.obj
 0001:000064f8       ?deallocate@?$MArrayAllocator@PEAX@@QEAAXPEAPEAX_K@Z 00000001400074f8 f i TaskBar.obj
 0001:000064f8       ?deallocate@?$MArrayAllocator@PEA_W@@QEAAXPEAPEA_W_K@Z 00000001400074f8 f i CmdHistory.obj
 0001:000064f8       ?deallocate@?$MArrayAllocator@UConProcess@@@@QEAAXPEAUConProcess@@_K@Z 00000001400074f8 f i RealConsole.obj
 0001:00006510       ?fNtQueryInformationProcess@CProcessData@@KAJPEAXW4_PROCESSINFOCLASS@1@0KPEAK@Z 0000000140007510 f i Attach.obj
 0001:00006518       ?getModuleFileNameEx@CProcessData@@IEAAKPEAXPEAUHINSTANCE__@@PEA_WK@Z 0000000140007518 f i Attach.obj
 0001:000065c8       ?what@exception@std@@UEBAPEBDXZ 00000001400075c8 f i Attach.obj
 0001:000065dc       ??$SafeDelete@VMSection@@@@YAXAEAPEAVMSection@@@Z 00000001400075dc f i Background.obj
 0001:00006624       ??$_Emplace_reallocate@AEBQEAUHWND__@@@?$vector@PEAUHWND__@@V?$MArrayAllocator@PEAUHWND__@@@@@std@@QEAAPEAPEAUHWND__@@QEAPEAU2@AEBQEAU2@@Z 0000000140007624 f i ConEmu.obj
 0001:00006624       ??$_Emplace_reallocate@AEBQEB_W@?$vector@PEB_WV?$MArrayAllocator@PEB_W@@@std@@QEAAPEAPEB_WQEAPEB_WAEBQEB_W@Z 0000000140007624 f i ConEmu.obj
 0001:00006624       ??$_Emplace_reallocate@PEAVCTabID@@@?$vector@PEAVCTabID@@V?$MArrayAllocator@PEAVCTabID@@@@@std@@QEAAPEAPEAVCTabID@@QEAPEAV2@$$QEAPEAV2@@Z 0000000140007624 f i TabBar.obj
 0001:00006624       ??$_Emplace_reallocate@AEBURunQueueItem@CRunQueue@@@?$vector@URunQueueItem@CRunQueue@@V?$MArrayAllocator@URunQueueItem@CRunQueue@@@@@std@@QEAAPEAURunQueueItem@CRunQueue@@QEAU23@AEBU23@@Z 0000000140007624 f i RunQueue.obj
 0001:00006624       ??$_Emplace_reallocate@AEBQEA_W@?$vector@PEA_WV?$MArrayAllocator@PEA_W@@@std@@QEAAPEAPEA_WQEAPEA_WAEBQEA_W@Z 0000000140007624 f i CmdHistory.obj
 0001:00006624       ??$_Emplace_reallocate@AEBQEAVCFont@@@?$vector@PEAVCFont@@V?$MArrayAllocator@PEAVCFont@@@@@std@@QEAAPEAPEAVCFont@@QEAPEAV2@AEBQEAV2@@Z 0000000140007624 f i FontMgr.obj
 0001:00006624       ??$_Emplace_reallocate@AEBQEAX@?$vector@PEAXV?$MArrayAllocator@PEAX@@@std@@QEAAPEAPEAXQEAPEAXAEBQEAX@Z 0000000140007624 f i TaskBar.obj
 0001:00006624       ??$_Emplace_reallocate@AEBQEAVCustomFont@@@?$vector@PEAVCustomFont@@V?$MArrayAllocator@PEAVCustomFont@@@@@std@@QEAAPEAPEAVCustomFont@@QEAPEAV2@AEBQEAV2@@Z 0000000140007624 f i CustomFonts.obj
 0001:00006624       ??$_Emplace_reallocate@AEBQEAVCVConGroup@@@?$vector@PEAVCVConGroup@@V?$MArrayAllocator@PEAVCVConGroup@@@@@std@@QEAAPEAPEAVCVConGroup@@QEAPEAV2@AEBQEAV2@@Z 0000000140007624 f i VConGroup.obj
 0001:00006624       ??$_Emplace_reallocate@AEBQEAVCVConGuard@@@?$vector@PEAVCVConGuard@@V?$MArrayAllocator@PEAVCVConGuard@@@@@std@@QEAAPEAPEAVCVConGuard@@QEAPEAV2@AEBQEAV2@@Z 0000000140007624 f i VConGroup.obj
 0001:00006624       ??$_Emplace_reallocate@AEBQEAUSwitch@@@?$vector@PEAUSwitch@@V?$MArrayAllocator@PEAUSwitch@@@@@std@@QEAAPEAPEAUSwitch@@QEAPEAU2@AEBQEAU2@@Z 0000000140007624 f i SetPgIntegr.obj
 0001:00006624       ??$_Emplace_reallocate@AEBQEAVCBackgroundInfo@@@?$vector@PEAVCBackgroundInfo@@V?$MArrayAllocator@PEAVCBackgroundInfo@@@@@std@@QEAAPEAPEAVCBackgroundInfo@@QEAPEAV2@AEBQEAV2@@Z 0000000140007624 f i Background.obj
 0001:00006624       ??$_Emplace_reallocate@PEA_W@?$vector@PEA_WV?$MArrayAllocator@PEA_W@@@std@@QEAAPEAPEA_WQEAPEA_W$$QEAPEA_W@Z 0000000140007624 f i ConEmuCtrl.obj
 0001:00006750       ??$swprintf_c@$0CAI@@@YAHAEAY0CAI@_WPEB_WZZ 0000000140007750 f i Background.obj
 0001:0000677c       ??0CBackground@@QEAA@XZ    000000014000777c f   Background.obj
 0001:000067dc       ??0CBackgroundInfo@@IEAA@PEB_W@Z 00000001400077dc f   Background.obj
 0001:00006878       ??1CBackground@@UEAA@XZ    0000000140007878 f   Background.obj
 0001:0000691c       ??1CBackgroundInfo@@MEAA@XZ 000000014000791c f   Background.obj
 0001:000069e0       ??1CVConRelease@@UEAA@XZ   00000001400079e0 f i VirtualConsole.obj
 0001:000069e0       ??1CRefRelease@@MEAA@XZ    00000001400079e0 f i Background.obj
 0001:000069ec       ??_GCBackground@@UEAAPEAXI@Z 00000001400079ec f i Background.obj
 0001:000069ec       ??_ECBackground@@UEAAPEAXI@Z 00000001400079ec f i Background.obj
 0001:00006a20       ??_GCBackgroundInfo@@MEAAPEAXI@Z 0000000140007a20 f i Background.obj
 0001:00006a20       ??_ECBackgroundInfo@@MEAAPEAXI@Z 0000000140007a20 f i Background.obj
 0001:00006a54       ??_ECRefRelease@@MEAAPEAXI@Z 0000000140007a54 f i Background.obj
 0001:00006a54       ??_GCRefRelease@@MEAAPEAXI@Z 0000000140007a54 f i Background.obj
 0001:00006a80       ?BgImage@CBackgroundInfo@@QEAAPEB_WXZ 0000000140007a80 f   Background.obj
 0001:00006a94       ?CreateBackgroundObject@CBackgroundInfo@@SAPEAV1@PEB_W_N@Z 0000000140007a94 f   Background.obj
 0001:00006bfc       ?CreateField@CBackground@@QEAA_NHH@Z 0000000140007bfc f   Background.obj
 0001:00006d2c       ?Destroy@CBackground@@AEAAXXZ 0000000140007d2c f   Background.obj
 0001:00006d80       ?FillBackground@CBackground@@QEAA_NPEBUtagBITMAPFILEHEADER@@JJJJW4BackgroundOp@@_N@Z 0000000140007d80 f   Background.obj
 0001:00007390       ?FinalRelease@CBackgroundInfo@@UEAAXXZ 0000000140008390 f   Background.obj
 0001:00007390       ?FinalRelease@CVConGroup@@MEAAXXZ 0000000140008390 f   VConGroup.obj
 0001:00007390       ?FinalRelease@CRConData@@MEAAXXZ 0000000140008390 f   RConData.obj
 0001:00007390       ?FinalRelease@CTabID@@MEAAXXZ 0000000140008390 f   TabID.obj
 0001:00007390       ?FinalRelease@CFont@@MEAAXXZ 0000000140008390 f   Font.obj
 0001:000073ac       ?GetBgImgData@CBackgroundInfo@@QEAAPEBUtagBITMAPFILEHEADER@@XZ 00000001400083ac f   Background.obj
 0001:000073bc       ?HasPluginBackgroundImage@CBackground@@QEAA_NPEAJ0@Z 00000001400083bc f   Background.obj
 0001:00007408       ?IsBackgroundValid@CBackground@@SAIPEBUCESERVER_REQ_SETBACKGROUND@@PEA_N@Z 0000000140008408 f   Background.obj
 0001:00007480       ?LoadBackgroundFile@CBackgroundInfo@@QEAA_N_N@Z 0000000140008480 f   Background.obj
 0001:00007608       ?NeedBackgroundUpdate@CBackground@@QEAAXXZ 0000000140008608 f   Background.obj
 0001:00007614       ?PollBackgroundFile@CBackgroundInfo@@QEAA_NXZ 0000000140008614 f   Background.obj
 0001:00007710       ?PrepareBackground@CBackground@@QEAA_NPEAVCVirtualConsole@@AEAPEAUHDC__@@AEAU_COORD@@@Z 0000000140008710 f   Background.obj
 0001:00007b60       ?PutPluginBackgroundImage@CBackground@@AEAA_NJJJJ@Z 0000000140008b60 f   Background.obj
 0001:00007e48       ?SetPluginBackgroundImageData@CBackground@@QEAAHPEAUCESERVER_REQ_SETBACKGROUND@@AEA_N@Z 0000000140008e48 f   Background.obj
 0001:00008020       ??$_Emplace_reallocate@AEBUDragData@CDataObject@@@?$vector@UDragData@CDataObject@@V?$MArrayAllocator@UDragData@CDataObject@@@@@std@@QEAAPEAUDragData@CDataObject@@QEAU23@AEBU23@@Z 0000000140009020 f i BaseDragDrops.obj
 0001:00008020       ??$_Emplace_reallocate@AEBUItemInfo@CDynDialog@@@?$vector@UItemInfo@CDynDialog@@V?$MArrayAllocator@UItemInfo@CDynDialog@@@@@std@@QEAAPEAUItemInfo@CDynDialog@@QEAU23@AEBU23@@Z 0000000140009020 f i DynDialog.obj
 0001:000081cc       ??0CBaseDropTarget@@QEAA@XZ 00000001400091cc f   BaseDragDrops.obj
 0001:000081e4       ??0CDataObject@@QEAA@PEAUtagFORMATETC@@PEAUtagSTGMEDIUM@@H@Z 00000001400091e4 f   BaseDragDrops.obj
 0001:00008318       ??0CEnumFormatEtc@@QEAA@PEAUtagFORMATETC@@H@Z 0000000140009318 f   BaseDragDrops.obj
 0001:0000839c       ??1?$MArray@USshAgent@CConEmuMain@@@@QEAA@XZ 000000014000939c f i ConEmu.obj
 0001:0000839c       ??1_FindAllMonitors@@QEAA@XZ 000000014000939c f i common-user64:Monitors.obj
 0001:0000839c       ??1?$MArray@PEB_W@@QEAA@XZ 000000014000939c f i ConEmu.obj
 0001:0000839c       ??1?$MArray@UFontHeightInfo@@@@QEAA@XZ 000000014000939c f i FontMgr.obj
 0001:0000839c       ??1?$MArray@UProcessInfo@CDefTermBase@@@@QEAA@XZ 000000014000939c f i DefaultTerm.obj
 0001:0000839c       ??1?$MArray@PEA_W@@QEAA@XZ 000000014000939c f i ConEmuCtrl.obj
 0001:0000839c       ??1?$MArray@H@@QEAA@XZ     000000014000939c f i CmdHistory.obj
 0001:0000839c       ??1?$MArray@UTabIconCache@CIconList@@@@QEAA@XZ 000000014000939c f i IconList.obj
 0001:0000839c       ??1?$MArray@UDragData@CDataObject@@@@QEAA@XZ 000000014000939c f i BaseDragDrops.obj
 0001:0000839c       ??1?$MArray@UConProcess@@@@QEAA@XZ 000000014000939c f i RealConsole.obj
 0001:0000839c       ??1?$MArray@ULngRcItem@CLngRc@@@@QEAA@XZ 000000014000939c f i LngRc.obj
 0001:0000839c       ??1?$MArray@UThreadHandle@CDefTermBase@@@@QEAA@XZ 000000014000939c f i DefaultTerm.obj
 0001:0000839c       ??1?$MArray@URunQueueItem@CRunQueue@@@@QEAA@XZ 000000014000939c f i RunQueue.obj
 0001:0000839c       ??1?$MArray@URegFont@@@@QEAA@XZ 000000014000939c f i FontMgr.obj
 0001:0000839c       ??1?$MArray@U_ThInfo@CDragDrop@@@@QEAA@XZ 000000014000939c f i DragDrop.obj
 0001:0000839c       ??1?$MArray@PEAUHWND__@@@@QEAA@XZ 000000014000939c f i ConEmu.obj
 0001:0000839c       ??1?$MArray@ULngDefinition@CLngRc@@@@QEAA@XZ 000000014000939c f i LngRc.obj
 0001:0000839c       ??1?$MArray@UtagPROCESSENTRY32W@@@@QEAA@XZ 000000014000939c f i RealConsole.obj
 0001:0000839c       ??1?$MArray@UMonitorInfoCache@CConEmuSize@@@@QEAA@XZ 000000014000939c f i ConEmuSize.obj
 0001:0000839c       ??1?$MArray@UVarDef@CVarDefs@FastConfig@@@@QEAA@XZ 000000014000939c f i OptionsFast.obj
 0001:0000839c       ??1?$MArray@UCmdTaskPopupItem@CConEmuMenu@@@@QEAA@XZ 000000014000939c f i Menu.obj
 0001:0000839c       ??1?$MArray@D@@QEAA@XZ     000000014000939c f i SettingsStorage.obj
 0001:0000839c       ??1?$MArray@PEAUSwitch@@@@QEAA@XZ 000000014000939c f i SetPgIntegr.obj
 0001:0000839c       ??1?$MArray@UGuiMacroArg@@@@QEAA@XZ 000000014000939c f i MacroImpl.obj
 0001:0000839c       ??1?$MArray@PEAVCFont@@@@QEAA@XZ 000000014000939c f i FontMgr.obj
 0001:0000839c       ??1?$MArray@PEAVCTabID@@@@QEAA@XZ 000000014000939c f i TabBar.obj
 0001:0000839c       ??1?$MArray@PEAVCVConGroup@@@@QEAA@XZ 000000014000939c f i VConGroup.obj
 0001:0000839c       ??1?$MArray@PEAVCVConGuard@@@@QEAA@XZ 000000014000939c f i Macro.obj
 0001:000083c8       ??1CBaseDropTarget@@UEAA@XZ 00000001400093c8 f   BaseDragDrops.obj
 0001:000083d4       ??1CDataObject@@UEAA@XZ    00000001400093d4 f   BaseDragDrops.obj
 0001:000084c0       ??1CEnumFormatEtc@@UEAA@XZ 00000001400094c0 f   BaseDragDrops.obj
 0001:0000852c       ??_ECBaseDropTarget@@UEAAPEAXI@Z 000000014000952c f i BaseDragDrops.obj
 0001:0000852c       ??_GCBaseDropTarget@@UEAAPEAXI@Z 000000014000952c f i BaseDragDrops.obj
 0001:00008558       ??_ECDataObject@@UEAAPEAXI@Z 0000000140009558 f i BaseDragDrops.obj
 0001:00008558       ??_GCDataObject@@UEAAPEAXI@Z 0000000140009558 f i BaseDragDrops.obj
 0001:0000858c       ??_GCDropSource@@UEAAPEAXI@Z 000000014000958c f i BaseDragDrops.obj
 0001:0000858c       ??_ECDropSource@@UEAAPEAXI@Z 000000014000958c f i BaseDragDrops.obj
 0001:000085b8       ??_GCEnumFormatEtc@@UEAAPEAXI@Z 00000001400095b8 f i BaseDragDrops.obj
 0001:000085b8       ??_ECEnumFormatEtc@@UEAAPEAXI@Z 00000001400095b8 f i BaseDragDrops.obj
 0001:000085ec       ?AddRef@CBaseDropTarget@@UEAAKXZ 00000001400095ec f   BaseDragDrops.obj
 0001:000085ec       ?AddRef@CEnumFormatEtc@@UEAAKXZ 00000001400095ec f   BaseDragDrops.obj
 0001:000085ec       ?AddRef@CDataObject@@UEAAKXZ 00000001400095ec f   BaseDragDrops.obj
 0001:000085ec       ?Reference@ResourceManager@details@Concurrency@@UEAAIXZ 00000001400095ec f   libconcrt:ResourceManager.obj
 0001:000085fc       ?AddRef@CDropSource@@UEAAKXZ 00000001400095fc f   BaseDragDrops.obj
 0001:0000860c       ?Clone@CEnumFormatEtc@@UEAAJPEAPEAUIEnumFORMATETC@@@Z 000000014000960c f   BaseDragDrops.obj
 0001:00008644       ?CreateDataObject@@YAJPEAUtagFORMATETC@@PEAUtagSTGMEDIUM@@IPEAPEAVCDataObject@@@Z 0000000140009644 f   BaseDragDrops.obj
 0001:000086bc       ?CreateDropSource@@YAJPEAPEAUIDropSource@@PEAVCDragDropData@@@Z 00000001400096bc f   BaseDragDrops.obj
 0001:0000872c       ?CreateEnumFormatEtc@@YAJIPEAUtagFORMATETC@@PEAPEAUIEnumFORMATETC@@@Z 000000014000972c f   BaseDragDrops.obj
 0001:000087a8       ?DAdvise@CDataObject@@UEAAJPEAUtagFORMATETC@@KPEAUIAdviseSink@@PEAK@Z 00000001400097a8 f   BaseDragDrops.obj
 0001:000087a8       ?EnumDAdvise@CDataObject@@UEAAJPEAPEAUIEnumSTATDATA@@@Z 00000001400097a8 f   BaseDragDrops.obj
 0001:000087a8       ?DUnadvise@CDataObject@@UEAAJK@Z 00000001400097a8 f   BaseDragDrops.obj
 0001:00008800       ?_Get_deleter@_Ref_count_base@std@@UEBAPEAXAEBVtype_info@@@Z 0000000140009800 f   ConEmu.obj
 0001:00008800       ?DragLeave@CBaseDropTarget@@UEAAJXZ 0000000140009800 f   BaseDragDrops.obj
 0001:00008800       ?GetDefaultDestination@VirtualProcessor@details@Concurrency@@UEAAPEAUIExecutionContext@3@XZ 0000000140009800 f   libconcrt:VirtualProcessor.obj
 0001:00008800       ?OnComboBox@CSetPgBase@@UEAA_JPEAUHWND__@@GG@Z 0000000140009800 f   SetPgBase.obj
 0001:00008800       ?GetPageType@CSetPgGeneral@@UEAA?AW4TabHwndIndex@@XZ 0000000140009800 f   SetPgGeneral.obj
 0001:00008800       ?PreRunnableSearch@VirtualProcessor@details@Concurrency@@UEAAPEAVInternalContextBase@23@XZ 0000000140009800 f   libconcrt:VirtualProcessor.obj
 0001:00008800       ?ExitHyperCriticalRegion@ContextBase@details@Concurrency@@QEAAHXZ 0000000140009800 f   libconcrt:ContextBase.obj
 0001:00008800       _get_startup_commit_mode   0000000140009800 f   LIBCMT:commit_mode.obj
 0001:00008800       ?IsUnderline@BDFFont@@UEAAHXZ 0000000140009800 f   CustomFonts.obj
 0001:00008800       ?PageDlgProc@CSetPgBase@@UEAA_JPEAUHWND__@@I_K_J@Z 0000000140009800 f   SetPgANSI.obj
 0001:00008800       _get_startup_thread_locale_mode 0000000140009800 f   LIBCMT:thread_locale.obj
 0001:00008800       __scrt_exe_initialize_mta  0000000140009800 f   LIBCMT:utility_desktop.obj
 0001:00008800       ?OnEditChanged@CSetPgBase@@UEAA_JPEAUHWND__@@G@Z 0000000140009800 f   SetPgBase.obj
 0001:00008800       ?IsItalic@BDFFont@@UEAAHXZ 0000000140009800 f   CustomFonts.obj
 0001:00008800       ?GetContextKind@ExternalContextBase@details@Concurrency@@EEBA?AW4ContextKind@ContextBase@23@XZ 0000000140009800 f   libconcrt:ExternalContextBase.obj
 0001:00008800       ?ExitCriticalRegion@ContextBase@details@Concurrency@@QEAAHXZ 0000000140009800 f   libconcrt:ContextBase.obj
 0001:00008800       ?DragOver@CBaseDropTarget@@UEAAJKU_POINTL@@PEAK@Z 0000000140009800 f   BaseDragDrops.obj
 0001:00008800       __scrt_initialize_winrt    0000000140009800 f   LIBCMT:utility_desktop.obj
 0001:00008800       ?Drop@CBaseDropTarget@@UEAAJPEAUIDataObject@@KU_POINTL@@PEAK@Z 0000000140009800 f   BaseDragDrops.obj
 0001:00008800       ?OnComboBox@CSetPgComspec@@UEAA_JPEAUHWND__@@GG@Z 0000000140009800 f   SetPgComspec.obj
 0001:00008800       _get_startup_new_mode      0000000140009800 f   LIBCMT:new_mode.obj
 0001:00008800       _matherr                   0000000140009800 f   LIBCMT:matherr.obj
 0001:00008800       ?DragEnter@CBaseDropTarget@@UEAAJPEAUIDataObject@@KU_POINTL@@PEAK@Z 0000000140009800 f   BaseDragDrops.obj
 0001:00008800       ?EnterCriticalRegion@ContextBase@details@Concurrency@@QEAAHXZ 0000000140009800 f   libconcrt:ContextBase.obj
 0001:00008800       __scrt_stub_for_initialize_mta 0000000140009800 f   LIBCMT:utility_desktop.obj
 0001:00008800       ?EnterHyperCriticalRegion@ContextBase@details@Concurrency@@QEAAHXZ 0000000140009800 f   libconcrt:ContextBase.obj
 0001:00008804       ?DupMem@@YAPEAXPEAX@Z      0000000140009804 f   BaseDragDrops.obj
 0001:00008878       ?EnumFormatEtc@CDataObject@@UEAAJKPEAPEAUIEnumFORMATETC@@@Z 0000000140009878 f   BaseDragDrops.obj
 0001:00008948       ?GetCanonicalFormatEtc@CDataObject@@UEAAJPEAUtagFORMATETC@@0@Z 0000000140009948 f   BaseDragDrops.obj
 0001:00008954       ?GetData@CDataObject@@UEAAJPEAUtagFORMATETC@@PEAUtagSTGMEDIUM@@@Z 0000000140009954 f   BaseDragDrops.obj
 0001:00008a28       ?GetDataHere@CDataObject@@UEAAJPEAUtagFORMATETC@@PEAUtagSTGMEDIUM@@@Z 0000000140009a28 f   BaseDragDrops.obj
 0001:00008a30       ?GiveFeedback@CDropSource@@UEAAJK@Z 0000000140009a30 f   BaseDragDrops.obj
 0001:00008af0       ?LookupFormatEtc@CDataObject@@AEAAHPEAUtagFORMATETC@@@Z 0000000140009af0 f   BaseDragDrops.obj
 0001:00008b60       ?Next@CEnumFormatEtc@@UEAAJKPEAUtagFORMATETC@@PEAK@Z 0000000140009b60 f   BaseDragDrops.obj
 0001:00008bf4       ?QueryContinueDrag@CDropSource@@UEAAJHK@Z 0000000140009bf4 f   BaseDragDrops.obj
 0001:00008c6c       ?QueryGetData@CDataObject@@UEAAJPEAUtagFORMATETC@@@Z 0000000140009c6c f   BaseDragDrops.obj
 0001:00008c8c       ?QueryInterface@CBaseDropTarget@@UEAAJAEBU_GUID@@PEAPEAX@Z 0000000140009c8c f   BaseDragDrops.obj
 0001:00008cf0       ?QueryInterface@CDataObject@@UEAAJAEBU_GUID@@PEAPEAX@Z 0000000140009cf0 f   BaseDragDrops.obj
 0001:00008d54       ?QueryInterface@CDropSource@@UEAAJAEBU_GUID@@PEAPEAX@Z 0000000140009d54 f   BaseDragDrops.obj
 0001:00008db8       ?QueryInterface@CEnumFormatEtc@@UEAAJAEBU_GUID@@PEAPEAX@Z 0000000140009db8 f   BaseDragDrops.obj
 0001:00008e1c       ?Release@CBaseDropTarget@@UEAAKXZ 0000000140009e1c f   BaseDragDrops.obj
 0001:00008e1c       ?Release@CEnumFormatEtc@@UEAAKXZ 0000000140009e1c f   BaseDragDrops.obj
 0001:00008e44       ?Release@CDataObject@@UEAAKXZ 0000000140009e44 f   BaseDragDrops.obj
 0001:00008e6c       ?Release@CDropSource@@UEAAKXZ 0000000140009e6c f   BaseDragDrops.obj
 0001:00008e94       ?Reset@CEnumFormatEtc@@UEAAJXZ 0000000140009e94 f   BaseDragDrops.obj
 0001:00008e9c       ?SetData@CDataObject@@UEAAJPEAUtagFORMATETC@@PEAUtagSTGMEDIUM@@H@Z 0000000140009e9c f   BaseDragDrops.obj
 0001:00008fb8       ?SetDataInt@CDataObject@@QEAAJPEB_WPEBXK@Z 0000000140009fb8 f   BaseDragDrops.obj
 0001:00009060       ?Skip@CEnumFormatEtc@@UEAAJK@Z 000000014000a060 f   BaseDragDrops.obj
 0001:00009070       ?_Getal@?$vector@PEAVCTabID@@V?$MArrayAllocator@PEAVCTabID@@@@@std@@AEAAAEAV?$MArrayAllocator@PEAVCTabID@@@@XZ 000000014000a070 f i TabBar.obj
 0001:00009070       ?_Getal@?$vector@HV?$MArrayAllocator@H@@@std@@AEAAAEAV?$MArrayAllocator@H@@XZ 000000014000a070 f i CmdHistory.obj
 0001:00009070       ?_Getal@?$vector@PEAUCommand@CProcessEnvCmd@@V?$MArrayAllocator@PEAUCommand@CProcessEnvCmd@@@@@std@@AEAAAEAV?$MArrayAllocator@PEAUCommand@CProcessEnvCmd@@@@XZ 000000014000a070 f i common-user64:ProcessSetEnv.obj
 0001:00009070       ?_Getal@?$vector@ULngRcItem@CLngRc@@V?$MArrayAllocator@ULngRcItem@CLngRc@@@@@std@@AEAAAEAV?$MArrayAllocator@ULngRcItem@CLngRc@@@@XZ 000000014000a070 f i LngRc.obj
 0001:00009070       ?GetInterface@CDefaultTerminal@@MEAAPEAVCDefTermBase@@XZ 000000014000a070 f i DefaultTerm.obj
 0001:00009070       ?_Getal@?$vector@UDragData@CDataObject@@V?$MArrayAllocator@UDragData@CDataObject@@@@@std@@AEAAAEAV?$MArrayAllocator@UDragData@CDataObject@@@@XZ 000000014000a070 f i BaseDragDrops.obj
 0001:00009070       ?_Getal@?$vector@PEAXV?$MArrayAllocator@PEAX@@@std@@AEAAAEAV?$MArrayAllocator@PEAX@@XZ 000000014000a070 f i TaskBar.obj
 0001:00009070       ?_Getal@?$vector@PEA_WV?$MArrayAllocator@PEA_W@@@std@@AEAAAEAV?$MArrayAllocator@PEA_W@@XZ 000000014000a070 f i CmdHistory.obj
 0001:00009070       ?_Getal@?$vector@DV?$MArrayAllocator@D@@@std@@AEAAAEAV?$MArrayAllocator@D@@XZ 000000014000a070 f i SettingsStorage.obj
 0001:00009074       ?_Reallocate_exactly@?$vector@UDragData@CDataObject@@V?$MArrayAllocator@UDragData@CDataObject@@@@@std@@AEAAX_K@Z 000000014000a074 f i BaseDragDrops.obj
 0001:00009138       ?push_back@?$MArray@UDragData@CDataObject@@@@QEAA_JAEBUDragData@CDataObject@@@Z 000000014000a138 f i BaseDragDrops.obj
 0001:00009138       ?push_back@?$MArray@UItemInfo@CDynDialog@@@@QEAA_JAEBUItemInfo@CDynDialog@@@Z 000000014000a138 f i DynDialog.obj
 0001:000091bc       ??$_Emplace_reallocate@AEBH@?$vector@HV?$MArrayAllocator@H@@@std@@QEAAPEAHQEAHAEBH@Z 000000014000a1bc f i CmdHistory.obj
 0001:000092e8       ??$fill@PEAPEAUCommand@CProcessEnvCmd@@PEAU12@@std@@YAXQEAPEAUCommand@CProcessEnvCmd@@0AEBQEAU12@@Z 000000014000a2e8 f i common-user64:ProcessSetEnv.obj
 0001:000092e8       ??$fill@PEAPEAVCTabID@@PEAV1@@std@@YAXQEAPEAVCTabID@@0AEBQEAV1@@Z 000000014000a2e8 f i TabBar.obj
 0001:000092e8       ??$fill@PEAPEA_WPEA_W@std@@YAXQEAPEA_W0AEBQEA_W@Z 000000014000a2e8 f i CmdHistory.obj
 0001:000092e8       ??$fill@PEAV?$_List_unchecked_iterator@V?$_List_val@U?$_List_simple_types@U?$pair@$$CBHG@std@@@std@@@std@@@std@@V12@@std@@YAXQEAV?$_List_unchecked_iterator@V?$_List_val@U?$_List_simple_types@U?$pair@$$CBHG@std@@@std@@@std@@@0@0AEBV10@@Z 000000014000a2e8 f i Font.obj
 0001:000092e8       ??$fill@PEAV?$_List_unchecked_iterator@V?$_List_val@U?$_List_simple_types@U?$pair@$$CBV?$basic_string@_WU?$char_traits@_W@std@@V?$allocator@_W@2@@std@@UVariableData@SystemEnvironment@@@std@@@std@@@std@@@std@@V12@@std@@YAXQEAV?$_List_unchecked_iterator@V?$_List_val@U?$_List_simple_types@U?$pair@$$CBV?$basic_string@_WU?$char_traits@_W@std@@V?$allocator@_W@2@@std@@UVariableData@SystemEnvironment@@@std@@@std@@@std@@@0@0AEBV10@@Z 000000014000a2e8 f i ConEmu.obj
 0001:00009358       ??0CommandHistory@@QEAA@H@Z 000000014000a358 f   CmdHistory.obj
 0001:0000938c       ??1CommandHistory@@QEAA@XZ 000000014000a38c f   CmdHistory.obj
 0001:000093bc       ?Add@CommandHistory@@QEAAXPEB_W_N@Z 000000014000a3bc f   CmdHistory.obj
 0001:000095b8       ?Compare@CommandHistory@@QEAAHHPEB_W@Z 000000014000a5b8 f   CmdHistory.obj
 0001:00009608       ?CreateMSZ@CommandHistory@@QEAAIAEAPEA_W@Z 000000014000a608 f   CmdHistory.obj
 0001:0000976c       ?FreeItems@CommandHistory@@QEAAXXZ 000000014000a76c f   CmdHistory.obj
 0001:000097e0       ?Get@CommandHistory@@QEAAPEB_WH@Z 000000014000a7e0 f   CmdHistory.obj
 0001:00009818       ?ParseMSZ@CommandHistory@@QEAAXPEB_W@Z 000000014000a818 f   CmdHistory.obj
 0001:000098a0       ?StringCchCopyW@@YAJPEA_W_KPEB_W@Z 000000014000a8a0 f i CmdHistory.obj
 0001:0000990c       ?_Reallocate_exactly@?$vector@HV?$MArrayAllocator@H@@@std@@AEAAX_K@Z 000000014000a90c f i CmdHistory.obj
 0001:000099ac       ?insert@?$vector@PEA_WV?$MArrayAllocator@PEA_W@@@std@@QEAA?AV?$_Vector_iterator@V?$_Vector_val@U?$_Simple_types@PEA_W@std@@@std@@@2@V?$_Vector_const_iterator@V?$_Vector_val@U?$_Simple_types@PEA_W@std@@@std@@@2@_KAEBQEA_W@Z 000000014000a9ac f i CmdHistory.obj
 0001:000099ac       ?insert@?$vector@PEAVCTabID@@V?$MArrayAllocator@PEAVCTabID@@@@@std@@QEAA?AV?$_Vector_iterator@V?$_Vector_val@U?$_Simple_types@PEAVCTabID@@@std@@@std@@@2@V?$_Vector_const_iterator@V?$_Vector_val@U?$_Simple_types@PEAVCTabID@@@std@@@std@@@2@_KAEBQEAVCTabID@@@Z 000000014000a9ac f i TabBar.obj
 0001:000099ac       ?insert@?$vector@PEAUCommand@CProcessEnvCmd@@V?$MArrayAllocator@PEAUCommand@CProcessEnvCmd@@@@@std@@QEAA?AV?$_Vector_iterator@V?$_Vector_val@U?$_Simple_types@PEAUCommand@CProcessEnvCmd@@@std@@@std@@@2@V?$_Vector_const_iterator@V?$_Vector_val@U?$_Simple_types@PEAUCommand@CProcessEnvCmd@@@std@@@std@@@2@_KAEBQEAUCommand@CProcessEnvCmd@@@Z 000000014000a9ac f i common-user64:ProcessSetEnv.obj
 0001:00009c5c       ??0ColorFix@@QEAA@K@Z      000000014000ac5c f   ColorFix.obj
 0001:00009c78       ??0ColorFix@@QEAA@XZ       000000014000ac78 f   ColorFix.obj
 0001:00009c8c       ??0dE00@@QEAA@UColorFix@@0NNN@Z 000000014000ac8c f i ColorFix.obj
 0001:00009f68       ?DeltaE@ColorFix@@QEAANU1@@Z 000000014000af68 f   ColorFix.obj
 0001:00009fb4       ?DeltaE@ColorSpace@@YANUColorFix@@0@Z 000000014000afb4 f   ColorFix.obj
 0001:0000a02c       ?PerceivableColor@ColorFix@@QEAA_NKAEAU1@PEAN1@Z 000000014000b02c f   ColorFix.obj
 0001:0000a1f4       ?ToLab@ColorFix@@QEAAXXZ   000000014000b1f4 f   ColorFix.obj
 0001:0000a23c       ?getDeltaE@dE00@@QEAANXZ   000000014000b23c f i ColorFix.obj
 0001:0000a49c       ?getDeltahPrime@dE00@@QEAANXZ 000000014000b49c f i ColorFix.obj
 0001:0000a508       ?getRsubT@dE00@@QEAANXZ    000000014000b508 f i ColorFix.obj
 0001:0000a5c8       ?getT@dE00@@QEAANXZ        000000014000b5c8 f i ColorFix.obj
 0001:0000a6a0       ?lab2rgb@ColorSpace@@YAXNNNAEAK@Z 000000014000b6a0 f   ColorFix.obj
 0001:0000a728       ?lab2rgb@ColorSpace@@YAXNNNAEAN00@Z 000000014000b728 f   ColorFix.obj
 0001:0000a9d0       ?min_max@ColorSpace@@YAEN@Z 000000014000b9d0 f   ColorFix.obj
 0001:0000a9f4       ?rgb2lab@ColorSpace@@YAXNNNAEAN00@Z 000000014000b9f4 f   ColorFix.obj
 0001:0000ac9c       ??$?8_WU?$char_traits@_W@std@@V?$allocator@_W@1@@std@@YA_NAEBV?$basic_string@_WU?$char_traits@_W@std@@V?$allocator@_W@2@@0@0@Z 000000014000bc9c f i ConEmu.obj
 0001:0000ace8       ??$?H_WU?$char_traits@_W@std@@V?$allocator@_W@1@@std@@YA?AV?$basic_string@_WU?$char_traits@_W@std@@V?$allocator@_W@2@@0@$$QEAV10@AEBV10@@Z 000000014000bce8 f i ConEmu.obj
 0001:0000ad40       ??$?H_WU?$char_traits@_W@std@@V?$allocator@_W@1@@std@@YA?AV?$basic_string@_WU?$char_traits@_W@std@@V?$allocator@_W@2@@0@$$QEAV10@QEB_W@Z 000000014000bd40 f i ConEmu.obj
 0001:0000ada4       ??$?H_WU?$char_traits@_W@std@@V?$allocator@_W@1@@std@@YA?AV?$basic_string@_WU?$char_traits@_W@std@@V?$allocator@_W@2@@0@QEB_WAEBV10@@Z 000000014000bda4 f i ConEmu.obj
 0001:0000ae10       ??$SafeDelete@UCEFindDlg@@@@YAXAEAPEAUCEFindDlg@@@Z 000000014000be10 f i ConEmu.obj
 0001:0000ae40       ??$SafeDelete@VCPushInfo@@@@YAXAEAPEAVCPushInfo@@@Z 000000014000be40 f i ConEmu.obj
 0001:0000ae40       ??$SafeDelete@VCRConFiles@@@@YAXAEAPEAVCRConFiles@@@Z 000000014000be40 f i RealConsole.obj
 0001:0000ae40       ??$SafeDelete@UHandleMonitor@@@@YAXAEAPEAUHandleMonitor@@@Z 000000014000be40 f i ConEmu.obj
 0001:0000ae88       ??$SafeDelete@UMSectionLockSimple@@@@YAXAEAPEAUMSectionLockSimple@@@Z 000000014000be88 f i ConEmu.obj
 0001:0000aed0       ??$SafeDelete@UMSectionSimple@@@@YAXAEAPEAUMSectionSimple@@@Z 000000014000bed0 f i ConEmu.obj
 0001:0000af18       ??$SafeDelete@VCAltNumpad@@@@YAXAEAPEAVCAltNumpad@@@Z 000000014000bf18 f i ConEmu.obj
 0001:0000af60       ??$SafeDelete@VCAttachDlg@@@@YAXAEAPEAVCAttachDlg@@@Z 000000014000bf60 f i ConEmu.obj
 0001:0000afa8       ??$SafeDelete@VCConEmuMenu@@@@YAXAEAPEAVCConEmuMenu@@@Z 000000014000bfa8 f i ConEmu.obj
 0001:0000aff0       ??$SafeDelete@VCDefaultTerminal@@@@YAXAEAPEAVCDefaultTerminal@@@Z 000000014000bff0 f i ConEmu.obj
 0001:0000b028       ??$SafeDelete@VCDragDrop@@@@YAXAEAPEAVCDragDrop@@@Z 000000014000c028 f i ConEmu.obj
 0001:0000b060       ??$SafeDelete@VCRecreateDlg@@@@YAXAEAPEAVCRecreateDlg@@@Z 000000014000c060 f i ConEmu.obj
 0001:0000b0a8       ??$SafeDelete@VCRunQueue@@@@YAXAEAPEAVCRunQueue@@@Z 000000014000c0a8 f i ConEmu.obj
 0001:0000b0f0       ??$_Allocate@$0BA@U_Default_allocate_traits@std@@$0A@@std@@YAPEAX_K@Z 000000014000c0f0 f i ConEmu.obj
 0001:0000b114       ??$_Allocate_manually_vector_aligned@U_Default_allocate_traits@std@@@std@@YAPEAX_K@Z 000000014000c114 f i ConEmu.obj
 0001:0000b154       ??$_Construct_in_place@USystemEnvironment@@$$V@std@@YAXAEAUSystemEnvironment@@@Z 000000014000c154 f i ConEmu.obj
 0001:0000b18c       ??$_Deallocate@$0BA@$0A@@std@@YAXPEAX_K@Z 000000014000c18c f i ConEmu.obj
 0001:0000b1c0       ??$_Emplace_reallocate@AEBUtxt@CFormatCopy@@@?$vector@Utxt@CFormatCopy@@V?$MArrayAllocator@Utxt@CFormatCopy@@@@@std@@QEAAPEAUtxt@CFormatCopy@@QEAU23@AEBU23@@Z 000000014000c1c0 f i HtmlCopy.obj
 0001:0000b1c0       ??$_Emplace_reallocate@AEBUTabIconCache@CIconList@@@?$vector@UTabIconCache@CIconList@@V?$MArrayAllocator@UTabIconCache@CIconList@@@@@std@@QEAAPEAUTabIconCache@CIconList@@QEAU23@AEBU23@@Z 000000014000c1c0 f i IconList.obj
 0001:0000b1c0       ??$_Emplace_reallocate@AEBUSshAgent@CConEmuMain@@@?$vector@USshAgent@CConEmuMain@@V?$MArrayAllocator@USshAgent@CConEmuMain@@@@@std@@QEAAPEAUSshAgent@CConEmuMain@@QEAU23@AEBU23@@Z 000000014000c1c0 f i ConEmu.obj
 0001:0000b1c0       ??$_Emplace_reallocate@AEBU_ThInfo@CDragDrop@@@?$vector@U_ThInfo@CDragDrop@@V?$MArrayAllocator@U_ThInfo@CDragDrop@@@@@std@@QEAAPEAU_ThInfo@CDragDrop@@QEAU23@AEBU23@@Z 000000014000c1c0 f i DragDrop.obj
 0001:0000b1c0       ??$_Emplace_reallocate@AEBUFoundFile@FastConfig@@@?$vector@UFoundFile@FastConfig@@V?$MArrayAllocator@UFoundFile@FastConfig@@@@@std@@QEAAPEAUFoundFile@FastConfig@@QEAU23@AEBU23@@Z 000000014000c1c0 f i OptionsFast.obj
 0001:0000b1c0       ??$_Emplace_reallocate@AEBUVarDef@CVarDefs@FastConfig@@@?$vector@UVarDef@CVarDefs@FastConfig@@V?$MArrayAllocator@UVarDef@CVarDefs@FastConfig@@@@@std@@QEAAPEAUVarDef@CVarDefs@FastConfig@@QEAU234@AEBU234@@Z 000000014000c1c0 f i OptionsFast.obj
 0001:0000b1c0       ??$_Emplace_reallocate@AEBUThreadHandle@CDefTermBase@@@?$vector@UThreadHandle@CDefTermBase@@V?$MArrayAllocator@UThreadHandle@CDefTermBase@@@@@std@@QEAAPEAUThreadHandle@CDefTermBase@@QEAU23@AEBU23@@Z 000000014000c1c0 f i ConEmu.obj
 0001:0000b2f4       ??$_Find_last@V?$basic_string@_WU?$char_traits@_W@std@@V?$allocator@_W@2@@std@@@?$_Hash@V?$_Umap_traits@V?$basic_string@_WU?$char_traits@_W@std@@V?$allocator@_W@2@@std@@UVariableData@SystemEnvironment@@V?$_Uhash_compare@V?$basic_string@_WU?$char_traits@_W@std@@V?$allocator@_W@2@@std@@U?$hash@V?$basic_string@_WU?$char_traits@_W@std@@V?$allocator@_W@2@@std@@@2@U?$equal_to@V?$basic_string@_WU?$char_traits@_W@std@@V?$allocator@_W@2@@std@@@2@@2@V?$allocator@U?$pair@$$CBV?$basic_string@_WU?$char_traits@_W@std@@V?$allocator@_W@2@@std@@UVariableData@SystemEnvironment@@@std@@@2@$0A@@std@@@std@@IEBA?AU?$_Hash_find_last_result@PEAU?$_List_node@U?$pair@$$CBV?$basic_string@_WU?$char_traits@_W@std@@V?$allocator@_W@2@@std@@UVariableData@SystemEnvironment@@@std@@PEAX@std@@@1@AEBV?$basic_string@_WU?$char_traits@_W@std@@V?$allocator@_W@2@@1@_K@Z 000000014000c2f4 f i ConEmu.obj
 0001:0000b37c       ??$_Free_non_head@V?$allocator@U?$_List_node@U?$pair@$$CBV?$basic_string@_WU?$char_traits@_W@std@@V?$allocator@_W@2@@std@@UVariableData@SystemEnvironment@@@std@@PEAX@std@@@std@@@?$_List_node@U?$pair@$$CBV?$basic_string@_WU?$char_traits@_W@std@@V?$allocator@_W@2@@std@@UVariableData@SystemEnvironment@@@std@@PEAX@std@@SAXAEAV?$allocator@U?$_List_node@U?$pair@$$CBV?$basic_string@_WU?$char_traits@_W@std@@V?$allocator@_W@2@@std@@UVariableData@SystemEnvironment@@@std@@PEAX@std@@@1@PEAU01@@Z 000000014000c37c f i ConEmu.obj
 0001:0000b3f8       ??$_Hash_array_representation@_W@std@@YA_KQEB_W_K@Z 000000014000c3f8 f i ConEmu.obj
 0001:0000b430       ??$_Reallocate_for@V<lambda_3fa8b2c8193a0f3144fc4b1b8f243931>@@PEB_W@?$basic_string@_WU?$char_traits@_W@std@@V?$allocator@_W@2@@std@@AEAAAEAV01@_KV<lambda_3fa8b2c8193a0f3144fc4b1b8f243931>@@PEB_W@Z 000000014000c430 f i ConEmu.obj
 0001:0000b52c       ??$_Reallocate_grow_by@V<lambda_1dfe18491bcca09701d8ccb01d0b0af4>@@PEB_W_K@?$basic_string@_WU?$char_traits@_W@std@@V?$allocator@_W@2@@std@@AEAAAEAV01@_KV<lambda_1dfe18491bcca09701d8ccb01d0b0af4>@@PEB_W_K@Z 000000014000c52c f i ConEmu.obj
 0001:0000b66c       ??$make_shared@USystemEnvironment@@$$V@std@@YA?AV?$shared_ptr@USystemEnvironment@@@0@XZ 000000014000c66c f i ConEmu.obj
 0001:0000b6d8       ??$sprintf_c@$0CAA@@@YAHAEAY0CAA@DPEBDZZ 000000014000c6d8 f i ConEmu.obj
 0001:0000b704       ??$sprintf_c@$0GE@@@YAHAEAY0GE@DPEBDZZ 000000014000c704 f i ConEmu.obj
 0001:0000b730       ??$sprintf_c@$0IA@@@YAHAEAY0IA@DPEBDZZ 000000014000c730 f i ConEmu.obj
 0001:0000b75c       ??$swprintf_c@$09@@YAHAEAY09_WPEB_WZZ 000000014000c75c f i ConEmu.obj
 0001:0000b788       ??$swprintf_c@$0BA@@@YAHAEAY0BA@_WPEB_WZZ 000000014000c788 f i ConEmu.obj
 0001:0000b7b4       ??$swprintf_c@$0BFE@@@YAHAEAY0BFE@_WPEB_WZZ 000000014000c7b4 f i ConEmu.obj
 0001:0000b7e0       ??$swprintf_c@$0CAA@@@YAHAEAY0CAA@_WPEB_WZZ 000000014000c7e0 f i ConEmu.obj
 0001:0000b80c       ??$swprintf_c@$0EA@@@YAHAEAY0EA@_WPEB_WZZ 000000014000c80c f i ConEmu.obj
 0001:0000b838       ??$swprintf_c@$0GE@@@YAHAEAY0GE@_WPEB_WZZ 000000014000c838 f i ConEmu.obj
 0001:0000b864       ??$swprintf_c@$0IM@@@YAHAEAY0IM@_WPEB_WZZ 000000014000c864 f i ConEmu.obj
 0001:0000b890       ??$swprintf_c@$0KA@@@YAHAEAY0KA@_WPEB_WZZ 000000014000c890 f i ConEmu.obj
 0001:0000b8bc       ??$swprintf_c@$0MI@@@YAHAEAY0MI@_WPEB_WZZ 000000014000c8bc f i ConEmu.obj
 0001:0000b8e8       ??$swprintf_c@$0PP@@@YAHAEAY0PP@_WPEB_WZZ 000000014000c8e8 f i ConEmu.obj
 0001:0000b914       ??$ultow_s@$0BE@@@YAPEB_WIAEAY0BE@_WH@Z 000000014000c914 f i ConEmu.obj
 0001:0000b940       ??$wcscpy_c@$0BAF@@@YAHAEAY0BAF@_WPEB_W@Z 000000014000c940 f i ConEmu.obj
 0001:0000b98c       ??$wcscpy_c@$0BBA@@@YAHAEAY0BBA@_WPEB_W@Z 000000014000c98c f i ConEmu.obj
 0001:0000b9d8       ??$wcscpy_c@$0BCE@@@YAHAEAY0BCE@_WPEB_W@Z 000000014000c9d8 f i ConEmu.obj
 0001:0000ba24       ??$wcscpy_c@$0CAI@@@YAHAEAY0CAI@_WPEB_W@Z 000000014000ca24 f i ConEmu.obj
 0001:0000ba70       ??$wcscpy_c@$0CI@@@YAHAEAY0CI@_WPEB_W@Z 000000014000ca70 f i ConEmu.obj
 0001:0000babc       ??0?$_Hash@V?$_Umap_traits@V?$basic_string@_WU?$char_traits@_W@std@@V?$allocator@_W@2@@std@@UVariableData@SystemEnvironment@@V?$_Uhash_compare@V?$basic_string@_WU?$char_traits@_W@std@@V?$allocator@_W@2@@std@@U?$hash@V?$basic_string@_WU?$char_traits@_W@std@@V?$allocator@_W@2@@std@@@2@U?$equal_to@V?$basic_string@_WU?$char_traits@_W@std@@V?$allocator@_W@2@@std@@@2@@2@V?$allocator@U?$pair@$$CBV?$basic_string@_WU?$char_traits@_W@std@@V?$allocator@_W@2@@std@@UVariableData@SystemEnvironment@@@std@@@2@$0A@@std@@@std@@IEAA@AEBV?$_Uhash_compare@V?$basic_string@_WU?$char_traits@_W@std@@V?$allocator@_W@2@@std@@U?$hash@V?$basic_string@_WU?$char_traits@_W@std@@V?$allocator@_W@2@@std@@@2@U?$equal_to@V?$basic_string@_WU?$char_traits@_W@std@@V?$allocator@_W@2@@std@@@2@@1@AEBV?$allocator@U?$pair@$$CBV?$basic_string@_WU?$char_traits@_W@std@@V?$allocator@_W@2@@std@@UVariableData@SystemEnvironment@@@std@@@1@@Z 000000014000cabc f i ConEmu.obj
 0001:0000bb30       ??0?$basic_string@_WU?$char_traits@_W@std@@V?$allocator@_W@2@@std@@QEAA@U_String_constructor_concat_tag@1@AEBV01@QEB_W_K23@Z 000000014000cb30 f i ConEmu.obj
 0001:0000bc28       ??0CConEmuMain@@QEAA@XZ    000000014000cc28 f   ConEmu.obj
 0001:0000cf64       ??0MWow64Disable@@QEAA@XZ  000000014000df64 f i ConEmu.obj
 0001:0000cfd8       ??0bad_array_new_length@std@@QEAA@AEBV01@@Z 000000014000dfd8 f i ConEmu.obj
 0001:0000d014       ??0bad_array_new_length@std@@QEAA@XZ 000000014000e014 f i ConEmu.obj
 0001:0000d034       ??1?$MFileMapping@UCESERVER_CONSOLE_MAPPING_HDR@@@@QEAA@XZ 000000014000e034 f i RealConsole.obj
 0001:0000d034       ??1?$MFileMapping@UPanelViewSetMapping@@@@QEAA@XZ 000000014000e034 f i OptionsClass.obj
 0001:0000d034       ??1?$MFileMapping@UCESERVER_CONSAVE_MAP@@@@QEAA@XZ 000000014000e034 f i RealConsole.obj
 0001:0000d034       ??1?$MFileMapping@Utag_DetectedDialog@@@@QEAA@XZ 000000014000e034 f i VirtualConsole.obj
 0001:0000d034       ??1?$MFileMapping@UConEmuGuiMapping@@@@QEAA@XZ 000000014000e034 f i ConEmu.obj
 0001:0000d034       ??1?$MFileMapping@UCESERVER_CONSAVE_MAPHDR@@@@QEAA@XZ 000000014000e034 f i RealConsole.obj
 0001:0000d034       ??1?$MFileMapping@$$CBUCEFAR_INFO_MAPPING@@@@QEAA@XZ 000000014000e034 f i RealConsole.obj
 0001:0000d034       ??1?$MFileMapping@UCESERVER_CONSOLE_APP_MAPPING@@@@QEAA@XZ 000000014000e034 f i RealConsole.obj
 0001:0000d088       ??1?$MMap@PEAVCVConGroup@@PEAVCVirtualConsole@@$0A@@@QEAA@XZ 000000014000e088 f i TabBar.obj
 0001:0000d088       ??1?$MMap@IPEBD$0A@@@QEAA@XZ 000000014000e088 f i ConEmu.obj
 0001:0000d088       ??1?$MMap@KH$0A@@@QEAA@XZ  000000014000e088 f i RealConsole.obj
 0001:0000d0cc       ??1?$_Hash_vec@V?$allocator@V?$_List_unchecked_iterator@V?$_List_val@U?$_List_simple_types@U?$pair@$$CBHG@std@@@std@@@std@@@std@@@std@@@std@@QEAA@XZ 000000014000e0cc f i Font.obj
 0001:0000d0cc       ??1?$_Hash_vec@V?$allocator@V?$_List_unchecked_iterator@V?$_List_val@U?$_List_simple_types@U?$pair@$$CBV?$basic_string@_WU?$char_traits@_W@std@@V?$allocator@_W@2@@std@@UVariableData@SystemEnvironment@@@std@@@std@@@std@@@std@@@std@@@std@@QEAA@XZ 000000014000e0cc f i ConEmu.obj
 0001:0000d0fc       ??1?$basic_string@_WU?$char_traits@_W@std@@V?$allocator@_W@2@@std@@QEAA@XZ 000000014000e0fc f i ConEmu.obj
 0001:0000d138       ??1?$list@U?$pair@$$CBV?$basic_string@_WU?$char_traits@_W@std@@V?$allocator@_W@2@@std@@UVariableData@SystemEnvironment@@@std@@V?$allocator@U?$pair@$$CBV?$basic_string@_WU?$char_traits@_W@std@@V?$allocator@_W@2@@std@@UVariableData@SystemEnvironment@@@std@@@2@@std@@QEAA@XZ 000000014000e138 f i ConEmu.obj
 0001:0000d15c       ??1?$shared_ptr@USystemEnvironment@@@std@@QEAA@XZ 000000014000e15c f i ConEmu.obj
 0001:0000d19c       ??1CConEmuMain@@UEAA@XZ    000000014000e19c f   ConEmu.obj
 0001:0000d598       ??1MWow64Disable@@QEAA@XZ  000000014000e598 f i ConEmu.obj
 0001:0000d5bc       ??1VariableData@SystemEnvironment@@QEAA@XZ 000000014000e5bc f i ConEmu.obj
 0001:0000d62c       ??1mutex@std@@QEAA@XZ      000000014000e62c f i ConEmu.obj
 0001:0000d634       ??4?$shared_ptr@USystemEnvironment@@@std@@QEAAAEAV01@AEBV01@@Z 000000014000e634 f i ConEmu.obj
 0001:0000d6a0       ??_ECConEmuMain@@WBCI@EAAPEAXI@Z 000000014000e6a0 f i ConEmu.obj
 0001:0000d6ac       ??_ECConEmuMain@@WBII@EAAPEAXI@Z 000000014000e6ac f i ConEmu.obj
 0001:0000d6b8       ??_ECConEmuMain@@WBNI@EAAPEAXI@Z 000000014000e6b8 f i ConEmu.obj
 0001:0000d6c4       ??_ECConEmuMain@@WCBI@EAAPEAXI@Z 000000014000e6c4 f i ConEmu.obj
 0001:0000d6d0       ??_ECConEmuMain@@WCGA@EAAPEAXI@Z 000000014000e6d0 f i ConEmu.obj
 0001:0000d6dc       ??_ECConEmuMain@@WENI@EAAPEAXI@Z 000000014000e6dc f i ConEmu.obj
 0001:0000d6e8       ??_G?$_Ref_count_obj2@USystemEnvironment@@@std@@UEAAPEAXI@Z 000000014000e6e8 f i ConEmu.obj
 0001:0000d6e8       ??_E?$_Ref_count_obj2@USystemEnvironment@@@std@@UEAAPEAXI@Z 000000014000e6e8 f i ConEmu.obj
 0001:0000d714       ??_GCConEmuMain@@UEAAPEAXI@Z 000000014000e714 f i ConEmu.obj
 0001:0000d714       ??_ECConEmuMain@@UEAAPEAXI@Z 000000014000e714 f i ConEmu.obj
 0001:0000d748       ??_GSystemEnvironment@@QEAAPEAXI@Z 000000014000e748 f i ConEmu.obj
 0001:0000d7c0       ?Activate@CConEmuMain@@QEAAHPEAVCVirtualConsole@@@Z 000000014000e7c0 f   ConEmu.obj
 0001:0000d834       ?ActiveConNum@CConEmuMain@@QEAAHXZ 000000014000e834 f   ConEmu.obj
 0001:0000d83c       ?AddPostGuiRConMacro@CConEmuMain@@QEAAXPEB_W@Z 000000014000e83c f   ConEmu.obj
 0001:0000d848       ?AppendExtraArgs@CConEmuMain@@QEAAXPEB_W0@Z 000000014000e848 f   ConEmu.obj
 0001:0000d904       ?AppendHKL@CConEmuMain@@IEAAXPEA_W_KPEAPEAUHKL__@@H@Z 000000014000e904 f   ConEmu.obj
 0001:0000d9a8       ?AppendRegisteredLayouts@CConEmuMain@@IEAAXPEA_W_K@Z 000000014000e9a8 f   ConEmu.obj
 0001:0000da58       ?AskChangeAlternative@CConEmuMain@@QEAAXXZ 000000014000ea58 f   ConEmu.obj
 0001:0000daec       ?AskChangeBufferHeight@CConEmuMain@@QEAAXXZ 000000014000eaec f   ConEmu.obj
 0001:0000dbd4       ?AttachToDialog@CConEmuMain@@QEAAXXZ 000000014000ebd4 f   ConEmu.obj
 0001:0000dc18       ?CallMainThread@CConEmuMain@@QEAA_J_NP6A_J_J@Z1@Z 000000014000ec18 f   ConEmu.obj
 0001:0000dd24       ?CanSetChildFocus@CConEmuMain@@QEAA_NXZ 000000014000ed24 f   ConEmu.obj
 0001:0000dd40       ?ChangeWorkDir@CConEmuMain@@QEAA_NPEB_W@Z 000000014000ed40 f   ConEmu.obj
 0001:0000dd80       ?CheckActiveLayoutName@CConEmuMain@@IEAAXXZ 000000014000ed80 f   ConEmu.obj
 0001:0000df74       ?CheckAllowAutoChildFocus@CConEmuMain@@QEAAXK@Z 000000014000ef74 f   ConEmu.obj
 0001:0000e038       ?CheckBaseDir@CConEmuMain@@AEAA_NXZ 000000014000f038 f   ConEmu.obj
 0001:0000e104       ?CheckDosBoxExists@CConEmuMain@@QEAA_NXZ 000000014000f104 f   ConEmu.obj
 0001:0000e1cc       ?CheckFocus@CConEmuMain@@QEAAXPEB_W@Z 000000014000f1cc f   ConEmu.obj
 0001:0000e47c       ?CheckForeground@CDefTermBase@@QEAA_NPEAUHWND__@@K_N1@Z 000000014000f47c f i ConEmu.obj
 0001:0000e950       ?CheckNeedRepaint@CConEmuMain@@QEAAXXZ 000000014000f950 f   ConEmu.obj
 0001:0000e9e0       ?CheckNeedUpdateTitle@CConEmuMain@@QEAAXPEB_W@Z 000000014000f9e0 f   ConEmu.obj
 0001:0000ea24       ?CheckPanelDrag@CConEmuMain@@QEAA?AW4DragPanelBorder@@U_COORD@@@Z 000000014000fa24 f   ConEmu.obj
 0001:0000ece4       ?CheckRequiredFiles@CConEmuMain@@QEAA_NXZ 000000014000fce4 f   ConEmu.obj
 0001:0000f174       ?CheckShellWindow@CDefTermBase@@IEAA_NXZ 0000000140010174 f i ConEmu.obj
 0001:0000f308       ?CheckUpdates@CConEmuMain@@QEAA_NI@Z 0000000140010308 f   ConEmu.obj
 0001:0000f364       ?ClearProcessed@CDefTermBase@@IEAAX_N@Z 0000000140010364 f i ConEmu.obj
 0001:0000f45c       ?CloseConfirmFlags@CConEmuMain@@QEAAEXZ 000000014001045c f   ConEmu.obj
 0001:0000f478       ?ConActivate@CConEmuMain@@QEAA_NH@Z 0000000140010478 f   ConEmu.obj
 0001:0000f480       ?ConActivateByName@CConEmuMain@@QEAA_NPEB_W@Z 0000000140010480 f   ConEmu.obj
 0001:0000f488       ?ConActivateNext@CConEmuMain@@QEAA_N_N@Z 0000000140010488 f   ConEmu.obj
 0001:0000f490       ?ConEmuCExeFull@CConEmuMain@@QEAAPEB_WPEB_W@Z 0000000140010490 f   ConEmu.obj
 0001:0000f8c8       ?ConEmuIni@CConEmuMain@@QEAAPEA_WXZ 00000001400108c8 f   ConEmu.obj
 0001:0000f9e0       ?ConEmuXml@CConEmuMain@@QEAAPEA_WPEA_N@Z 00000001400109e0 f   ConEmu.obj
 0001:0000fabc       ?CreateCon@CConEmuMain@@QEAAPEAVCVirtualConsole@@AEAURConStartArgsEx@@_N1@Z 0000000140010abc f   ConEmu.obj
 0001:0000fb00       ?CreateConGroup@CConEmuMain@@QEAAPEAVCVirtualConsole@@PEB_WPEBURConStartArgsEx@@@Z 0000000140010b00 f   ConEmu.obj
 0001:0000ff54       ?CreateGhostVCon@CConEmuMain@@QEAAXPEAVCVirtualConsole@@@Z 0000000140010f54 f   ConEmu.obj
 0001:0000ff70       ?CreateGuiAttachMapping@CConEmuMain@@QEAAXK@Z 0000000140010f70 f   ConEmu.obj
 0001:00010028       ?CreateLog@CConEmuMain@@QEAA_NXZ 0000000140011028 f   ConEmu.obj
 0001:000101a8       ?CreateMainWindow@CConEmuMain@@QEAAHXZ 00000001400111a8 f   ConEmu.obj
 0001:000108f8       ?CreateStartupConsoles@CConEmuMain@@IEAA_NXZ 00000001400118f8 f   ConEmu.obj
 0001:00010d80       ?CreateWnd@CConEmuMain@@QEAA_NAEAURConStartArgsEx@@@Z 0000000140011d80 f   ConEmu.obj
 0001:000110c8       ?CreateWorkWindow@CConEmuMain@@QEAAHXZ 00000001400120c8 f   ConEmu.obj
 0001:000111dc       ?CtrlWinAltSpace@CConEmuMain@@QEAAXXZ 00000001400121dc f   ConEmu.obj
 0001:0001122c       ?DebugStep@CConEmuMain@@QEAAXPEB_WH@Z 000000014001222c f   ConEmu.obj
 0001:0001131c       ?DeinitOnDestroy@CConEmuMain@@AEAAXPEAUHWND__@@_N@Z 000000014001231c f   ConEmu.obj
 0001:000114dc       ?DeleteVConMainThread@CConEmuMain@@QEAAXPEAVCVirtualConsole@@@Z 00000001400124dc f   ConEmu.obj
 0001:000114f8       ?Destroy@CConEmuMain@@QEAAX_N@Z 00000001400124f8 f   ConEmu.obj
 0001:0001161c       ?DestroyAllChildWindows@CConEmuMain@@AEAAXXZ 000000014001261c f   ConEmu.obj
 0001:0001169c       ?DoFlashWindow@CConEmuMain@@QEAAXPEAUCESERVER_REQ_FLASHWINFO@@_N@Z 000000014001269c f   ConEmu.obj
 0001:00011728       ?EnterAltNumpadMode@CConEmuMain@@QEAAXI@Z 0000000140012728 f   ConEmu.obj
 0001:00011794       ?EnumKeysValues@?$MMap@IPEBD$0A@@@QEAA_NP6A_NAEBIAEBQEBD_J@Z2@Z 0000000140012794 f i ConEmu.obj
 0001:00011858       ?EnumWindowsOverQuake@CConEmuMain@@KAHPEAUHWND__@@_J@Z 0000000140012858 f   ConEmu.obj
 0001:00011990       ?ExecPostGuiMacro@CConEmuMain@@QEAAXXZ 0000000140012990 f   ConEmu.obj
 0001:00011aac       ?Load@SettingsINI@@UEAA_NPEB_WPEAPEA_W@Z 0000000140012aac f   SettingsStorage.obj
 0001:00011aac       ?SelectNextItem@CSetPgBase@@UEAA_N_N0@Z 0000000140012aac f   SetPgANSI.obj
 0001:00011aac       ?Load@SettingsINI@@UEAA_NPEB_WPEA_WH@Z 0000000140012aac f   SettingsStorage.obj
 0001:00011aac       ?Load@SettingsINI@@UEAA_NPEB_WPEAEK@Z 0000000140012aac f   SettingsStorage.obj
 0001:00011aac       ?isLogging@CDefTermBase@@UEAA_NXZ 0000000140012aac f   DefaultTerm.obj
 0001:00011aac       ?ExecuteProcessPrepare@CConEmuMain@@IEAA_NXZ 0000000140012aac f   ConEmu.obj
 0001:00011aac       ?NotifyHookingStatus@CDefTermBase@@MEAA_NKPEB_W@Z 0000000140012aac f   DefaultTerm.obj
 0001:00011b84       ?FillConEmuMainFont@CConEmuMain@@AEAAXPEAUConEmuMainFont@@@Z 0000000140012b84 f   ConEmu.obj
 0001:00011c54       ?FindConEmuXml@CConEmuMain@@QEAAPEB_WAEAUCEStr@@@Z 0000000140012c54 f   ConEmu.obj
 0001:00011ef0       ?FixWindowStyle@CConEmuMain@@QEAAKKW4ConEmuWindowMode@@@Z 0000000140012ef0 f   ConEmu.obj
 0001:00011fd0       ?ForceSelectionModifierPressed@CConEmuMain@@QEAAXK@Z 0000000140012fd0 f   ConEmu.obj
 0001:00011fe4       ?ForceShowTabs@CConEmuMain@@QEAAXH@Z 0000000140012fe4 f   ConEmu.obj
 0001:00012054       ?GetActiveKeyboardLayout@CConEmuMain@@QEAA_KXZ 0000000140013054 f   ConEmu.obj
 0001:00012064       ?GetActiveVCon@CConEmuMain@@QEAAHPEAVCVConGuard@@PEAH@Z 0000000140013064 f   ConEmu.obj
 0001:00012070       ?GetComSpecCopy@CConEmuMain@@QEAAXAEAUConEmuComspec@@@Z 0000000140013070 f   ConEmu.obj
 0001:00012088       ?GetConCount@CConEmuMain@@QEAAHXZ 0000000140013088 f   ConEmu.obj
 0001:00012090       ?GetCurrentVConIcon@CConEmuMain@@QEAAPEAUHICON__@@XZ 0000000140013090 f   ConEmu.obj
 0001:00012108       ?GetDefaultTabLabel@CConEmuMain@@QEAAPEB_WXZ 0000000140013108 f   ConEmu.obj
 0001:00012110       ?GetDefaultTitle@CConEmuMain@@QEAAPEB_WXZ 0000000140013110 f   ConEmu.obj
 0001:00012118       ?GetEnvironmentVariables@CConEmuMain@@QEBA?AV?$shared_ptr@USystemEnvironment@@@std@@XZ 0000000140013118 f   ConEmu.obj
 0001:000121a0       ?GetFarPID@CConEmuMain@@QEAAK_N@Z 00000001400131a0 f   ConEmu.obj
 0001:000121a8       ?GetGuiInfo@CConEmuMain@@QEAAXAEAUConEmuGuiMapping@@@Z 00000001400131a8 f   ConEmu.obj
 0001:000121c0       ?GetLastTitle@CConEmuMain@@QEAAPEB_W_N@Z 00000001400131c0 f   ConEmu.obj
 0001:000121ec       ?GetRegisteredMessage@CConEmuMain@@QEAAIPEBDPEB_W@Z 00000001400131ec f   ConEmu.obj
 0001:00012250       ?GetRootHWND@CConEmuMain@@QEAAPEAUHWND__@@XZ 0000000140013250 f   ConEmu.obj
 0001:00012280       ?GetStartupStage@CConEmuMain@@QEBA?AW4StartupStage@1@XZ 0000000140013280 f   ConEmu.obj
 0001:00012288       ?GetWindowStyle@CConEmuMain@@QEAAKXZ 0000000140013288 f   ConEmu.obj
 0001:000122a8       ?GetWindowStyleEx@CConEmuMain@@QEAAKXZ 00000001400132a8 f   ConEmu.obj
 0001:000122f4       ?GlobalHotKeyChanged@CConEmuMain@@QEAAXXZ 00000001400132f4 f   ConEmu.obj
 0001:0001232c       ?InCreateWindow@CConEmuMain@@QEAA_NXZ 000000014001332c f   ConEmu.obj
 0001:00012338       ?InQuakeAnimation@CConEmuMain@@QEAA_NXZ 0000000140013338 f   ConEmu.obj
 0001:00012344       ?Init@?$MMap@IPEBD$0A@@@QEAA_N_K_N@Z 0000000140013344 f i ConEmu.obj
 0001:000123b8       ?Init@CConEmuMain@@QEAAHXZ 00000001400133b8 f   ConEmu.obj
 0001:00012468       ?InitComSpecStr@CConEmuMain@@QEAAXAEAUConEmuComspec@@@Z 0000000140013468 f   ConEmu.obj
 0001:000124a8       ?InitInactiveDC@CConEmuMain@@QEAAXPEAVCVirtualConsole@@@Z 00000001400134a8 f   ConEmu.obj
 0001:000124c4       ?InitName@?$MFileMapping@UCESERVER_CONSOLE_MAPPING_HDR@@@@QEAAPEB_WPEB_WKK@Z 00000001400134c4 f i RealConsole.obj
 0001:000124c4       ?InitName@?$MFileMapping@UConEmuGuiMapping@@@@QEAAPEB_WPEB_WKK@Z 00000001400134c4 f i ConEmu.obj
 0001:000124c4       ?InitName@?$MFileMapping@UCESERVER_CONSOLE_APP_MAPPING@@@@QEAAPEB_WPEB_WKK@Z 00000001400134c4 f i RealConsole.obj
 0001:000124c4       ?InitName@?$MFileMapping@UAnnotationHeader@@@@QEAAPEB_WPEB_WKK@Z 00000001400134c4 f i RealConsole.obj
 0001:000124c4       ?InitName@?$MFileMapping@$$CBUCEFAR_INFO_MAPPING@@@@QEAAPEB_WPEB_WKK@Z 00000001400134c4 f i RealConsole.obj
 0001:0001255c       ?InternalOpenCreate@?$MFileMapping@UConEmuGuiMapping@@@@IEAAPEAUConEmuGuiMapping@@HHH@Z 000000014001355c f i ConEmu.obj
 0001:00012700       ?Invalidate@CConEmuMain@@QEAAXPEAUtagRECT@@H@Z 0000000140013700 f   ConEmu.obj
 0001:00012710       ?InvalidateAll@CConEmuMain@@QEAAXXZ 0000000140013710 f   ConEmu.obj
 0001:00012750       ?InvalidateFrame@CConEmuMain@@QEAAXXZ 0000000140013750 f   ConEmu.obj
 0001:0001281c       ?InvalidateGaps@CConEmuMain@@QEAAXXZ 000000014001381c f   ConEmu.obj
 0001:0001283c       ?IsActiveConAdmin@CConEmuMain@@QEAA_NXZ 000000014001383c f   ConEmu.obj
 0001:00012890       ?IsAllowSaveSettingsOnExit@CConEmuMain@@QEAA_NXZ 0000000140013890 f   ConEmu.obj
 0001:000128b8       ?IsAppMonitored@CDefTermBase@@QEAA_NPEAUHWND__@@K_NPEAUtagPROCESSENTRY32W@@PEA_W@Z 00000001400138b8 f i ConEmu.obj
 0001:00012be0       ?IsChildFocusAllowed@CConEmuMain@@QEAA_NPEAUHWND__@@@Z 0000000140013be0 f   ConEmu.obj
 0001:00012c78       ?IsConsoleBatchOrTask@CConEmuMain@@SA_WPEB_W@Z 0000000140013c78 f   ConEmu.obj
 0001:00012d0c       ?IsFastSetupDisabled@CConEmuMain@@QEAA_NXZ 0000000140013d0c f   ConEmu.obj
 0001:00012d28       ?IsKeyboardHookRegistered@CConEmuMain@@QEAA_NXZ 0000000140013d28 f   ConEmu.obj
 0001:00012d34       ?IsQuakeVisible@CConEmuMain@@QEAAIXZ 0000000140013d34 f   ConEmu.obj
 0001:00012efc       ?IsResetBasicSettings@CConEmuMain@@QEAA_NXZ 0000000140013efc f   ConEmu.obj
 0001:00012f0c       ?LoadConEmuCD@CConEmuMain@@IEAAPEAUHINSTANCE__@@XZ 0000000140013f0c f   ConEmu.obj
 0001:00012fb8       ?LoadConsoleBatch@CConEmuMain@@QEAAPEA_WPEB_WPEAURConStartArgsEx@@@Z 0000000140013fb8 f   ConEmu.obj
 0001:000130c0       ?LoadConsoleBatch_Drops@CConEmuMain@@AEAAPEA_WPEB_W@Z 00000001400140c0 f   ConEmu.obj
 0001:00013564       ?LoadConsoleBatch_File@CConEmuMain@@AEAAPEA_WPEB_W@Z 0000000140014564 f   ConEmu.obj
 0001:0001376c       ?LoadConsoleBatch_Task@CConEmuMain@@AEAAPEA_WPEB_WPEAURConStartArgsEx@@@Z 000000014001476c f   ConEmu.obj
 0001:00013b44       ?LoadIcons@CConEmuMain@@QEAAXXZ 0000000140014b44 f   ConEmu.obj
 0001:00013f4c       ?LockConhostStart@CConEmuMain@@QEAA_NXZ 0000000140014f4c f   ConEmu.obj
 0001:00013fa4       ?Log@ConEmuMsgLogger@@YAXAEBUtagMSG@@W4Source@1@@Z 0000000140014fa4 f i ConEmu.obj
 0001:0001401c       ?Log@SessionInfo@CConEmuMain@@QEAAX_K_J@Z 000000014001501c f   ConEmu.obj
 0001:00014084       ?LogFocusInfo@@YAXPEB_WH@Z 0000000140015084 f   ConEmu.obj
 0001:000141a4       ?LogMessage@CConEmuMain@@QEAA_NPEAUHWND__@@I_K_J@Z 00000001400151a4 f   ConEmu.obj
 0001:000145f8       ?LogPos@ConEmuMsgLogger@@YAXAEBUtagMSG@@W4Source@1@@Z 00000001400155f8 f   ConEmu.obj
 0001:0001479c       ?LogString@CConEmuMain@@QEAA_NPEBD_N1@Z 000000014001579c f   ConEmu.obj
 0001:000147d0       ?LogString@CConEmuMain@@QEAA_NPEB_W_N1@Z 00000001400157d0 f   ConEmu.obj
 0001:00014800       ?LogWindowPos@CConEmuMain@@QEAA_NPEB_WPEAUtagRECT@@@Z 0000000140015800 f   ConEmu.obj
 0001:00014a0c       ?MainWndProc@CConEmuMain@@SA_JPEAUHWND__@@I_K_J@Z 0000000140015a0c f   ConEmu.obj
 0001:00014b38       ?MakeConEmuStartArgs@CConEmuMain@@QEAAPEB_WAEAUCEStr@@PEB_W@Z 0000000140015b38 f   ConEmu.obj
 0001:00014d60       ?MemoryDumpActiveProcess@CConEmuMain@@QEAA_N_N@Z 0000000140015d60 f   ConEmu.obj
 0001:00014e24       ?MoveActiveTab@CConEmuMain@@QEAAXPEAVCVirtualConsole@@_N@Z 0000000140015e24 f   ConEmu.obj
 0001:00014e30       ?OnActivateByMouse@CConEmuMain@@QEAA_JPEAUHWND__@@I_K_J@Z 0000000140015e30 f   ConEmu.obj
 0001:00015120       ?OnActivateSplitChanged@CConEmuMain@@QEAAXXZ 0000000140016120 f   ConEmu.obj
 0001:000151bc       ?OnActiveConWndStore@CConEmuMain@@QEAAXPEAUHWND__@@@Z 00000001400161bc f   ConEmu.obj
 0001:0001522c       ?OnAllGhostClosed@CConEmuMain@@QEAAXXZ 000000014001622c f   ConEmu.obj
 0001:000152d4       ?OnAllVConClosed@CConEmuMain@@QEAAXXZ 00000001400162d4 f   ConEmu.obj
 0001:000153dc       ?OnAlwaysShowScrollbar@CConEmuMain@@QEAAX_N@Z 00000001400163dc f   ConEmu.obj
 0001:000153e4       ?OnBufferHeight@CConEmuMain@@QEAAXXZ 00000001400163e4 f   ConEmu.obj
 0001:000154d0       ?OnCreate@CConEmuMain@@QEAA_JPEAUHWND__@@PEAUtagCREATESTRUCTW@@@Z 00000001400164d0 f   ConEmu.obj
 0001:00015660       ?OnCreateFinished@CConEmuMain@@QEAAXXZ 0000000140016660 f   ConEmu.obj
 0001:000157d4       ?OnDefaultTermChanged@CConEmuMain@@QEAAXXZ 00000001400167d4 f   ConEmu.obj
 0001:0001580c       ?OnDestroy@CConEmuMain@@QEAA_JPEAUHWND__@@@Z 000000014001680c f   ConEmu.obj
 0001:000158d4       ?OnFlashWindow@CConEmuMain@@QEAA_J_K_J@Z 00000001400168d4 f   ConEmu.obj
 0001:00015900       ?OnFocus@CConEmuMain@@QEAA_JPEAUHWND__@@I_K_JPEB_W_N@Z 0000000140016900 f   ConEmu.obj
 0001:00016508       ?OnGhostCreated@CConEmuMain@@QEAAXPEAVCVirtualConsole@@PEAUHWND__@@@Z 0000000140017508 f   ConEmu.obj
 0001:000165c8       ?OnGlobalSettingsChanged@CConEmuMain@@QEAAXXZ 00000001400175c8 f   ConEmu.obj
 0001:000165ec       ?OnHookedListChanged@CDefTermBase@@QEAAXXZ 00000001400175ec f i ConEmu.obj
 0001:00016654       ?OnKeyboard@CConEmuMain@@QEAA_JPEAUHWND__@@I_K_J@Z 0000000140017654 f   ConEmu.obj
 0001:00016de8       ?OnKeyboardHook@CConEmuMain@@QEAA_JK@Z 0000000140017de8 f   ConEmu.obj
 0001:00016e9c       ?OnKeyboardIme@CConEmuMain@@QEAA_JPEAUHWND__@@I_K_J@Z 0000000140017e9c f   ConEmu.obj
 0001:000170e0       ?OnLangChange@CConEmuMain@@QEAA_JI_K_J@Z 00000001400180e0 f   ConEmu.obj
 0001:000172d8       ?OnLangChangeConsole@CConEmuMain@@QEAA_JPEAVCVirtualConsole@@K@Z 00000001400182d8 f   ConEmu.obj
 0001:0001791c       ?OnMainCreateFinished@CConEmuMain@@IEAAXXZ 000000014001891c f   ConEmu.obj
 0001:00017b9c       ?OnMouse@CConEmuMain@@QEAA_JPEAUHWND__@@I_K_J@Z 0000000140018b9c f   ConEmu.obj
 0001:00018ba0       ?OnMouse_LBtnDblClk@CConEmuMain@@QEAA_JPEAVCVirtualConsole@@PEAUHWND__@@AEAI_K_JUtagPOINT@@U_COORD@@@Z 0000000140019ba0 f   ConEmu.obj
 0001:00018d34       ?OnMouse_LBtnDown@CConEmuMain@@QEAA_JPEAVCVirtualConsole@@PEAUHWND__@@I_K_JUtagPOINT@@U_COORD@@@Z 0000000140019d34 f   ConEmu.obj
 0001:00018fc0       ?OnMouse_LBtnUp@CConEmuMain@@QEAA_JPEAVCVirtualConsole@@PEAUHWND__@@I_K_JUtagPOINT@@U_COORD@@@Z 0000000140019fc0 f   ConEmu.obj
 0001:00019084       ?OnMouse_Move@CConEmuMain@@QEAA_JPEAVCVirtualConsole@@PEAUHWND__@@I_K_JUtagPOINT@@U_COORD@@@Z 000000014001a084 f   ConEmu.obj
 0001:00019580       ?OnMouse_NCBtnDblClk@CConEmuMain@@QEAAHPEAUHWND__@@AEAI_K_J@Z 000000014001a580 f   ConEmu.obj
 0001:000195d4       ?OnMouse_RBtnDown@CConEmuMain@@QEAA_JPEAVCVirtualConsole@@PEAUHWND__@@I_K_JUtagPOINT@@U_COORD@@@Z 000000014001a5d4 f   ConEmu.obj
 0001:000198ec       ?OnMouse_RBtnUp@CConEmuMain@@QEAA_JPEAVCVirtualConsole@@PEAUHWND__@@I_K_JUtagPOINT@@U_COORD@@@Z 000000014001a8ec f   ConEmu.obj
 0001:00019fdc       ?OnOurDialogClosed@CConEmuMain@@QEAAXXZ 000000014001afdc f   ConEmu.obj
 0001:00019fe4       ?OnOurDialogOpened@CConEmuMain@@QEAAXXZ 000000014001afe4 f   ConEmu.obj
 0001:00019fec       ?OnPanelViewSettingsChanged@CConEmuMain@@QEAAXH@Z 000000014001afec f   ConEmu.obj
 0001:0001a128       ?OnQueryEndSession@CConEmuMain@@QEAA_JPEAUHWND__@@I_K_J@Z 000000014001b128 f   ConEmu.obj
 0001:0001a204       ?OnRConStartedSuccess@CConEmuMain@@QEAAXPEAVCRealConsole@@@Z 000000014001b204 f   ConEmu.obj
 0001:0001a218       ?OnScClose@CConEmuMain@@QEAA_NXZ 000000014001b218 f   ConEmu.obj
 0001:0001a268       ?OnSessionChanged@CConEmuMain@@QEAA_JPEAUHWND__@@I_K_J@Z 000000014001b268 f   ConEmu.obj
 0001:0001a47c       ?OnSetCursor@CConEmuMain@@QEAA_J_K_J@Z 000000014001b47c f   ConEmu.obj
 0001:0001a99c       ?OnShellHook@CConEmuMain@@QEAA_J_K_J@Z 000000014001b99c f   ConEmu.obj
 0001:0001aac8       ?OnSwitchGuiFocus@CConEmuMain@@QEAAXW4SwitchGuiFocusOp@@@Z 000000014001bac8 f   ConEmu.obj
 0001:0001aba4       ?OnTabbarActivated@CConEmuMain@@QEAAX_N0@Z 000000014001bba4 f   ConEmu.obj
 0001:0001ae2c       ?OnTaskbarButtonCreated@CConEmuMain@@QEAAXXZ 000000014001be2c f   ConEmu.obj
 0001:0001aed0       ?OnTaskbarCreated@CConEmuMain@@QEAAXXZ 000000014001bed0 f   ConEmu.obj
 0001:0001af38       ?OnTaskbarSettingsChanged@CConEmuMain@@QEAAXXZ 000000014001bf38 f   ConEmu.obj
 0001:0001b01c       ?OnTimer@CConEmuMain@@QEAA_J_K_J@Z 000000014001c01c f   ConEmu.obj
 0001:0001b14c       ?OnTimer_ActivateSplit@CConEmuMain@@QEAAXXZ 000000014001c14c f   ConEmu.obj
 0001:0001b3b8       ?OnTimer_AdmShield@CConEmuMain@@QEAAXXZ 000000014001c3b8 f   ConEmu.obj
 0001:0001b46c       ?OnTimer_Background@CConEmuMain@@QEAAXXZ 000000014001c46c f   ConEmu.obj
 0001:0001b4a4       ?OnTimer_FrameAppearDisappear@CConEmuMain@@QEAAX_K@Z 000000014001c4a4 f   ConEmu.obj
 0001:0001b4f0       ?OnTimer_Main@CConEmuMain@@QEAAXPEAVCVirtualConsole@@@Z 000000014001c4f0 f   ConEmu.obj
 0001:0001ba74       ?OnTimer_QuakeFocus@CConEmuMain@@QEAAXXZ 000000014001ca74 f   ConEmu.obj
 0001:0001bb40       ?OnTransparent@CConEmuMain@@QEAAXXZ 000000014001cb40 f   ConEmu.obj
 0001:0001bb74       ?OnTransparent@CConEmuMain@@QEAAX_N0@Z 000000014001cb74 f   ConEmu.obj
 0001:0001bcc0       ?OnTransparentSeparate@CConEmuMain@@QEAAX_N@Z 000000014001ccc0 f   ConEmu.obj
 0001:0001bd10       ?OnUpdateScrollInfo@CConEmuMain@@QEAA_JH@Z 000000014001cd10 f   ConEmu.obj
 0001:0001bd40       ?OnVConCreated@CConEmuMain@@QEAAXPEAVCVirtualConsole@@PEBURConStartArgsEx@@@Z 000000014001cd40 f   ConEmu.obj
 0001:0001bdb4       ?OnWmHotkey@CConEmuMain@@QEAAX_KK@Z 000000014001cdb4 f   ConEmu.obj
 0001:0001bf7c       ?ParseScriptLineOptions@CConEmuMain@@QEAAPEB_WPEB_WPEA_NPEAURConStartArgsEx@@@Z 000000014001cf7c f   ConEmu.obj
 0001:0001c338       ?PatchMouseEvent@CConEmuMain@@IEAA_NIAEAUtagPOINT@@0_KAEA_N@Z 000000014001d338 f   ConEmu.obj
 0001:0001c644       ?PostChangeCurPalette@CConEmuMain@@QEAAXPEB_W_N1@Z 000000014001d644 f   ConEmu.obj
 0001:0001c698       ?PostCheckThread@CDefTermBase@@KAKPEAX@Z 000000014001d698 f i ConEmu.obj
 0001:0001c6e8       ?PostCreate@CConEmuMain@@QEAAX_N@Z 000000014001d6e8 f   ConEmu.obj
 0001:0001cbd4       ?PostCreateCon@CConEmuMain@@QEAAXAEBURConStartArgsEx@@@Z 000000014001dbd4 f   ConEmu.obj
 0001:0001cc54       ?PostCreateView@CConEmuMain@@QEAAPEAUHWND__@@PEAVCConEmuChild@@@Z 000000014001dc54 f   ConEmu.obj
 0001:0001cca0       ?PostDisplayRConError@CConEmuMain@@QEAAXPEAVCRealConsole@@PEA_W@Z 000000014001dca0 f   ConEmu.obj
 0001:0001ccf0       ?PostDragCopy@CConEmuMain@@QEAAX_N0@Z 000000014001dcf0 f   ConEmu.obj
 0001:0001cd60       ?PostFontSetSize@CConEmuMain@@QEAAXHH@Z 000000014001dd60 f   ConEmu.obj
 0001:0001cd7c       ?PostMacro@CConEmuMain@@QEAAXPEB_W@Z 000000014001dd7c f   ConEmu.obj
 0001:0001cde0       ?PostMacroFontSetName@CConEmuMain@@QEAAXPEA_WGGH@Z 000000014001dde0 f   ConEmu.obj
 0001:0001ce70       ?PostScClose@CConEmuMain@@QEAAXXZ 000000014001de70 f   ConEmu.obj
 0001:0001ce8c       ?PreWndProc@CConEmuMain@@QEAAXI@Z 000000014001de8c f   ConEmu.obj
 0001:0001ce94       ?RecheckForegroundWindow@CConEmuMain@@IEAA_NPEB_WPEAPEAUHWND__@@PEAU2@@Z 000000014001de94 f   ConEmu.obj
 0001:0001d25c       ?RecreateAction@CConEmuMain@@QEAA_NW4RecreateActionParm@@HW4RConBoolArg@@@Z 000000014001e25c f   ConEmu.obj
 0001:0001d5c0       ?RecreateDlg@CConEmuMain@@QEAAHPEAURConStartArgsEx@@_N@Z 000000014001e5c0 f   ConEmu.obj
 0001:0001d680       ?RefreshWindowStyles@CConEmuMain@@QEAAXXZ 000000014001e680 f   ConEmu.obj
 0001:0001d9bc       ?RegisterGlobalHotKeys@CConEmuMain@@IEAAX_N@Z 000000014001e9bc f   ConEmu.obj
 0001:0001dbc4       ?RegisterHooks@CConEmuMain@@QEAAXXZ 000000014001ebc4 f   ConEmu.obj
 0001:0001de24       ?RegisterHotKeys@CConEmuMain@@IEAAXXZ 000000014001ee24 f   ConEmu.obj
 0001:0001de70       ?RegisterMessage@CConEmuMain@@AEAAIPEBDPEB_W@Z 000000014001ee70 f   ConEmu.obj
 0001:0001dec8       ?RegisterMessages@CConEmuMain@@AEAAXXZ 000000014001eec8 f   ConEmu.obj
 0001:0001e2a0       ?RegisterMinRestore@CConEmuMain@@QEAAX_N@Z 000000014001f2a0 f   ConEmu.obj
 0001:0001e608       ?RegisterSshAgent@CConEmuMain@@QEAAXK@Z 000000014001f608 f   ConEmu.obj
 0001:0001e730       ?ReleaseConhostDelay@CConEmuMain@@QEAAXXZ 000000014001f730 f   ConEmu.obj
 0001:0001e738       ?ReloadEnvironmentVariables@CConEmuMain@@QEAAXXZ 000000014001f738 f   ConEmu.obj
 0001:0001efc0       ?ReportOldCmdVersion@CConEmuMain@@QEAAXKKHKPEAXK@Z 000000014001ffc0 f   ConEmu.obj
 0001:0001f3a8       ?RequestPostUpdateTabs@CConEmuMain@@QEAAXXZ 00000001400203a8 f   ConEmu.obj
 0001:0001f3e0       ?RightClickingPaint@CConEmuMain@@QEAAXPEAUHDC__@@PEAVCVirtualConsole@@@Z 00000001400203e0 f   ConEmu.obj
 0001:0001f84c       ?RightClickingProc@CConEmuMain@@KA_JPEAUHWND__@@I_K_J@Z 000000014002084c f   ConEmu.obj
 0001:0001f8c4       ?RunSingleInstance@CConEmuMain@@QEAAHPEAUHWND__@@PEB_W@Z 00000001400208c4 f   ConEmu.obj
 0001:0001ffd4       ?Set@?$MMap@IPEBD$0A@@@QEAA_NAEBIAEBQEBD@Z 0000000140020fd4 f i ConEmu.obj
 0001:0001ffd4       ?Set@?$MMap@HPEAV?$MArray@UDlgItem@CDpiForDialog@@@@$0A@@@QEAA_NAEBHAEBQEAV?$MArray@UDlgItem@CDpiForDialog@@@@@Z 0000000140020fd4 f i DpiAware.obj
 0001:0002011c       ?SetAppID@CConEmuMain@@QEAAXPEB_W@Z 000000014002111c f   ConEmu.obj
 0001:000203f8       ?SetConfigFile@CConEmuMain@@QEAA_NPEB_W_N1@Z 00000001400213f8 f   ConEmu.obj
 0001:000206ec       ?SetDragCursor@CConEmuMain@@QEAAXPEAUHICON__@@@Z 00000001400216ec f   ConEmu.obj
 0001:00020710       ?SetForceUseRegistry@CConEmuMain@@QEAAXXZ 0000000140021710 f   ConEmu.obj
 0001:00020718       ?SetKillTimer@CConEmuMain@@QEAA_K_NII@Z 0000000140021718 f   ConEmu.obj
 0001:00020750       ?SetParent@CConEmuMain@@QEAA_NPEAUHWND__@@@Z 0000000140021750 f   ConEmu.obj
 0001:000207c0       ?SetPostGuiMacro@CConEmuMain@@QEAAXPEB_W@Z 00000001400217c0 f   ConEmu.obj
 0001:000207cc       ?SetScClosePending@CConEmuMain@@QEAAX_N@Z 00000001400217cc f   ConEmu.obj
 0001:000207d4       ?SetSessionNotification@SessionInfo@CConEmuMain@@QEAAX_N@Z 00000001400217d4 f   ConEmu.obj
 0001:000208cc       ?SetSkipMouseEvent@CConEmuMain@@QEAAXIII@Z 00000001400218cc f   ConEmu.obj
 0001:000208e4       ?SetSkipOnFocus@CConEmuMain@@QEAA_N_N@Z 00000001400218e4 f   ConEmu.obj
 0001:000208f4       ?SetTaskbarIcon@CConEmuMain@@QEAAXPEAUHICON__@@@Z 00000001400218f4 f   ConEmu.obj
 0001:000209e4       ?SetTitle@CConEmuMain@@QEAAXPEAUHWND__@@PEB_W_N@Z 00000001400219e4 f   ConEmu.obj
 0001:00020ba0       ?SetTitleTemplate@CConEmuMain@@QEAAXPEB_W@Z 0000000140021ba0 f   ConEmu.obj
 0001:00020bc8       ?SetTransparent@CConEmuMain@@QEAA_NPEAUHWND__@@I_NK1@Z 0000000140021bc8 f   ConEmu.obj
 0001:00020f44       ?SetWindowIcon@CConEmuMain@@QEAAXPEB_W@Z 0000000140021f44 f   ConEmu.obj
 0001:00021080       ?SetWindowStyle@CConEmuMain@@QEAAXK@Z 0000000140022080 f   ConEmu.obj
 0001:00021098       ?SetWindowStyle@CConEmuMain@@QEAAXPEAUHWND__@@K@Z 0000000140022098 f   ConEmu.obj
 0001:000210a8       ?SetWindowStyleEx@CConEmuMain@@QEAAXK@Z 00000001400220a8 f   ConEmu.obj
 0001:000210b8       ?SetWindowStyleEx@CConEmuMain@@QEAAXPEAUHWND__@@K@Z 00000001400220b8 f   ConEmu.obj
 0001:0002117c       ?StartDebugActiveProcess@CConEmuMain@@QEAA_NXZ 000000014002217c f   ConEmu.obj
 0001:00021230       ?StartDebugLogConsole@CConEmuMain@@QEAA_NXZ 0000000140022230 f   ConEmu.obj
 0001:000213c0       ?StartDefTermHooker@CDefTermBase@@AEAAHKAEAPEAXAEAKPEB_W1@Z 00000001400223c0 f i ConEmu.obj
 0001:00021740       ?StartRightClickingPaint@CConEmuMain@@IEAAXXZ 0000000140022740 f   ConEmu.obj
 0001:0002178c       ?StopRightClickingPaint@CConEmuMain@@IEAAXXZ 000000014002278c f   ConEmu.obj
 0001:000217e4       ?StoreLayoutName@CConEmuMain@@IEAAXHKPEAUHKL__@@@Z 00000001400227e4 f   ConEmu.obj
 0001:00021924       ?StoreWorkDir@CConEmuMain@@QEAAXPEB_W@Z 0000000140022924 f   ConEmu.obj
 0001:00021b20       ?StringCchVPrintfA@@YAJPEAD_KPEBD0@Z 0000000140022b20 f i ConEmu.obj
 0001:00021bc8       ?SwitchKeyboardLayout@CConEmuMain@@QEAAX_K@Z 0000000140022bc8 f   ConEmu.obj
 0001:00021db0       ?SyncExecMacro@CConEmuMain@@QEAA_J_K_J@Z 0000000140022db0 f   ConEmu.obj
 0001:00021dcc       ?SyncNtvdm@CConEmuMain@@QEAAXXZ 0000000140022dcc f   ConEmu.obj
 0001:00021de0       ?TerminateSshAgents@CConEmuMain@@IEAAXXZ 0000000140022de0 f   ConEmu.obj
 0001:00021f74       ?TrackMouse@CConEmuMain@@QEAAHXZ 0000000140022f74 f   ConEmu.obj
 0001:00021fc0       ?UnRegisterHooks@CConEmuMain@@QEAAX_N@Z 0000000140022fc0 f   ConEmu.obj
 0001:00022054       ?UnRegisterHotKeys@CConEmuMain@@IEAAX_N@Z 0000000140023054 f   ConEmu.obj
 0001:00022080       ?UnlockConhostStart@CConEmuMain@@QEAAXXZ 0000000140023080 f   ConEmu.obj
 0001:000220a4       ?Update@CConEmuMain@@QEAAX_N@Z 00000001400230a4 f   ConEmu.obj
 0001:000220ac       ?UpdateActiveGhost@CConEmuMain@@QEAAXPEAVCVirtualConsole@@@Z 00000001400230ac f   ConEmu.obj
 0001:00022120       ?UpdateCaretPos@CConEmuMain@@QEAAXAEAVCVirtualConsole@@AEBUtagRECT@@@Z 0000000140023120 f   ConEmu.obj
 0001:00022190       ?UpdateCursorInfo@CConEmuMain@@QEAAXPEBUConsoleInfoArg@@@Z 0000000140023190 f   ConEmu.obj
 0001:00022260       ?UpdateGuiInfoMapping@CConEmuMain@@AEAAXXZ 0000000140023260 f   ConEmu.obj
 0001:000227c4       ?UpdateGuiInfoMappingActive@CConEmuMain@@AEAAX_N0@Z 00000001400237c4 f   ConEmu.obj
 0001:0002293c       ?UpdateImeComposition@CConEmuMain@@IEAAXXZ 000000014002393c f   ConEmu.obj
 0001:00022acc       ?UpdateProcessDisplay@CConEmuMain@@QEAAX_N@Z 0000000140023acc f   ConEmu.obj
 0001:00022de4       ?UpdateProgress@CConEmuMain@@QEAAXXZ 0000000140023de4 f   ConEmu.obj
 0001:00023120       ?UpdateSizes@CConEmuMain@@QEAAXXZ 0000000140024120 f   ConEmu.obj
 0001:00023318       ?UpdateTitle@CConEmuMain@@QEAAXXZ 0000000140024318 f   ConEmu.obj
 0001:00023450       ?UpdateWinHookSettings@CConEmuMain@@QEAAXXZ 0000000140024450 f   ConEmu.obj
 0001:000234ac       ?UpdateWindowChild@CConEmuMain@@QEAAXPEAVCVirtualConsole@@@Z 00000001400244ac f   ConEmu.obj
 0001:000234b4       ?WndProc@CConEmuMain@@QEAA_JPEAUHWND__@@I_K_J@Z 00000001400244b4 f   ConEmu.obj
 0001:00024b68       ?WorkDir@CConEmuMain@@QEAAPEB_WPEB_W@Z 0000000140025b68 f   ConEmu.obj
 0001:00024b98       ?WorkWndProc@CConEmuMain@@SA_JPEAUHWND__@@I_K_J@Z 0000000140025b98 f   ConEmu.obj
 0001:00024d34       ?_Assign_grow@?$_Hash_vec@V?$allocator@V?$_List_unchecked_iterator@V?$_List_val@U?$_List_simple_types@U?$pair@$$CBV?$basic_string@_WU?$char_traits@_W@std@@V?$allocator@_W@2@@std@@UVariableData@SystemEnvironment@@@std@@@std@@@std@@@std@@@std@@@std@@QEAAX_KV?$_List_unchecked_iterator@V?$_List_val@U?$_List_simple_types@U?$pair@$$CBV?$basic_string@_WU?$char_traits@_W@std@@V?$allocator@_W@2@@std@@UVariableData@SystemEnvironment@@@std@@@std@@@std@@@2@@Z 0000000140025d34 f i ConEmu.obj
 0001:00024d34       ?_Assign_grow@?$_Hash_vec@V?$allocator@V?$_List_unchecked_iterator@V?$_List_val@U?$_List_simple_types@U?$pair@$$CBHG@std@@@std@@@std@@@std@@@std@@@std@@QEAAX_KV?$_List_unchecked_iterator@V?$_List_val@U?$_List_simple_types@U?$pair@$$CBHG@std@@@std@@@std@@@2@@Z 0000000140025d34 f i Font.obj
 0001:00024df4       ?_Copy@?$_Func_impl_no_alloc@P6A_NPEAVCVirtualConsole@@_J@Z_NPEAV1@_J@std@@EEBAPEAV?$_Func_base@_NPEAVCVirtualConsole@@_J@2@PEAX@Z 0000000140025df4 f i ConEmu.obj
 0001:00024df4       ?_Move@?$_Func_impl_no_alloc@P6A_NPEAVCVirtualConsole@@_J@Z_NPEAV1@_J@std@@EEAAPEAV?$_Func_base@_NPEAVCVirtualConsole@@_J@2@PEAX@Z 0000000140025df4 f i ConEmu.obj
 0001:00024e0c       ?_Delete_this@?$_Func_impl_no_alloc@P6A_NPEAVCVirtualConsole@@_J@Z_NPEAV1@_J@std@@EEAAX_N@Z 0000000140025e0c f i ConEmu.obj
 0001:00024e24       ?_Delete_this@?$_Ref_count_obj2@USystemEnvironment@@@std@@EEAAXXZ 0000000140025e24 f i ConEmu.obj
 0001:00024e40       ?_Destroy@?$_Ref_count_obj2@USystemEnvironment@@@std@@EEAAXXZ 0000000140025e40 f i ConEmu.obj
 0001:00024e4c       ?_Do_call@?$_Func_impl_no_alloc@P6A_NPEAVCVirtualConsole@@_J@Z_NPEAV1@_J@std@@EEAA_N$$QEAPEAVCVirtualConsole@@$$QEA_J@Z 0000000140025e4c f i ConEmu.obj
 0001:00024e5c       ?_Get@?$_Func_impl_no_alloc@P6A_NPEAVCVirtualConsole@@_J@Z_NPEAV1@_J@std@@EEBAPEBXXZ 0000000140025e5c f i ConEmu.obj
 0001:00024e5c       _Mtx_getconcrtcs           0000000140025e5c f i libcpmt:mutex.obj
 0001:00024e64       ?_Target_type@?$_Func_impl_no_alloc@P6A_NPEAVCVirtualConsole@@_J@Z_NPEAV1@_J@std@@EEBAAEBVtype_info@@XZ 0000000140025e64 f i ConEmu.obj
 0001:00024e6c       ?_Throw_bad_array_new_length@std@@YAXXZ 0000000140025e6c f i ConEmu.obj
 0001:00024e8c       ?_Xlen_string@std@@YAXXZ   0000000140025e8c f i ConEmu.obj
 0001:00024ea0       ?append@?$basic_string@_WU?$char_traits@_W@std@@V?$allocator@_W@2@@std@@QEAAAEAV12@QEB_W_K@Z 0000000140025ea0 f i ConEmu.obj
 0001:00024f1c       ?assign@?$basic_string@_WU?$char_traits@_W@std@@V?$allocator@_W@2@@std@@QEAAAEAV12@QEB_W_K@Z 0000000140025f1c f i ConEmu.obj
 0001:00024f88       ?erase@?$MArray@UProcessInfo@CDefTermBase@@@@QEAAX_J0@Z 0000000140025f88 f i ConEmu.obj
 0001:00025000       ?isCloseConfirmed@CConEmuMain@@QEAA_NXZ 0000000140026000 f   ConEmu.obj
 0001:00025030       ?isDestroyOnClose@CConEmuMain@@QEAA_N_N@Z 0000000140026030 f   ConEmu.obj
 0001:000251c8       ?isDialogMessage@CConEmuMain@@QEAAHAEAUtagMSG@@@Z 00000001400261c8 f   ConEmu.obj
 0001:0002528c       ?isDragging@CConEmuMain@@QEAA_NXZ 000000014002628c f   ConEmu.obj
 0001:000252c4       ?isFirstInstance@CConEmuMain@@QEAA_N_N@Z 00000001400262c4 f   ConEmu.obj
 0001:00025460       ?isInImeComposition@CConEmuMain@@QEAA_NXZ 0000000140026460 f   ConEmu.obj
 0001:00025468       ?isInputGrouped@CConEmuMain@@QEBA_NXZ 0000000140026468 f   ConEmu.obj
 0001:00025470       ?isInside@CConEmuMain@@QEAA_NXZ 0000000140026470 f   ConEmu.obj
 0001:0002548c       ?isInsideInvalid@CConEmuMain@@QEAA_NXZ 000000014002648c f   ConEmu.obj
 0001:000254c8       ?isMSysStartup@CConEmuMain@@QEAA_NXZ 00000001400264c8 f   ConEmu.obj
 0001:000254d4       ?isMeForeground@CConEmuMain@@QEAA_N_N0PEAPEAUHWND__@@@Z 00000001400264d4 f   ConEmu.obj
 0001:0002551c       ?isMenuActive@CConEmuMain@@QEAA_NXZ 000000014002651c f   ConEmu.obj
 0001:00025538       ?isMingwMode@CConEmuMain@@QEAA_NXZ 0000000140026538 f   ConEmu.obj
 0001:00025544       ?isMouseOverFrame@CConEmuMain@@QEAA_N_N@Z 0000000140026544 f   ConEmu.obj
 0001:000256c0       ?isNtvdm@CConEmuMain@@QEAA_NH@Z 00000001400266c0 f   ConEmu.obj
 0001:000256c8       ?isOurConsoleWindow@CConEmuMain@@QEAA_NPEAUHWND__@@@Z 00000001400266c8 f   ConEmu.obj
 0001:000256d0       ?isPictureView@CConEmuMain@@QEAA_NXZ 00000001400266d0 f   ConEmu.obj
 0001:000256d8       ?isProcessCreated@CConEmuMain@@QEAA_NXZ 00000001400266d8 f   ConEmu.obj
 0001:000256e0       ?isRightClickingPaint@CConEmuMain@@QEAA_NXZ 00000001400266e0 f   ConEmu.obj
 0001:000256e8       ?isSelectionModifierPressed@CConEmuMain@@QEAAK_N@Z 00000001400266e8 f   ConEmu.obj
 0001:000257e0       ?isSkipNcMessage@CConEmuMain@@QEAA_NAEBUtagMSG@@@Z 00000001400267e0 f   ConEmu.obj
 0001:00025880       ?isTabsShown@CConEmuMain@@QEBA_NXZ 0000000140026880 f   ConEmu.obj
 0001:000258b8       ?isUpdateAllowed@CConEmuMain@@QEAA_NXZ 00000001400268b8 f   ConEmu.obj
 0001:000258c4       ?isVConExists@CConEmuMain@@QEAA_NH@Z 00000001400268c4 f   ConEmu.obj
 0001:000258cc       ?isVConValid@CConEmuMain@@QEAAHPEAVCVirtualConsole@@@Z 00000001400268cc f   ConEmu.obj
 0001:000258ec       ?isValid@CConEmuMain@@QEAA_NPEAVCRealConsole@@@Z 00000001400268ec f   ConEmu.obj
 0001:000258f4       ?isValid@CConEmuMain@@QEAA_NPEAVCVirtualConsole@@@Z 00000001400268f4 f   ConEmu.obj
 0001:000258fc       ?setFocus@CConEmuMain@@QEAAXXZ 00000001400268fc f   ConEmu.obj
 0001:00025a34       ??$SafeDelete@VCConEmuMain@@@@YAXAEAPEAVCConEmuMain@@@Z 0000000140026a34 f i ConEmuApp.obj
 0001:00025a6c       ??$SafeDelete@VCConEmuUpdate@@@@YAXAEAPEAVCConEmuUpdate@@@Z 0000000140026a6c f i ConEmuApp.obj
 0001:00025ab4       ??$SafeDelete@VCFontMgr@@@@YAXAEAPEAVCFontMgr@@@Z 0000000140026ab4 f i ConEmuApp.obj
 0001:00025afc       ??$SafeDelete@VCLngRc@@@@YAXAEAPEAVCLngRc@@@Z 0000000140026afc f i ConEmuApp.obj
 0001:00025b44       ??$SafeDelete@VConEmuHotKeyList@@@@YAXAEAPEAVConEmuHotKeyList@@@Z 0000000140026b44 f i ConEmuApp.obj
 0001:00025ba0       ??$swprintf_c@$0BAA@@@YAHAEAY0BAA@_WPEB_WZZ 0000000140026ba0 f i ConEmuApp.obj
 0001:00025bcc       ??$ultow_s@$0BA@@@YAPEB_WIAEAY0BA@_WH@Z 0000000140026bcc f i ConEmuApp.obj
 0001:00025bf8       ??$wcscpy_c@$0FNM@@@YAHAEAY0FNM@_WPEB_W@Z 0000000140026bf8 f i ConEmuApp.obj
 0001:00025c44       ??$wcscpy_c@$0GE@@@YAHAEAY0GE@_WPEB_W@Z 0000000140026c44 f i ConEmuApp.obj
 0001:00025c90       ?AppWndProc@@YA_JPEAUHWND__@@I_K_J@Z 0000000140026c90 f   ConEmuApp.obj
 0001:00025d78       ?AssertBox@@YAXPEB_W0IPEAU_EXCEPTION_POINTERS@@@Z 0000000140026d78 f   ConEmuApp.obj
 0001:00026274       ?CenterInParent@@YA?AUtagRECT@@U1@PEAUHWND__@@@Z 0000000140027274 f   ConEmuApp.obj
 0001:000263a0       ?CheckCreateAppWindow@@YAHXZ 00000001400273a0 f   ConEmuApp.obj
 0001:000265a0       ?CheckForDebugArgs@@YAHPEB_W@Z 00000001400275a0 f   ConEmuApp.obj
 0001:00026784       ?CheckZoneIdentifiers@@YAH_N@Z 0000000140027784 f   ConEmuApp.obj
 0001:00026c04       ?Create@LoadStartupEnvEx@@SAPEAUCEStartupEnv@@XZ 0000000140027c04 f i ConEmuApp.obj
 0001:00026e50       ?CreateDumpForReport@@YAKPEAU_EXCEPTION_POINTERS@@AEAY0EAA@_WAEAY0BEE@_WPEA_W@Z 0000000140027e50 f   ConEmuApp.obj
 0001:00027328       ?CreateDumpOnException@@YAJPEAU_EXCEPTION_POINTERS@@@Z 0000000140028328 f   ConEmuApp.obj
 0001:00027490       ?CreateNullIcon@@YAPEAUHICON__@@XZ 0000000140028490 f   ConEmuApp.obj
 0001:00027520       ?FindProcessWindow@@YAPEAUHWND__@@K@Z 0000000140028520 f   ConEmuApp.obj
 0001:000275a0       ?FindTopExplorerWindow@@YAPEAUHWND__@@XZ 00000001400285a0 f   ConEmuApp.obj
 0001:0002764c       ?GetColorRef@@YA_NPEB_WPEAK@Z 000000014002864c f   ConEmuApp.obj
 0001:000278a8       ?GetDlgItemSigned@@YA_NPEAUHWND__@@GAEAHHH@Z 00000001400288a8 f   ConEmuApp.obj
 0001:00027904       ?GetDlgItemTextPtr@@YAPEA_WPEAUHWND__@@G@Z 0000000140028904 f   ConEmuApp.obj
 0001:0002792c       ?Init@?$MMap@HUCEIconDrawHandles@@$0A@@@QEAA_N_K_N@Z 000000014002892c f i SearchCtrl.obj
 0001:0002792c       ?Init@?$MMap@PEAUHWND__@@PEAVCVirtualConsole@@$0A@@@QEAA_N_K_N@Z 000000014002892c f i ConEmuApp.obj
 0001:0002792c       ?Init@?$MMap@PEAVCVConGroup@@PEAVCVirtualConsole@@$0A@@@QEAA_N_K_N@Z 000000014002892c f i TabBar.obj
 0001:0002792c       ?Init@?$MMap@PEAUHWND__@@PEAVCDynDialog@@$0A@@@QEAA_N_K_N@Z 000000014002892c f i DynDialog.obj
 0001:000279a4       ?Load@LoadStartupEnv@@KA_N_KAEAPEAUCEStartupEnv@@AEAPEAE@Z 00000001400289a4 f i ConEmuApp.obj
 0001:00027fdc       ?LoadAutoruns@LoadStartupEnvEx@@KAPEA_WXZ 0000000140028fdc f i ConEmuApp.obj
 0001:000282fc       ?LoadFonts@LoadStartupEnvEx@@KAPEA_WXZ 00000001400292fc f i ConEmuApp.obj
 0001:00028580       ?LoadStartupEnv_FillMonitors@LoadStartupEnvEx@@KAHPEAUHMONITOR__@@PEAUHDC__@@PEAUtagRECT@@_J@Z 0000000140029580 f i ConEmuApp.obj
 0001:000286e4       ?LogString@@YA_NPEB_W_N1@Z 00000001400296e4 f   ConEmuApp.obj
 0001:000286fc       ?MessageLoop@@YAXXZ        00000001400296fc f   ConEmuApp.obj
 0001:0002874c       ?MoveWindowRect@@YAHPEAUHWND__@@AEBUtagRECT@@H@Z 000000014002974c f   ConEmuApp.obj
 0001:000287d8       ?MsgBox@@YAHPEB_WI0PEAUHWND__@@_N@Z 00000001400297d8 f   ConEmuApp.obj
 0001:00028954       ?MyGetDlgItemText@@YA_KPEAUHWND__@@GAEA_KAEAPEA_W@Z 0000000140029954 f   ConEmuApp.obj
 0001:00028a18       ?PatchMsgBoxIcon@@YAXPEAUHWND__@@I_K_J@Z 0000000140029a18 f   ConEmuApp.obj
 0001:00028b0c       ?ProcessCmdArg@@YAHPEB_W_N1AEAUCEStr@@AEA_N@Z 0000000140029b0c f   ConEmuApp.obj
 0001:00028d10       ?ProcessMessage@@YA_NAEAUtagMSG@@@Z 0000000140029d10 f   ConEmuApp.obj
 0001:00028e98       ?PtMouseDblClickTest@@YA_NAEBUtagMSG@@U1@@Z 0000000140029e98 f   ConEmuApp.obj
 0001:00028fd4       ?RaiseTestException@@YAXXZ 0000000140029fd4 f   ConEmuApp.obj
 0001:00028fdc       ?ResetEnvironmentVariables@@YAXXZ 0000000140029fdc f   ConEmuApp.obj
 0001:00029004       ?SelectFile@@YAPEA_WPEB_W00PEAUHWND__@@0KPEAVCRealConsole@@@Z 000000014002a004 f   ConEmuApp.obj
 0001:00029248       ?SelectFolder@@YAPEA_WPEB_W0PEAUHWND__@@KPEAVCRealConsole@@@Z 000000014002a248 f   ConEmuApp.obj
 0001:00029444       ?ShutdownGuiStep@@YAXPEB_WHHHH@Z 000000014002a444 f   ConEmuApp.obj
 0001:00029524       ?SkipOneShowWindow@@YAXXZ  000000014002a524 f   ConEmuApp.obj
 0001:00029778       ?SkipShowWindowProc@@YA_JPEAUHWND__@@I_K_J@Z 000000014002a778 f   ConEmuApp.obj
 0001:00029810       ?UpdateAppUserModelID@@YAJXZ 000000014002a810 f   ConEmuApp.obj
 0001:00029bd8       ?UpdateWin7TaskList@@YA_N_N0@Z 000000014002abd8 f   ConEmuApp.obj
 0001:0002a290       ?WarnCreateWindowFail@@YAXPEB_WPEAUHWND__@@K@Z 000000014002b290 f   ConEmuApp.obj
 0001:0002a470       ?_CreateSeparatorLink@@YAJPEAPEAUIShellLinkW@@@Z 000000014002b470 f   ConEmuApp.obj
 0001:0002ac0c       ?getFocusedExplorerWindowPath@@YAPEA_WXZ 000000014002bc0c f   ConEmuApp.obj
 0001:0002aef0       ?getForegroundWindow@@YAPEAUHWND__@@XZ 000000014002bef0 f   ConEmuApp.obj
 0001:0002af40       ?isCharAltFont@@YA_NH@Z    000000014002bf40 f   ConEmuApp.obj
 0001:0002af50       WinMain                    000000014002bf50 f   ConEmuApp.obj
 0001:0002c074       ??$wcscpy_c@$05@@YAHAEAY05_WPEB_W@Z 000000014002d074 f i ConEmuCtrl.obj
 0001:0002c0c0       ??0CConEmuCtrl@@QEAA@XZ    000000014002d0c0 f   ConEmuCtrl.obj
 0001:0002c0f8       ??1CConEmuCtrl@@UEAA@XZ    000000014002d0f8 f   ConEmuCtrl.obj
 0001:0002c104       ??_GCConEmuCtrl@@UEAAPEAXI@Z 000000014002d104 f i ConEmuCtrl.obj
 0001:0002c104       ??_ECConEmuCtrl@@UEAAPEAXI@Z 000000014002d104 f i ConEmuCtrl.obj
 0001:0002c130       ?ChooseTabFromMenu@CConEmuCtrl@@SAXHUtagPOINT@@K@Z 000000014002d130 f   ConEmuCtrl.obj
 0001:0002c294       ?ChordFromVk@CConEmuCtrl@@QEAA?AUConEmuChord@@K@Z 000000014002d294 f   ConEmuCtrl.obj
 0001:0002c304       ?DoEndFindText@CConEmuCtrl@@SAXPEAVCRealConsole@@@Z 000000014002d304 f   ConEmuCtrl.obj
 0001:0002c358       ?DoFindText@CConEmuCtrl@@SAXHPEAVCRealConsole@@@Z 000000014002d358 f   ConEmuCtrl.obj
 0001:0002c3bc       ?FixSingleModifier@CConEmuCtrl@@QEAAXKPEAVCRealConsole@@@Z 000000014002d3bc f   ConEmuCtrl.obj
 0001:0002c420       ?GetControlKeyState@CConEmuCtrl@@QEAAK_J@Z 000000014002d420 f   ConEmuCtrl.obj
 0001:0002c430       ?GetOpenedPanels@CConEmuCtrl@@SA_KAEAPEA_WAEAH1@Z 000000014002d430 f   ConEmuCtrl.obj
 0001:0002c638       ?GetOpenedTabs@CConEmuCtrl@@SA_KAEAPEAUTabInfo@CESERVER_REQ_GETALLTABS@@@Z 000000014002d638 f   ConEmuCtrl.obj
 0001:0002c8f0       ?MakeScreenshot@CConEmuCtrl@@SAX_N@Z 000000014002d8f0 f   ConEmuCtrl.obj
 0001:0002caec       ?ProcessHotKey@CConEmuCtrl@@QEAAPEBUConEmuHotKey@@AEBUConEmuChord@@_NPEB_WPEAVCRealConsole@@@Z 000000014002daec f   ConEmuCtrl.obj
 0001:0002ccc0       ?ProcessHotKeyMsg@CConEmuCtrl@@QEAA_NI_K_JPEB_WPEAVCRealConsole@@@Z 000000014002dcc0 f   ConEmuCtrl.obj
 0001:0002d014       ?SkipOneAppsRelease@CConEmuCtrl@@QEAAX_N@Z 000000014002e014 f   ConEmuCtrl.obj
 0001:0002d088       ?SkipOneAppsReleaseHook@CConEmuCtrl@@CA_JH_K_J@Z 000000014002e088 f   ConEmuCtrl.obj
 0001:0002d0c4       ?StatusCommand@CConEmuCtrl@@SAXW4ConEmuStatusCommand@@HPEB_WPEAVCRealConsole@@@Z 000000014002e0c4 f   ConEmuCtrl.obj
 0001:0002d1e8       ?TabCommand@CConEmuCtrl@@SAXW4ConEmuTabCommand@@@Z 000000014002e1e8 f   ConEmuCtrl.obj
 0001:0002d2c8       ?UpdateControlKeyState@CConEmuCtrl@@QEAAXXZ 000000014002e2c8 f   ConEmuCtrl.obj
 0001:0002d3ec       ?key_AlternativeBuffer@CConEmuCtrl@@SA_NAEBUConEmuChord@@_NPEBUConEmuHotKey@@PEAVCRealConsole@@@Z 000000014002e3ec f   ConEmuCtrl.obj
 0001:0002d408       ?key_AlwaysOnTop@CConEmuCtrl@@SA_NAEBUConEmuChord@@_NPEBUConEmuHotKey@@PEAVCRealConsole@@@Z 000000014002e408 f   ConEmuCtrl.obj
 0001:0002d440       ?key_BufferScroll@CConEmuCtrl@@SA_N_NEPEAVCRealConsole@@@Z 000000014002e440 f   ConEmuCtrl.obj
 0001:0002d4e4       ?key_BufferScrollDown@CConEmuCtrl@@SA_NAEBUConEmuChord@@_NPEBUConEmuHotKey@@PEAVCRealConsole@@@Z 000000014002e4e4 f   ConEmuCtrl.obj
 0001:0002d4fc       ?key_BufferScrollPgDn@CConEmuCtrl@@SA_NAEBUConEmuChord@@_NPEBUConEmuHotKey@@PEAVCRealConsole@@@Z 000000014002e4fc f   ConEmuCtrl.obj
 0001:0002d514       ?key_BufferScrollPgUp@CConEmuCtrl@@SA_NAEBUConEmuChord@@_NPEBUConEmuHotKey@@PEAVCRealConsole@@@Z 000000014002e514 f   ConEmuCtrl.obj
 0001:0002d52c       ?key_BufferScrollUp@CConEmuCtrl@@SA_NAEBUConEmuChord@@_NPEBUConEmuHotKey@@PEAVCRealConsole@@@Z 000000014002e52c f   ConEmuCtrl.obj
 0001:0002d544       ?key_CTSVkBlockStart@CConEmuCtrl@@SA_NAEBUConEmuChord@@_NPEBUConEmuHotKey@@PEAVCRealConsole@@@Z 000000014002e544 f   ConEmuCtrl.obj
 0001:0002d578       ?key_CTSVkTextStart@CConEmuCtrl@@SA_NAEBUConEmuChord@@_NPEBUConEmuHotKey@@PEAVCRealConsole@@@Z 000000014002e578 f   ConEmuCtrl.obj
 0001:0002d5ac       ?key_ChildSystemMenu@CConEmuCtrl@@SA_NAEBUConEmuChord@@_NPEBUConEmuHotKey@@PEAVCRealConsole@@@Z 000000014002e5ac f   ConEmuCtrl.obj
 0001:0002d5fc       ?key_ConsoleNum@CConEmuCtrl@@SA_NAEBUConEmuChord@@_NPEBUConEmuHotKey@@PEAVCRealConsole@@@Z 000000014002e5fc f   ConEmuCtrl.obj
 0001:0002d6d4       ?key_CtrlShiftTab@CConEmuCtrl@@SA_NAEBUConEmuChord@@_NPEBUConEmuHotKey@@PEAVCRealConsole@@@Z 000000014002e6d4 f   ConEmuCtrl.obj
 0001:0002d6d4       ?key_CtrlTab@CConEmuCtrl@@SA_NAEBUConEmuChord@@_NPEBUConEmuHotKey@@PEAVCRealConsole@@@Z 000000014002e6d4 f   ConEmuCtrl.obj
 0001:0002d740       ?key_CtrlTab_Next@CConEmuCtrl@@SA_NAEBUConEmuChord@@_NPEBUConEmuHotKey@@PEAVCRealConsole@@@Z 000000014002e740 f   ConEmuCtrl.obj
 0001:0002d740       ?key_CtrlTab_Prev@CConEmuCtrl@@SA_NAEBUConEmuChord@@_NPEBUConEmuHotKey@@PEAVCRealConsole@@@Z 000000014002e740 f   ConEmuCtrl.obj
 0001:0002d7b0       ?key_DeleteWordToLeft@CConEmuCtrl@@SA_NAEBUConEmuChord@@_NPEBUConEmuHotKey@@PEAVCRealConsole@@@Z 000000014002e7b0 f   ConEmuCtrl.obj
 0001:0002d7fc       ?key_DuplicateRoot@CConEmuCtrl@@SA_NAEBUConEmuChord@@_NPEBUConEmuHotKey@@PEAVCRealConsole@@@Z 000000014002e7fc f   ConEmuCtrl.obj
 0001:0002d830       ?key_FindTextDlg@CConEmuCtrl@@SA_NAEBUConEmuChord@@_NPEBUConEmuHotKey@@PEAVCRealConsole@@@Z 000000014002e830 f   ConEmuCtrl.obj
 0001:0002d88c       ?key_ForcedFullScreen@CConEmuCtrl@@SA_NAEBUConEmuChord@@_NPEBUConEmuHotKey@@PEAVCRealConsole@@@Z 000000014002e88c f   ConEmuCtrl.obj
 0001:0002d8b0       ?key_GlobalRestore@CConEmuCtrl@@SA_NAEBUConEmuChord@@_NPEBUConEmuHotKey@@PEAVCRealConsole@@@Z 000000014002e8b0 f   ConEmuCtrl.obj
 0001:0002d8d8       ?key_GuiMacro@CConEmuCtrl@@SA_NAEBUConEmuChord@@_NPEBUConEmuHotKey@@PEAVCRealConsole@@@Z 000000014002e8d8 f   ConEmuCtrl.obj
 0001:0002d948       ?key_MinimizeByEsc@CConEmuCtrl@@SA_NAEBUConEmuChord@@_NPEBUConEmuHotKey@@PEAVCRealConsole@@@Z 000000014002e948 f   ConEmuCtrl.obj
 0001:0002d9bc       ?key_MinimizeRestore@CConEmuCtrl@@SA_NAEBUConEmuChord@@_NPEBUConEmuHotKey@@PEAVCRealConsole@@@Z 000000014002e9bc f   ConEmuCtrl.obj
 0001:0002d9e0       ?key_MoveTabLeft@CConEmuCtrl@@SA_NAEBUConEmuChord@@_NPEBUConEmuHotKey@@PEAVCRealConsole@@@Z 000000014002e9e0 f   ConEmuCtrl.obj
 0001:0002da10       ?key_MoveTabRight@CConEmuCtrl@@SA_NAEBUConEmuChord@@_NPEBUConEmuHotKey@@PEAVCRealConsole@@@Z 000000014002ea10 f   ConEmuCtrl.obj
 0001:0002da40       ?key_MultiBuffer@CConEmuCtrl@@SA_NAEBUConEmuChord@@_NPEBUConEmuHotKey@@PEAVCRealConsole@@@Z 000000014002ea40 f   ConEmuCtrl.obj
 0001:0002da5c       ?key_MultiCmd@CConEmuCtrl@@SA_NAEBUConEmuChord@@_NPEBUConEmuHotKey@@PEAVCRealConsole@@@Z 000000014002ea5c f   ConEmuCtrl.obj
 0001:0002daec       ?key_MultiNewAttach@CConEmuCtrl@@SA_NAEBUConEmuChord@@_NPEBUConEmuHotKey@@PEAVCRealConsole@@@Z 000000014002eaec f   ConEmuCtrl.obj
 0001:0002db24       ?key_MultiNewPopupMenu2@CConEmuCtrl@@SA_NAEBUConEmuChord@@_NPEBUConEmuHotKey@@PEAVCRealConsole@@@Z 000000014002eb24 f   ConEmuCtrl.obj
 0001:0002db50       ?key_MultiNewPopupMenu@CConEmuCtrl@@SA_NAEBUConEmuChord@@_NPEBUConEmuHotKey@@PEAVCRealConsole@@@Z 000000014002eb50 f   ConEmuCtrl.obj
 0001:0002db7c       ?key_MultiNext@CConEmuCtrl@@SA_NAEBUConEmuChord@@_NPEBUConEmuHotKey@@PEAVCRealConsole@@@Z 000000014002eb7c f   ConEmuCtrl.obj
 0001:0002db9c       ?key_MultiPrev@CConEmuCtrl@@SA_NAEBUConEmuChord@@_NPEBUConEmuHotKey@@PEAVCRealConsole@@@Z 000000014002eb9c f   ConEmuCtrl.obj
 0001:0002dbbc       ?key_MultiRecreate@CConEmuCtrl@@SA_NAEBUConEmuChord@@_NPEBUConEmuHotKey@@PEAVCRealConsole@@@Z 000000014002ebbc f   ConEmuCtrl.obj
 0001:0002dbe4       ?key_PasteFirstLine@CConEmuCtrl@@SA_NAEBUConEmuChord@@_NPEBUConEmuHotKey@@PEAVCRealConsole@@@Z 000000014002ebe4 f   ConEmuCtrl.obj
 0001:0002dcac       ?key_PasteText@CConEmuCtrl@@SA_NAEBUConEmuChord@@_NPEBUConEmuHotKey@@PEAVCRealConsole@@@Z 000000014002ecac f   ConEmuCtrl.obj
 0001:0002dd6c       ?key_RenameTab@CConEmuCtrl@@SA_NAEBUConEmuChord@@_NPEBUConEmuHotKey@@PEAVCRealConsole@@@Z 000000014002ed6c f   ConEmuCtrl.obj
 0001:0002dd88       ?key_RunTask@CConEmuCtrl@@SA_NAEBUConEmuChord@@_NPEBUConEmuHotKey@@PEAVCRealConsole@@@Z 000000014002ed88 f   ConEmuCtrl.obj
 0001:0002de2c       ?key_Screenshot@CConEmuCtrl@@SA_NAEBUConEmuChord@@_NPEBUConEmuHotKey@@PEAVCRealConsole@@@Z 000000014002ee2c f   ConEmuCtrl.obj
 0001:0002de44       ?key_ScreenshotFull@CConEmuCtrl@@SA_NAEBUConEmuChord@@_NPEBUConEmuHotKey@@PEAVCRealConsole@@@Z 000000014002ee44 f   ConEmuCtrl.obj
 0001:0002de5c       ?key_ShowCaption@CConEmuCtrl@@SA_NAEBUConEmuChord@@_NPEBUConEmuHotKey@@PEAVCRealConsole@@@Z 000000014002ee5c f   ConEmuCtrl.obj
 0001:0002dee4       ?key_ShowRealConsole@CConEmuCtrl@@SA_NAEBUConEmuChord@@_NPEBUConEmuHotKey@@PEAVCRealConsole@@@Z 000000014002eee4 f   ConEmuCtrl.obj
 0001:0002df04       ?key_ShowStatusBar@CConEmuCtrl@@SA_NAEBUConEmuChord@@_NPEBUConEmuHotKey@@PEAVCRealConsole@@@Z 000000014002ef04 f   ConEmuCtrl.obj
 0001:0002df24       ?key_ShowTabBar@CConEmuCtrl@@SA_NAEBUConEmuChord@@_NPEBUConEmuHotKey@@PEAVCRealConsole@@@Z 000000014002ef24 f   ConEmuCtrl.obj
 0001:0002df3c       ?key_ShowTabsList@CConEmuCtrl@@SA_NAEBUConEmuChord@@_NPEBUConEmuHotKey@@PEAVCRealConsole@@@Z 000000014002ef3c f   ConEmuCtrl.obj
 0001:0002e020       ?key_SwitchGuiFocus@CConEmuCtrl@@SA_NAEBUConEmuChord@@_NPEBUConEmuHotKey@@PEAVCRealConsole@@@Z 000000014002f020 f   ConEmuCtrl.obj
 0001:0002e06c       ?key_SystemMenu@CConEmuCtrl@@SA_NAEBUConEmuChord@@_NPEBUConEmuHotKey@@PEAVCRealConsole@@@Z 000000014002f06c f   ConEmuCtrl.obj
 0001:0002e0e4       ?key_TabMenu@CConEmuCtrl@@SA_NAEBUConEmuChord@@_NPEBUConEmuHotKey@@PEAVCRealConsole@@@Z 000000014002f0e4 f   ConEmuCtrl.obj
 0001:0002e1a4       __acrt_uninitialize_command_line 000000014002f1a4 f   libucrt:argv_data.obj
 0001:0002e1a4       ?QueryDialogCancel@CSetPgBase@@UEAA_NXZ 000000014002f1a4 f   SetPgANSI.obj
 0001:0002e1a4       _should_initialize_environment 000000014002f1a4 f   LIBCMT:env_mode.obj
 0001:0002e1a4       ?AllowGeneralFetchOfReservedContexts@SchedulerBase@details@Concurrency@@MEAA_NXZ 000000014002f1a4 f   libconcrt:SchedulerBase.obj
 0001:0002e1a4       ?Filter@?$MToolHelp@UtagPROCESSENTRY32W@@$1?Process32FirstW@@YAHPEAXPEAU1@@Z$1?Process32NextW@@YAH01@Z@@MEAA_NPEAUtagPROCESSENTRY32W@@@Z 000000014002f1a4 f   common-kernel64:MProcess.obj
 0001:0002e1a4       ?SweepWaitNode@SingleWaitBlock@details@Concurrency@@UEAA_NXZ 000000014002f1a4 f   libconcrt:event.obj
 0001:0002e1a4       ?key_WinDragStart@CConEmuCtrl@@SA_NAEBUConEmuChord@@_NPEBUConEmuHotKey@@PEAVCRealConsole@@@Z 000000014002f1a4 f   ConEmuCtrl.obj
 0001:0002e1a8       ?key_WinHeightDec@CConEmuCtrl@@SA_NAEBUConEmuChord@@_NPEBUConEmuHotKey@@PEAVCRealConsole@@@Z 000000014002f1a8 f   ConEmuCtrl.obj
 0001:0002e1b8       ?key_WinHeightInc@CConEmuCtrl@@SA_NAEBUConEmuChord@@_NPEBUConEmuHotKey@@PEAVCRealConsole@@@Z 000000014002f1b8 f   ConEmuCtrl.obj
 0001:0002e1c8       ?key_WinSize@CConEmuCtrl@@SA_NE@Z 000000014002f1c8 f   ConEmuCtrl.obj
 0001:0002e35c       ?key_WinWidthDec@CConEmuCtrl@@SA_NAEBUConEmuChord@@_NPEBUConEmuHotKey@@PEAVCRealConsole@@@Z 000000014002f35c f   ConEmuCtrl.obj
 0001:0002e36c       ?key_WinWidthInc@CConEmuCtrl@@SA_NAEBUConEmuChord@@_NPEBUConEmuHotKey@@PEAVCRealConsole@@@Z 000000014002f36c f   ConEmuCtrl.obj
 0001:0002e37c       ??0CConEmuPipe@@QEAA@KK@Z  000000014002f37c f   ConEmuPipe.obj
 0001:0002e3e4       ??1CConEmuPipe@@QEAA@XZ    000000014002f3e4 f   ConEmuPipe.obj
 0001:0002e3f4       ?Close@CConEmuPipe@@QEAAXXZ 000000014002f3f4 f   ConEmuPipe.obj
 0001:0002e454       ?Execute@CConEmuPipe@@QEAAHHPEBXI@Z 000000014002f454 f   ConEmuPipe.obj
 0001:0002e7b8       ?GetPtr@CConEmuPipe@@QEAAPEAEPEAK@Z 000000014002f7b8 f   ConEmuPipe.obj
 0001:0002e7ec       ?Init@CConEmuPipe@@QEAAHPEB_WH@Z 000000014002f7ec f   ConEmuPipe.obj
 0001:0002e88c       ?Read@CConEmuPipe@@QEAAHPEAXKPEAK@Z 000000014002f88c f   ConEmuPipe.obj
 0001:0002e94c       ??$_Emplace_reallocate@AEBUMonitorInfoCache@CConEmuSize@@@?$vector@UMonitorInfoCache@CConEmuSize@@V?$MArrayAllocator@UMonitorInfoCache@CConEmuSize@@@@@std@@QEAAPEAUMonitorInfoCache@CConEmuSize@@QEAU23@AEBU23@@Z 000000014002f94c f i ConEmuSize.obj
 0001:0002eb3c       ??$emplace_back@AEBUMonitorInfoCache@CConEmuSize@@@?$vector@UMonitorInfoCache@CConEmuSize@@V?$MArrayAllocator@UMonitorInfoCache@CConEmuSize@@@@@std@@QEAAXAEBUMonitorInfoCache@CConEmuSize@@@Z 000000014002fb3c f i ConEmuSize.obj
 0001:0002ebc0       ??$swprintf_c@$0BBI@@@YAHAEAY0BBI@_WPEB_WZZ 000000014002fbc0 f i ConEmuSize.obj
 0001:0002ebec       ??$swprintf_c@$0CI@@@YAHAEAY0CI@_WPEB_WZZ 000000014002fbec f i ConEmuSize.obj
 0001:0002ec18       ??$swprintf_c@$0NM@@@YAHAEAY0NM@_WPEB_WZZ 000000014002fc18 f i ConEmuSize.obj
 0001:0002ec44       ??$wcscpy_c@$0BBI@@@YAHAEAY0BBI@_WPEB_W@Z 000000014002fc44 f i ConEmuSize.obj
 0001:0002ec90       ??0CConEmuSize@@QEAA@XZ    000000014002fc90 f   ConEmuSize.obj
 0001:0002ee88       ??1CConEmuSize@@UEAA@XZ    000000014002fe88 f   ConEmuSize.obj
 0001:0002eee0       ??1NestedCallCounter@@QEAA@XZ 000000014002fee0 f i ConEmuSize.obj
 0001:0002eee8       ??1ThickFrameDisabler@CConEmuSize@@QEAA@XZ 000000014002fee8 f   ConEmuSize.obj
 0001:0002eef8       ??_ECConEmuSize@@UEAAPEAXI@Z 000000014002fef8 f i ConEmuSize.obj
 0001:0002eef8       ??_GCConEmuSize@@UEAAPEAXI@Z 000000014002fef8 f i ConEmuSize.obj
 0001:0002ef2c       ?AddMargins@CConEmuSize@@SAXAEAUtagRECT@@AEBU2@W4RectOperations@@@Z 000000014002ff2c f   ConEmuSize.obj
 0001:0002eff8       ?AnimateWindow@CConEmuSize@@IEAAHKK@Z 000000014002fff8 f   ConEmuSize.obj
 0001:0002f188       ?AutoSizeFont@CConEmuSize@@QEAAXUtagRECT@@W4ConEmuRect@@@Z 0000000140030188 f   ConEmuSize.obj
 0001:0002f314       ?BeginSizing@CConEmuSize@@QEAAXXZ 0000000140030314 f   ConEmuSize.obj
 0001:0002f370       ?CalcMargins@CConEmuSize@@QEAA?AUtagRECT@@KW4ConEmuWindowMode@@@Z 0000000140030370 f   ConEmuSize.obj
 0001:0002f4dc       ?CalcMargins_FrameCaption@CConEmuSize@@IEBA?AUtagRECT@@KW4ConEmuWindowMode@@@Z 00000001400304dc f   ConEmuSize.obj
 0001:0002f6e0       ?CalcMargins_InvisibleFrame@CConEmuSize@@IEBA?AUtagRECT@@XZ 00000001400306e0 f   ConEmuSize.obj
 0001:0002f764       ?CalcMargins_Padding@CConEmuSize@@IEBA?AUtagRECT@@XZ 0000000140030764 f   ConEmuSize.obj
 0001:0002f794       ?CalcMargins_Scrolling@CConEmuSize@@IEBA?AUtagRECT@@XZ 0000000140030794 f   ConEmuSize.obj
 0001:0002f7cc       ?CalcMargins_StatusBar@CConEmuSize@@IEBA?AUtagRECT@@XZ 00000001400307cc f   ConEmuSize.obj
 0001:0002f7fc       ?CalcMargins_TabBar@CConEmuSize@@IEBA?AUtagRECT@@K@Z 00000001400307fc f   ConEmuSize.obj
 0001:0002f8b8       ?CalcMargins_VisibleFrame@CConEmuSize@@IEBA?AUtagRECT@@PEAU2@@Z 00000001400308b8 f   ConEmuSize.obj
 0001:0002f9d4       ?CalcMargins_Win10Frame@CConEmuSize@@IEBA?AUtagRECT@@XZ 00000001400309d4 f   ConEmuSize.obj
 0001:0002fa64       ?CalcRect@CConEmuSize@@QEAA?AUtagRECT@@W4ConEmuRect@@AEBU2@0PEAVCVirtualConsole@@W4ConEmuMargins@@@Z 0000000140030a64 f   ConEmuSize.obj
 0001:00030000       ?CalcRect@CConEmuSize@@QEAA?AUtagRECT@@W4ConEmuRect@@PEAVCVirtualConsole@@@Z 0000000140031000 f   ConEmuSize.obj
 0001:00030234       ?CascadedPosFix@CConEmuSize@@QEAAXXZ 0000000140031234 f   ConEmuSize.obj
 0001:00030488       ?ChangeTileMode@CConEmuSize@@QEAA_NW4ConEmuWindowCommand@@@Z 0000000140031488 f   ConEmuSize.obj
 0001:000308e4       ?CheckDpiOnMoving@CConEmuSize@@IEAA_NPEAUtagWINDOWPOS@@@Z 00000001400318e4 f   ConEmuSize.obj
 0001:00030a50       ?CheckQuakeRect@CConEmuSize@@IEAA_NPEAUtagRECT@@@Z 0000000140031a50 f   ConEmuSize.obj
 0001:00030c58       ?CheckTopMostState@CConEmuSize@@QEAAXXZ 0000000140031c58 f   ConEmuSize.obj
 0001:00030da4       ?CreateWindowRgn@CConEmuSize@@QEAAPEAUHRGN__@@XZ 0000000140031da4 f   ConEmuSize.obj
 0001:00031188       ?CreateWindowRgn@CConEmuSize@@QEAAPEAUHRGN__@@_NHHHH@Z 0000000140032188 f   ConEmuSize.obj
 0001:00031444       ?Disable@ThickFrameDisabler@CConEmuSize@@QEAAXXZ 0000000140032444 f   ConEmuSize.obj
 0001:00031474       ?DoAlwaysOnTopSwitch@CConEmuSize@@QEAAXXZ 0000000140032474 f   ConEmuSize.obj
 0001:00031570       ?DoBringHere@CConEmuSize@@QEAAXXZ 0000000140032570 f   ConEmuSize.obj
 0001:00031684       ?DoDesktopModeSwitch@CConEmuSize@@QEAAXXZ 0000000140032684 f   ConEmuSize.obj
 0001:00031764       ?DoForcedFullScreen@CConEmuSize@@QEAAX_N@Z 0000000140032764 f   ConEmuSize.obj
 0001:0003192c       ?DoFullScreen@CConEmuSize@@QEAAXXZ 000000014003292c f   ConEmuSize.obj
 0001:000319c0       ?DoMaximizeRestore@CConEmuSize@@QEAAXXZ 00000001400329c0 f   ConEmuSize.obj
 0001:00031a1c       ?DoMinimizeRestore@CConEmuSize@@QEAAXW4SingleInstanceShowHideType@@@Z 0000000140032a1c f   ConEmuSize.obj
 0001:00032634       ?Enable@ThickFrameDisabler@CConEmuSize@@QEAAXXZ 0000000140033634 f   ConEmuSize.obj
 0001:0003265c       ?EndSizing@CConEmuSize@@QEAAXI@Z 000000014003365c f   ConEmuSize.obj
 0001:000327b4       ?EvalNewNormalPos@CConEmuSize@@IEAAXAEBUtagMONITORINFO@@PEAUHMONITOR__@@0AEBUtagRECT@@AEAU4@@Z 00000001400337b4 f   ConEmuSize.obj
 0001:00032930       ?EvalTileMode@CConEmuSize@@QEAA?AW4ConEmuWindowCommand@@AEBUtagRECT@@PEAUtagMONITORINFO@@@Z 0000000140033930 f   ConEmuSize.obj
 0001:00032b54       ?EvalVConCreateSize@CConEmuSize@@QEAAXPEAVCVirtualConsole@@AEAI1@Z 0000000140033b54 f   ConEmuSize.obj
 0001:00032bd4       ?FindInitialMonitor@CConEmuSize@@AEAAPEAUHMONITOR__@@PEAUtagMONITORINFO@@@Z 0000000140033bd4 f   ConEmuSize.obj
 0001:00032cfc       ?FindNextSiblingApp@CConEmuSize@@QEAAPEAUHWND__@@_N@Z 0000000140033cfc f   ConEmuSize.obj
 0001:00032dec       ?FixPosByStartupMonitor@CConEmuSize@@IEAA_NQEAUHMONITOR__@@@Z 0000000140033dec f   ConEmuSize.obj
 0001:00033108       ?FixWindowRect@CConEmuSize@@IEAA_NAEAUtagRECT@@K_N@Z 0000000140034108 f   ConEmuSize.obj
 0001:00033618       ?FormatTileMode@CConEmuSize@@SAPEB_WW4ConEmuWindowCommand@@PEA_W_K@Z 0000000140034618 f   ConEmuSize.obj
 0001:00033724       ?GetDefaultRect@CConEmuSize@@QEAA?AUtagRECT@@XZ 0000000140034724 f   ConEmuSize.obj
 0001:00033a18       ?GetDefaultSize@CConEmuSize@@QEAA?AUtagSIZE@@_NPEBTCESize@@1PEAUHMONITOR__@@@Z 0000000140034a18 f   ConEmuSize.obj
 0001:00033fd4       ?GetIdealRect@CConEmuSize@@QEAA?AUtagRECT@@XZ 0000000140034fd4 f   ConEmuSize.obj
 0001:0003408c       ?GetInitialDpi@CConEmuSize@@QEAAHPEAUDpiValue@@@Z 000000014003508c f   ConEmuSize.obj
 0001:00034100       ?GetNearestMonitor@CConEmuSize@@QEAAPEAUHMONITOR__@@PEAUtagMONITORINFO@@PEBUtagRECT@@@Z 0000000140035100 f   ConEmuSize.obj
 0001:00034298       ?GetSelfFrameWidth@CConEmuSize@@QEBAIXZ 0000000140035298 f   ConEmuSize.obj
 0001:00034378       ?GetTileMode@CConEmuSize@@QEAA?AW4ConEmuWindowCommand@@_NPEAUtagMONITORINFO@@@Z 0000000140035378 f   ConEmuSize.obj
 0001:000344f4       ?GetTileRect@CConEmuSize@@QEBA?AUtagRECT@@W4ConEmuWindowCommand@@AEBUtagMONITORINFO@@@Z 00000001400354f4 f   ConEmuSize.obj
 0001:00034638       ?GetWindowMode@CConEmuSize@@QEBA?AW4ConEmuWindowMode@@XZ 0000000140035638 f   ConEmuSize.obj
 0001:00034658       ?InMinimizing@CConEmuSize@@QEAA_NPEAUtagWINDOWPOS@@@Z 0000000140035658 f   ConEmuSize.obj
 0001:000346d4       ?IsSizeFree@CConEmuSize@@QEAA_NW4ConEmuWindowMode@@@Z 00000001400356d4 f   ConEmuSize.obj
 0001:00034730       ?IsSizePosFree@CConEmuSize@@QEAA_NW4ConEmuWindowMode@@@Z 0000000140035730 f   ConEmuSize.obj
 0001:00034780       ?IsWindowModeChanging@CConEmuSize@@QEBA_NXZ 0000000140035780 f   ConEmuSize.obj
 0001:000347a0       ?JumpNextMonitor@CConEmuSize@@QEAA_NPEAUHWND__@@PEAUHMONITOR__@@_NUtagRECT@@PEAU4@@Z 00000001400357a0 f   ConEmuSize.obj
 0001:00034b58       ?JumpNextMonitor@CConEmuSize@@QEAA_N_N@Z 0000000140035b58 f   ConEmuSize.obj
 0001:00034cd4       ?LogMinimizeRestoreSkip@CConEmuSize@@QEAAXPEB_WKKK@Z 0000000140035cd4 f   ConEmuSize.obj
 0001:00034d2c       ?LogTileModeChange@CConEmuSize@@IEAAXPEB_WW4ConEmuWindowCommand@@_NAEBUtagRECT@@PEAU3@PEAUHMONITOR__@@@Z 0000000140035d2c f   ConEmuSize.obj
 0001:00034f2c       ?NearestMonitorInfo@CConEmuSize@@QEBA?AUMonitorInfoCache@1@AEBUtagRECT@@@Z 0000000140035f2c f   ConEmuSize.obj
 0001:00034f68       ?NearestMonitorInfo@CConEmuSize@@QEBA?AUMonitorInfoCache@1@PEAUHMONITOR__@@@Z 0000000140035f68 f   ConEmuSize.obj
 0001:000350b8       ?OnConsoleResize@CConEmuSize@@QEAAXXZ 00000001400360b8 f   ConEmuSize.obj
 0001:00035264       ?OnDisplayChanged@CConEmuSize@@QEAA_JIII@Z 0000000140036264 f   ConEmuSize.obj
 0001:000352d0       ?OnDpiChanged@CConEmuSize@@QEAA_JIIPEAUtagRECT@@_NW4DpiChangeSource@@@Z 00000001400362d0 f   ConEmuSize.obj
 0001:000356a0       ?OnDpiChangedCall@CConEmuSize@@KA_J_J@Z 00000001400366a0 f   ConEmuSize.obj
 0001:000356d8       ?OnGetMinMaxInfo@CConEmuSize@@QEAA_JPEAUtagMINMAXINFO@@@Z 00000001400366d8 f   ConEmuSize.obj
 0001:00035bf8       ?OnMoving@CConEmuSize@@QEAA_JPEAUtagRECT@@_N@Z 0000000140036bf8 f   ConEmuSize.obj
 0001:000360f8       ?OnSize@CConEmuSize@@QEAA_J_N_K@Z 00000001400370f8 f   ConEmuSize.obj
 0001:000362c4       ?OnSizePanels@CConEmuSize@@QEAAXU_COORD@@@Z 00000001400372c4 f   ConEmuSize.obj
 0001:000366a0       ?OnSizing@CConEmuSize@@QEAA_J_K_J@Z 00000001400376a0 f   ConEmuSize.obj
 0001:000369c0       ?OnWindowPosChanged@CConEmuSize@@QEAA_JPEAUHWND__@@I_K_J@Z 00000001400379c0 f   ConEmuSize.obj
 0001:00036e90       ?OnWindowPosChanging@CConEmuSize@@QEAA_JPEAUHWND__@@I_K_J@Z 0000000140037e90 f   ConEmuSize.obj
 0001:0003744c       ?ReSize@CConEmuSize@@QEAAX_N@Z 000000014003844c f   ConEmuSize.obj
 0001:00037624       ?RealPosFromVisual@CConEmuSize@@IEAA?AUtagPOINT@@HH@Z 0000000140038624 f   ConEmuSize.obj
 0001:00037670       ?RecreateControls@CConEmuSize@@QEAAX_N00PEAUtagRECT@@@Z 0000000140038670 f   ConEmuSize.obj
 0001:00037758       ?ReloadMonitorInfo@CConEmuSize@@QEAAXXZ 0000000140038758 f   ConEmuSize.obj
 0001:000381dc       ?Set@CESize@@QEAA_N_NW4CESizeStyle@@H@Z 00000001400391dc f i ConEmuSize.obj
 0001:00038254       ?SetFromString@CESize@@QEAA_N_NPEB_W@Z 0000000140039254 f i ConEmuSize.obj
 0001:000382ec       ?SetIgnoreQuakeActivation@CConEmuSize@@QEAAX_N@Z 00000001400392ec f   ConEmuSize.obj
 0001:0003830c       ?SetNormalWindowSize@CConEmuSize@@IEAA?AUtagRECT@@XZ 000000014003930c f   ConEmuSize.obj
 0001:000383dc       ?SetQuakeMode@CConEmuSize@@QEAA_NEW4ConEmuWindowMode@@_N@Z 00000001400393dc f   ConEmuSize.obj
 0001:00038714       ?SetRequestedMonitor@CConEmuSize@@QEAAXPEAUHMONITOR__@@@Z 0000000140039714 f   ConEmuSize.obj
 0001:000388d8       ?SetTileMode@CConEmuSize@@IEAAXW4ConEmuWindowCommand@@@Z 00000001400398d8 f   ConEmuSize.obj
 0001:00038990       ?SetWindowMode@CConEmuSize@@QEAA_NW4ConEmuWindowMode@@_N1@Z 0000000140039990 f   ConEmuSize.obj
 0001:00039724       ?SetWindowPosSize@CConEmuSize@@QEAA_NPEB_W000@Z 000000014003a724 f   ConEmuSize.obj
 0001:00039bd0       ?SetWindowPosSizeParam@CConEmuSize@@QEAAX_WPEB_W@Z 000000014003abd0 f   ConEmuSize.obj
 0001:00039ccc       ?ShowMainWindow@CConEmuSize@@QEAA_NH_N@Z 000000014003accc f   ConEmuSize.obj
 0001:00039f40       ?SizeWindow@CConEmuSize@@QEAA_NTCESize@@0@Z 000000014003af40 f   ConEmuSize.obj
 0001:0003a0cc       ?StartForceShowFrame@CConEmuSize@@QEAAXXZ 000000014003b0cc f   ConEmuSize.obj
 0001:0003a134       ?StopForceShowFrame@CConEmuSize@@QEAAXXZ 000000014003b134 f   ConEmuSize.obj
 0001:0003a198       ?StoreNormalRect@CConEmuSize@@IEAAXPEBUtagRECT@@@Z 000000014003b198 f   ConEmuSize.obj
 0001:0003a5c4       ?StorePreMinimizeMonitor@CConEmuSize@@QEAAXXZ 000000014003b5c4 f   ConEmuSize.obj
 0001:0003a5f8       ?UpdateInsideRect@CConEmuSize@@QEAAXUtagRECT@@@Z 000000014003b5f8 f   ConEmuSize.obj
 0001:0003a62c       ?UpdateWindowRgn@CConEmuSize@@QEAAXXZ 000000014003b62c f   ConEmuSize.obj
 0001:0003a7bc       ?VisualPosFromReal@CConEmuSize@@IEAA?AUtagPOINT@@HH@Z 000000014003b7bc f   ConEmuSize.obj
 0001:0003a854       ?isCaptionHidden@CConEmuSize@@QEBA_NW4ConEmuWindowMode@@@Z 000000014003b854 f   ConEmuSize.obj
 0001:0003a8c4       ?isFullScreen@CConEmuSize@@QEAA_NXZ 000000014003b8c4 f   ConEmuSize.obj
 0001:0003a904       ?isIconic@CConEmuSize@@QEAA_N_N@Z 000000014003b904 f   ConEmuSize.obj
 0001:0003a9dc       ?isSelfFrame@CConEmuSize@@QEBA_NW4ConEmuWindowMode@@@Z 000000014003b9dc f   ConEmuSize.obj
 0001:0003aa80       ?isSizing@CConEmuSize@@QEAA_NI@Z 000000014003ba80 f   ConEmuSize.obj
 0001:0003aad0       ?isWin10InvisibleFrame@CConEmuSize@@QEBA_NW4ConEmuWindowMode@@@Z 000000014003bad0 f   ConEmuSize.obj
 0001:0003ab08       ?isWindowNormal@CConEmuSize@@QEAA_NXZ 000000014003bb08 f   ConEmuSize.obj
 0001:0003ab5c       ?isZoomed@CConEmuSize@@QEAA_NXZ 000000014003bb5c f   ConEmuSize.obj
 0001:0003ab9c       ?setWindowPos@CConEmuSize@@QEAA_NPEAUHWND__@@HHHHI@Z 000000014003bb9c f   ConEmuSize.obj
 0001:0003ad60       ??$swprintf_c@$0BCE@@@YAHAEAY0BCE@_WPEB_WZZ 000000014003bd60 f i ConEmuStart.obj
 0001:0003ad8c       ??0CConEmuStart@@QEAA@PEAVCConEmuMain@@@Z 000000014003bd8c f   ConEmuStart.obj
 0001:0003ae44       ??0StartOptions@CConEmuStart@@QEAA@XZ 000000014003be44 f i ConEmuStart.obj
 0001:0003b140       ??1CConEmuStart@@UEAA@XZ   000000014003c140 f   ConEmuStart.obj
 0001:0003b17c       ??1CESwitch@@QEAA@XZ       000000014003c17c f   ConEmuStart.obj
 0001:0003b18c       ??1StartOptions@CConEmuStart@@QEAA@XZ 000000014003c18c f i ConEmuStart.obj
 0001:0003b3a0       ?GetBool@CESwitch@@QEAA_NXZ 000000014003c3a0 f   ConEmuStart.obj
 0001:0003b3a0       ??BCESwitch@@QEAA_NXZ      000000014003c3a0 f   ConEmuStart.obj
 0001:0003b3b0       ??_GCConEmuStart@@UEAAPEAXI@Z 000000014003c3b0 f i ConEmuStart.obj
 0001:0003b3b0       ??_ECConEmuStart@@UEAAPEAXI@Z 000000014003c3b0 f i ConEmuStart.obj
 0001:0003b3e4       ?Clear@CESwitch@@QEAAXXZ   000000014003c3e4 f   ConEmuStart.obj
 0001:0003b414       ?FindBashLocation@CConEmuStart@@QEAA_NAEAUCEStr@@@Z 000000014003c414 f   ConEmuStart.obj
 0001:0003b52c       ?GetCfgParm@CConEmuStart@@IEAA_NAEAPEB_WAEAUCESwitch@@H_N@Z 000000014003c52c f   ConEmuStart.obj
 0001:0003b6d0       ?GetCmd@CConEmuStart@@QEAAPEB_WPEA_N_N@Z 000000014003c6d0 f   ConEmuStart.obj
 0001:0003ba94       ?GetCurCmd@CConEmuStart@@QEAAPEB_WPEA_N@Z 000000014003ca94 f   ConEmuStart.obj
 0001:0003bae8       ?GetDefaultCmd@CConEmuStart@@QEAAPEB_WXZ 000000014003cae8 f   ConEmuStart.obj
 0001:0003baf0       ?GetDefaultTask@CConEmuStart@@QEAAPEB_WXZ 000000014003caf0 f   ConEmuStart.obj
 0001:0003bb58       ?GetInt@CESwitch@@QEAAHXZ  000000014003cb58 f   ConEmuStart.obj
 0001:0003bb68       ?GetStr@CESwitch@@QEAAPEB_WXZ 000000014003cb68 f   ConEmuStart.obj
 0001:0003bb8c       ?ParseCommandLine@CConEmuStart@@QEAA_NPEB_WAEAH@Z 000000014003cb8c f   ConEmuStart.obj
 0001:0003e3ec       ?ProcessConEmuArgsVar@CConEmuStart@@IEAAXXZ 000000014003f3ec f   ConEmuStart.obj
 0001:0003e4cc       ?ResetCmdArg@CConEmuStart@@QEAAXXZ 000000014003f4cc f   ConEmuStart.obj
 0001:0003e4e8       ?ResetConman@CConEmuStart@@QEAAXXZ 000000014003f4e8 f   ConEmuStart.obj
 0001:0003e55c       ?SetCurCmd@CConEmuStart@@QEAAXPEB_W_N@Z 000000014003f55c f   ConEmuStart.obj
 0001:0003e590       ?SetDefaultCmd@CConEmuStart@@QEAAXPEB_W@Z 000000014003f590 f   ConEmuStart.obj
 0001:0003e664       ?SetInt@CESwitch@@QEAAXH@Z 000000014003f664 f   ConEmuStart.obj
 0001:0003e678       ?SetInt@CESwitch@@QEAAXPEB_WH@Z 000000014003f678 f   ConEmuStart.obj
 0001:0003e6b0       ?SetStr@CESwitch@@QEAAXPEB_WW4CESwitchType@@@Z 000000014003f6b0 f   ConEmuStart.obj
 0001:0003e71c       ??$wcscpy_c@$0IA@@@YAHAEAY0IA@_WPEB_W@Z 000000014003f71c f i ConfirmDlg.obj
 0001:0003e768       ?ConfirmCloseConsoles@@YAHAEBUConfirmCloseParam@@@Z 000000014003f768 f   ConfirmDlg.obj
 0001:0003edb8       ?ConfirmDialog@@YAHPEB_W000IPEAUHWND__@@000000@Z 000000014003fdb8 f   ConfirmDlg.obj
 0001:0003f4d4       ?TaskDialog@@YAJPEAU_TASKDIALOGCONFIG@@PEAH1PEA_N@Z 00000001400404d4 f   ConfirmDlg.obj
 0001:0003f6b0       ??1CAdjustProcessToken@@QEAA@XZ 00000001400406b0 f i CreateProcess.obj
 0001:0003f6d8       ?CreateProcessDemoted@@YAHPEA_WPEAU_SECURITY_ATTRIBUTES@@1HKPEAXPEB_WPEAU_STARTUPINFOW@@PEAU_PROCESS_INFORMATION@@PEAK@Z 00000001400406d8 f   CreateProcess.obj
 0001:0003f904       ?CreateProcessInteractive@@YAHKPEB_WPEA_WPEAU_SECURITY_ATTRIBUTES@@2HKPEAX0PEAU_STARTUPINFOW@@PEAU_PROCESS_INFORMATION@@PEAK@Z 0000000140040904 f   CreateProcess.obj
 0001:0003fe8c       ?CreateProcessRestricted@@YAHPEB_WPEA_WPEAU_SECURITY_ATTRIBUTES@@2HKPEAX0PEAU_STARTUPINFOW@@PEAU_PROCESS_INFORMATION@@PEAK@Z 0000000140040e8c f   CreateProcess.obj
 0001:00040018       ?CreateProcessSystem@@YAHKPEA_WPEAU_SECURITY_ATTRIBUTES@@1HKPEAXPEB_WPEAU_STARTUPINFOW@@PEAU_PROCESS_INFORMATION@@PEAK@Z 0000000140041018 f   CreateProcess.obj
 0001:0004008c       ?Enable@CAdjustProcessToken@@QEAAHHZZ 000000014004108c f i CreateProcess.obj
 0001:00040108       ?Enable@CAdjustProcessToken@@QEAAHPEAPEB_WH@Z 0000000140041108 f i CreateProcess.obj
 0001:0004022c       ?Release@CAdjustProcessToken@@QEAAXXZ 000000014004122c f i CreateProcess.obj
 0001:0004029c       ??0CEDC@@QEAA@PEAUHDC__@@@Z 000000014004129c f   CustomFonts.obj
 0001:00040308       ??1CachedSolidBrush@@QEAA@XZ 0000000140041308 f   CustomFonts.obj
 0001:00040320       ??1CustomFontFamily@@QEAA@XZ 0000000140041320 f   CustomFonts.obj
 0001:00040360       ??_EBDFFont@@UEAAPEAXI@Z   0000000140041360 f i CustomFonts.obj
 0001:00040360       ??_GBDFFont@@UEAAPEAXI@Z   0000000140041360 f i CustomFonts.obj
 0001:000403d0       ??_GCustomFont@@UEAAPEAXI@Z 00000001400413d0 f i CustomFonts.obj
 0001:000403d0       ??_ECustomFont@@UEAAPEAXI@Z 00000001400413d0 f i CustomFonts.obj
 0001:000403fc       ?AddFont@CustomFontFamily@@QEAAXPEAVCustomFont@@@Z 00000001400413fc f   CustomFonts.obj
 0001:0004047c       ?BDF_GetFamilyName@@YAHPEB_WAEAY0CA@_W@Z 000000014004147c f   CustomFonts.obj
 0001:000404c0       ?BDF_Load@@YAPEAVCustomFont@@PEB_W@Z 00000001400414c0 f   CustomFonts.obj
 0001:000404c8       ?Create@CEDC@@QEAA_NII@Z   00000001400414c8 f   CustomFonts.obj
 0001:000406b4       ?CreateBitmap@BDFFont@@AEAAXXZ 00000001400416b4 f i CustomFonts.obj
 0001:000407e0       ?Delete@CEDC@@QEAAXXZ      00000001400417e0 f   CustomFonts.obj
 0001:0004084c       ?Get@CachedSolidBrush@@QEAAPEAUHBRUSH__@@K@Z 000000014004184c f   CustomFonts.obj
 0001:00040884       ?GetBoundingBox@BDFFont@@UEAAXPEAJ0@Z 0000000140041884 f i CustomFonts.obj
 0001:00040890       ?GetFamilyName@BDFFont@@SA_NPEB_WAEAY0CA@_W@Z 0000000140041890 f i CustomFonts.obj
 0001:00040a60       ?GetFont@CustomFontFamily@@QEAAPEAVCustomFont@@HHHH@Z 0000000140041a60 f   CustomFonts.obj
 0001:00040b94       ?GetSize@BDFFont@@UEAAHXZ  0000000140041b94 f i CustomFonts.obj
 0001:00040bb4       ?HasBorders@BDFFont@@UEAAHXZ 0000000140041bb4 f i CustomFonts.obj
 0001:00040bbc       ?HasUnicode@BDFFont@@UEAAHXZ 0000000140041bbc f i CustomFonts.obj
 0001:00040bc4       ?IsBold@BDFFont@@UEAAHXZ   0000000140041bc4 f i CustomFonts.obj
 0001:00040bcc       ?GetContextKind@ThreadInternalContext@details@Concurrency@@UEBA?AW4ContextKind@ContextBase@23@XZ 0000000140041bcc f i libconcrt:ThreadScheduler.obj
 0001:00040bcc       ?GetPageType@CSetPgFonts@@UEAA?AW4TabHwndIndex@@XZ 0000000140041bcc f i SetPgFonts.obj
 0001:00040bcc       _get_startup_argv_mode     0000000140041bcc f i LIBCMT:argv_mode.obj
 0001:00040bcc       ?IsMonospace@BDFFont@@UEAAHXZ 0000000140041bcc f i CustomFonts.obj
 0001:00040bd4       ?Load@BDFFont@@SAPEAV1@PEB_W@Z 0000000140041bd4 f i CustomFonts.obj
 0001:000411e4       ?LoadBuffer@BDFFont@@SAPEADPEB_WAEAPEAD1@Z 00000001400421e4 f i CustomFonts.obj
 0001:000412e0       ?Reset@CEDC@@AEAAXXZ       00000001400422e0 f   CustomFonts.obj
 0001:0004131c       ?SelectFont@CEDC@@QEAAXPEAVCFont@@@Z 000000014004231c f   CustomFonts.obj
 0001:000413cc       ?SetBkColor@CEDC@@QEAAXK@Z 00000001400423cc f   CustomFonts.obj
 0001:00041420       ?SetBkMode@CEDC@@QEAAXH@Z  0000000140042420 f   CustomFonts.obj
 0001:00041474       ?SetTextColor@CEDC@@QEAAXK@Z 0000000140042474 f   CustomFonts.obj
 0001:000414c8       ?TextDraw@BDFFont@@UEAAXPEAK_KKKPEB_WI@Z 00000001400424c8 f i CustomFonts.obj
 0001:00041618       ?TextDraw@BDFFont@@UEAAXPEAUHDC__@@HHPEB_WI@Z 0000000140042618 f i CustomFonts.obj
 0001:000416c0       ?TextDraw@CEDC@@QEAA_NHHIPEBUtagRECT@@PEB_WIPEBH@Z 00000001400426c0 f   CustomFonts.obj
 0001:000418ec       ?TextDrawOem@CEDC@@QEAA_NHHIPEBUtagRECT@@PEBDIPEBH@Z 00000001400428ec f   CustomFonts.obj
 0001:00041a40       ?TextExtentPoint@CEDC@@QEAA_NPEB_WHPEAUtagSIZE@@@Z 0000000140042a40 f   CustomFonts.obj
 0001:00041b10       ??0CDefTermBase@@QEAA@_N@Z 0000000140042b10 f i DefaultTerm.obj
 0001:00041c08       ??0CDefaultTerminal@@QEAA@XZ 0000000140042c08 f   DefaultTerm.obj
 0001:00041c30       ??1CDefTermBase@@UEAA@XZ   0000000140042c30 f i DefaultTerm.obj
 0001:00041ce4       ??1CDefaultTerminal@@UEAA@XZ 0000000140042ce4 f   DefaultTerm.obj
 0001:00041d24       ??1CEDefTermOpt@@QEAA@XZ   0000000140042d24 f i DefaultTerm.obj
 0001:00041d80       ??_GCDefTermBase@@UEAAPEAXI@Z 0000000140042d80 f i DefaultTerm.obj
 0001:00041d80       ??_ECDefTermBase@@UEAAPEAXI@Z 0000000140042d80 f i DefaultTerm.obj
 0001:00041db4       ??_ECDefaultTerminal@@UEAAPEAXI@Z 0000000140042db4 f i DefaultTerm.obj
 0001:00041db4       ??_GCDefaultTerminal@@UEAAPEAXI@Z 0000000140042db4 f i DefaultTerm.obj
 0001:00041de8       ?ApplyAndSave@CDefaultTerminal@@QEAAX_N0@Z 0000000140042de8 f   DefaultTerm.obj
 0001:00041e20       ?AutoClearThreads@CDefTermBase@@MEAAXXZ 0000000140042e20 f i DefaultTerm.obj
 0001:00041e28       ?AutoClearThreads@CDefaultTerminal@@MEAAXXZ 0000000140042e28 f   DefaultTerm.obj
 0001:00041e4c       ?CheckRegisterOsStartup@CDefaultTerminal@@QEAAXXZ 0000000140042e4c f   DefaultTerm.obj
 0001:0004203c       ?ClearThreads@CDefTermBase@@IEAAX_N@Z 000000014004303c f i DefaultTerm.obj
 0001:000420fc       ?ConhostLocker@CDefaultTerminal@@MEAAX_NAEA_N@Z 00000001400430fc f   DefaultTerm.obj
 0001:00042138       ?DisplayLastError@CDefaultTerminal@@MEAAHPEB_WKK0PEAUHWND__@@@Z 0000000140043138 f   DefaultTerm.obj
 0001:00042160       ?Initialize@CDefTermBase@@IEAAX_N00@Z 0000000140043160 f i DefaultTerm.obj
 0001:00042378       ?IsRegisteredOsStartup@CDefaultTerminal@@QEAA_NPEAUCEStr@@PEA_N@Z 0000000140043378 f   DefaultTerm.obj
 0001:0004244c       ?LogHookingStatus@CDefaultTerminal@@UEAAXKPEB_W@Z 000000014004344c f   DefaultTerm.obj
 0001:000424fc       ?NotifyHookingStatus@CDefaultTerminal@@MEAA_NKPEB_W@Z 00000001400434fc f   DefaultTerm.obj
 0001:000425d8       ?OnTaskbarCreated@CDefaultTerminal@@QEAAXXZ 00000001400435d8 f   DefaultTerm.obj
 0001:000425fc       ?PostCreatedThread@CDefTermBase@@KAKPEAX@Z 00000001400435fc f i DefaultTerm.obj
 0001:0004262c       ?PreCreateThread@CDefaultTerminal@@MEAAXXZ 000000014004362c f   DefaultTerm.obj
 0001:0004264c       ?ReloadSettings@CDefaultTerminal@@MEAAXXZ 000000014004364c f   DefaultTerm.obj
 0001:000427a4       ?Serialize@CEDefTermOpt@@QEAA_N_N@Z 00000001400437a4 f i DefaultTerm.obj
 0001:00042da4       ?ShowTrayIconError@CDefaultTerminal@@MEAAXPEB_W@Z 0000000140043da4 f   DefaultTerm.obj
 0001:00042db8       ?StartGuiDefTerm@CDefaultTerminal@@QEAAX_N0@Z 0000000140043db8 f   DefaultTerm.obj
 0001:00042e18       ?StopHookers@CDefTermBase@@MEAAXXZ 0000000140043e18 f i DefaultTerm.obj
 0001:00042e44       ?erase@?$MArray@UThreadHandle@CDefTermBase@@@@QEAAX_J0@Z 0000000140043e44 f i DefaultTerm.obj
 0001:00042e44       ?erase@?$MArray@UTabIconCache@CIconList@@@@QEAAX_J0@Z 0000000140043e44 f i IconList.obj
 0001:00042e44       ?erase@?$MArray@U_ThInfo@CDragDrop@@@@QEAAX_J0@Z 0000000140043e44 f i DragDrop.obj
 0001:00042ebc       ?isDefaultTerminalAllowed@CDefaultTerminal@@UEAA_N_N@Z 0000000140043ebc f   DefaultTerm.obj
 0001:00042ee4       ?isLogging@CDefaultTerminal@@UEAA_NXZ 0000000140043ee4 f   DefaultTerm.obj
 0001:00042f04       ?GetNumber@CDlgItemHelper@@SAHPEAUHWND__@@GHH@Z 0000000140043f04 f   DlgItemHelper.obj
 0001:00042fcc       ?GetString@CDlgItemHelper@@SA_JPEAUHWND__@@GPEAPEA_WPEB_W_N@Z 0000000140043fcc f   DlgItemHelper.obj
 0001:0004315c       ?InvalidateCtrl@CDlgItemHelper@@SAXPEAUHWND__@@H@Z 000000014004415c f   DlgItemHelper.obj
 0001:00043168       ?OpenHyperlink@CDlgItemHelper@@SA_NAEAUCEStr@@PEAUHWND__@@@Z 0000000140044168 f   DlgItemHelper.obj
 0001:000431c8       ?ProcessHyperlinkCtrl@CDlgItemHelper@@SA_NPEAUHWND__@@G@Z 00000001400441c8 f   DlgItemHelper.obj
 0001:000432b8       ?checkDlgButton@CDlgItemHelper@@SA_NPEAUHWND__@@GI@Z 00000001400442b8 f   DlgItemHelper.obj
 0001:000432d0       ?checkRadioButton@CDlgItemHelper@@SA_NPEAUHWND__@@HHH@Z 00000001400442d0 f   DlgItemHelper.obj
 0001:000432e4       ?enableDlgItem@CDlgItemHelper@@SAXPEAUHWND__@@G_N@Z 00000001400442e4 f   DlgItemHelper.obj
 0001:00043308       ?enableDlgItems@CDlgItemHelper@@SAXPEAUHWND__@@PEAI_J_N@Z 0000000140044308 f   DlgItemHelper.obj
 0001:000433bc       ?isChecked2@CDlgItemHelper@@SA_NPEAUHWND__@@G@Z 00000001400443bc f   DlgItemHelper.obj
 0001:000433d0       ?isChecked@CDlgItemHelper@@SAEPEAUHWND__@@G@Z 00000001400443d0 f   DlgItemHelper.obj
 0001:000433fc       ?isHyperlinkCtrl@CDlgItemHelper@@SA_NG@Z 00000001400443fc f   DlgItemHelper.obj
 0001:0004342c       ??0DontEnable@@QEAA@_N@Z   000000014004442c f   DontEnable.obj
 0001:00043470       ??1DontEnable@@QEAA@XZ     0000000140044470 f   DontEnable.obj
 0001:00043488       ?isDontEnable@DontEnable@@SA_NXZ 0000000140044488 f   DontEnable.obj
 0001:00043494       ??$_Emplace_reallocate@AEBUDlgItem@CDpiForDialog@@@?$vector@UDlgItem@CDpiForDialog@@V?$MArrayAllocator@UDlgItem@CDpiForDialog@@@@@std@@QEAAPEAUDlgItem@CDpiForDialog@@QEAU23@AEBU23@@Z 0000000140044494 f i DpiAware.obj
 0001:00043494       ??$_Emplace_reallocate@AEBULngDefinition@CLngRc@@@?$vector@ULngDefinition@CLngRc@@V?$MArrayAllocator@ULngDefinition@CLngRc@@@@@std@@QEAAPEAULngDefinition@CLngRc@@QEAU23@AEBU23@@Z 0000000140044494 f i LngRc.obj
 0001:00043494       ??$_Emplace_reallocate@AEBUHighlightRect@CVirtualConsole@@@?$vector@UHighlightRect@CVirtualConsole@@V?$MArrayAllocator@UHighlightRect@CVirtualConsole@@@@@std@@QEAAPEAUHighlightRect@CVirtualConsole@@QEAU23@AEBU23@@Z 0000000140044494 f i VirtualConsole.obj
 0001:0004361c       ??0CDpiForDialog@@IEAA@XZ  000000014004461c f   DpiAware.obj
 0001:000436b4       ??0DpiValue@@QEAA@HH@Z     00000001400446b4 f   DpiAware.obj
 0001:000436c0       ??0DpiValue@@QEAA@XZ       00000001400446c0 f   DpiAware.obj
 0001:000436d0       ??1CDpiForDialog@@QEAA@XZ  00000001400446d0 f   DpiAware.obj
 0001:00043724       ?Attach@CDpiForDialog@@QEAA_NPEAUHWND__@@0PEAVCDynDialog@@@Z 0000000140044724 f   DpiAware.obj
 0001:000439a0       ?CenterDialog@CDpiAware@@SAXPEAUHWND__@@@Z 00000001400449a0 f   DpiAware.obj
 0001:00043a8c       ?Create@CDpiForDialog@@SA_NAEAPEAV1@@Z 0000000140044a8c f   DpiAware.obj
 0001:00043ae0       ?Detach@CDpiForDialog@@QEAAXXZ 0000000140044ae0 f   DpiAware.obj
 0001:00043b90       ?FromWParam@DpiValue@@SA?AU1@_K@Z 0000000140044b90 f   DpiAware.obj
 0001:00043bbc       ?GetCenteredRect@CDpiAware@@SAXPEAUHWND__@@AEAUtagRECT@@PEAUHMONITOR__@@@Z 0000000140044bbc f   DpiAware.obj
 0001:00043c5c       ?GetCurDpi@CDpiForDialog@@QEBAAEBUDpiValue@@XZ 0000000140044c5c f   DpiAware.obj
 0001:00043c64       ?GetFontSizeForDpi@CDpiForDialog@@IEAAHPEAUHDC__@@H@Z 0000000140044c64 f   DpiAware.obj
 0001:00043c9c       ?GetNext@?$MMap@HPEAV?$MArray@UDlgItem@CDpiForDialog@@@@$0A@@@QEAA_NPEBHPEAHPEAPEAV?$MArray@UDlgItem@CDpiForDialog@@@@@Z 0000000140044c9c f i DpiAware.obj
 0001:00043d78       ?IsPerMonitorDpi@CDpiAware@@SA_NXZ 0000000140044d78 f   DpiAware.obj
 0001:00043e54       ?LoadDialogItems@CDpiForDialog@@KAPEAV?$MArray@UDlgItem@CDpiForDialog@@@@PEAUHWND__@@@Z 0000000140044e54 f   DpiAware.obj
 0001:00043fe0       ?ProcessDpiMessages@CDpiForDialog@@QEAA_NPEAUHWND__@@I_K_J@Z 0000000140044fe0 f   DpiAware.obj
 0001:00044038       ?QueryDpi@CDpiAware@@SAHPEAUHWND__@@PEAUDpiValue@@@Z 0000000140045038 f   DpiAware.obj
 0001:00044090       ?QueryDpiForMonitor@CDpiAware@@SAHPEAUHMONITOR__@@PEAUDpiValue@@W4MonitorDpiType@@@Z 0000000140045090 f   DpiAware.obj
 0001:00044204       ?QueryDpiForRect@CDpiAware@@SAHAEBUtagRECT@@PEAUDpiValue@@W4MonitorDpiType@@@Z 0000000140045204 f   DpiAware.obj
 0001:00044238       ?QueryDpiForWindow@CDpiAware@@SAHPEAUHWND__@@PEAUDpiValue@@@Z 0000000140045238 f   DpiAware.obj
 0001:000442c4       ?SetDialogDPI@CDpiForDialog@@QEAA_NAEBUDpiValue@@PEAUtagRECT@@@Z 00000001400452c4 f   DpiAware.obj
 0001:00044b98       ?SetDpi@DpiValue@@QEAAXAEBU1@@Z 0000000140045b98 f   DpiAware.obj
 0001:00044ba8       ?SetDpi@DpiValue@@QEAAXHH@Z 0000000140045ba8 f   DpiAware.obj
 0001:00044bb0       ?UpdateStartupInfo@CDpiAware@@SAXPEAUCEStartupEnv@@@Z 0000000140045bb0 f   DpiAware.obj
 0001:00044c68       ?setProcessDPIAwareness@CDpiAware@@SAJXZ 0000000140045c68 f   DpiAware.obj
 0001:00044cdc       ??$SafeDelete@U_ShlOpInfo@CDragDrop@@@@YAXAEAPEAU_ShlOpInfo@CDragDrop@@@Z 0000000140045cdc f i DragDrop.obj
 0001:00044d0c       ??0CDragDrop@@QEAA@XZ      0000000140045d0c f   DragDrop.obj
 0001:00044dd0       ??1CDragDrop@@UEAA@XZ      0000000140045dd0 f   DragDrop.obj
 0001:00044fcc       ??_ECDragDrop@@WBA@EAAPEAXI@Z 0000000140045fcc f i DragDrop.obj
 0001:00044fd8       ??_GCDragDrop@@UEAAPEAXI@Z 0000000140045fd8 f i DragDrop.obj
 0001:00044fd8       ??_ECDragDrop@@UEAAPEAXI@Z 0000000140045fd8 f i DragDrop.obj
 0001:0004500c       ?CreateLink@CDragDrop@@QEAAJPEB_W00@Z 000000014004600c f   DragDrop.obj
 0001:000450d4       ?Drag@CDragDrop@@QEAAXHU_COORD@@@Z 00000001400460d4 f   DragDrop.obj
 0001:000451c4       ?DragEnter@CDragDrop@@UEAAJPEAUIDataObject@@KU_POINTL@@PEAK@Z 00000001400461c4 f   DragDrop.obj
 0001:00045304       ?DragLeave@CDragDrop@@UEAAJXZ 0000000140046304 f   DragDrop.obj
 0001:00045334       ?DragOver@CDragDrop@@UEAAJKU_POINTL@@PEAK@Z 0000000140046334 f   DragDrop.obj
 0001:000453e0       ?DragOverInt@CDragDrop@@IEAAJKU_POINTL@@PEAK@Z 00000001400463e0 f   DragDrop.obj
 0001:000456a4       ?DragStart@CDragDrop@@IEAAKPEAUIDropSource@@KAEAK@Z 00000001400466a4 f   DragDrop.obj
 0001:000457ac       ?Drop@CDragDrop@@UEAAJPEAUIDataObject@@KU_POINTL@@PEAK@Z 00000001400467ac f   DragDrop.obj
 0001:00045a90       ?DropFromStream@CDragDrop@@IEAAJPEAUIDataObject@@H@Z 0000000140046a90 f   DragDrop.obj
 0001:0004632c       ?DropFromText@CDragDrop@@IEAAJPEAUIDataObject@@@Z 000000014004732c f   DragDrop.obj
 0001:0004642c       ?DropLinks@CDragDrop@@IEAAJPEAUHDROP__@@HH@Z 000000014004742c f   DragDrop.obj
 0001:00046638       ?DropNames@CDragDrop@@IEAAJPEAUHDROP__@@HH@Z 0000000140047638 f   DragDrop.obj
 0001:00046e00       ?DropShellOp@CDragDrop@@IEAAJPEAUIDataObject@@PEAKAEAUtagSTGMEDIUM@@HH@Z 0000000140047e00 f   DragDrop.obj
 0001:0004728c       ?FileCreateName@CDragDrop@@IEAAPEA_WHHPEB_W0@Z 000000014004828c f   DragDrop.obj
 0001:00047780       ?FileStart@CDragDrop@@IEAAPEAXPEB_W@Z 0000000140048780 f   DragDrop.obj
 0001:0004785c       ?FileWrite@CDragDrop@@IEAAJPEAXK0@Z 000000014004885c f   DragDrop.obj
 0001:000479a0       ?ReportUnknownData@CDragDrop@@IEAAXPEAUIDataObject@@PEB_W@Z 00000001400489a0 f   DragDrop.obj
 0001:00047b3c       ?ShellOpThreadProc@CDragDrop@@KAKPEAX@Z 0000000140048b3c f   DragDrop.obj
 0001:00047ca0       swprintf_s                 0000000140048ca0 f i DragDrop.obj
 0001:00047cf4       ??$PidlDump@PEFBU_ITEMIDLIST@@@@YAXPEFBU_ITEMIDLIST@@PEAX@Z 0000000140048cf4 f i DragDropData.obj
 0001:00048004       ??$wcscpy_c@$01@@YAHAEAY01_WPEB_W@Z 0000000140049004 f i DragDropData.obj
 0001:00048050       ??0CDragDropData@@QEAA@XZ  0000000140049050 f   DragDropData.obj
 0001:00048110       ??1CDragDropData@@UEAA@XZ  0000000140049110 f   DragDropData.obj
 0001:000481a8       ??_ECDragDropData@@UEAAPEAXI@Z 00000001400491a8 f i DragDropData.obj
 0001:000481a8       ??_GCDragDropData@@UEAAPEAXI@Z 00000001400491a8 f i DragDropData.obj
 0001:000481dc       ?AddFmt_DragImageBits@CDragDropData@@AEAAHPEA_WIH@Z 00000001400491dc f   DragDropData.obj
 0001:00048384       ?AddFmt_HDROP@CDragDropData@@AEAAHPEA_WIH@Z 0000000140049384 f   DragDropData.obj
 0001:00048460       ?AddFmt_InShellDragLoop@CDragDropData@@AEAAHPEA_WIH@Z 0000000140049460 f   DragDropData.obj
 0001:00048498       ?AddFmt_PREFERREDDROPEFFECT@CDragDropData@@AEAAHPEA_WIH@Z 0000000140049498 f   DragDropData.obj
 0001:000484f8       ?AddFmt_SHELLIDLIST@CDragDropData@@AEAAHPEA_WIH@Z 00000001400494f8 f   DragDropData.obj
 0001:000487a0       ?CheckIsUpdatePackage@CDragDropData@@IEAA_NPEAUIDataObject@@@Z 00000001400497a0 f   DragDropData.obj
 0001:000488bc       ?DragFeedBack@CDragDropData@@QEAAXK@Z 00000001400498bc f   DragDropData.obj
 0001:0004892c       ?DrawImageBits@CDragDropData@@IEAAHPEAUHDC__@@PEA_WPEAHH2@Z 000000014004992c f   DragDropData.obj
 0001:00048b60       ?EnumDragFormats@CDragDropData@@IEAAXPEAUIDataObject@@PEAX@Z 0000000140049b60 f   DragDropData.obj
 0001:0004938c       ?ForwardMessage@CDragDropData@@QEAAHI_K_J@Z 000000014004a38c f   DragDropData.obj
 0001:000493fc       ?InDragDrop@CDragDropData@@QEAAHXZ 000000014004a3fc f   DragDropData.obj
 0001:00049414       ?IsDragImageOsSupported@CDragDropData@@IEAA_NXZ 000000014004a414 f   DragDropData.obj
 0001:00049440       ?IsDragStarting@CDragDropData@@QEAAHXZ 000000014004a440 f   DragDropData.obj
 0001:00049490       ?NeedRefreshToInfo@CDragDropData@@QEAA_NU_POINTL@@@Z 000000014004a490 f   DragDropData.obj
 0001:00049530       ?PaintDragImageBits@CDragDropData@@IEAAHPEA_WAEAPEAUHDC__@@AEAPEAUHBITMAP__@@2HHPEAH3PEAUtagPOINT@@_NK@Z 000000014004a530 f   DragDropData.obj
 0001:000499e8       ?PrepareDrag@CDragDropData@@QEAAHHU_COORD@@PEAK@Z 000000014004a9e8 f   DragDropData.obj
 0001:00049c1c       ?Register@CDragDropData@@QEAAHXZ 000000014004ac1c f   DragDropData.obj
 0001:00049c84       ?RetrieveDragFromInfo@CDragDropData@@AEAAHHU_COORD@@PEAPEA_WPEAI@Z 000000014004ac84 f   DragDropData.obj
 0001:00049fd0       ?RetrieveDragToInfo@CDragDropData@@QEAAXU_POINTL@@@Z 000000014004afd0 f   DragDropData.obj
 0001:0004a1d4       ?SetDragToInfo@CDragDropData@@QEAAXPEBUForwardedPanelInfo@@_KPEAVCRealConsole@@@Z 000000014004b1d4 f   DragDropData.obj
 0001:0004a3c8       ?StringCbCopyW@@YAJPEA_W_KPEB_W@Z 000000014004b3c8 f i DragDropData.obj
 0001:0004a434       ?TerminateDrag@CDragDropData@@IEAAXXZ 000000014004b434 f   DragDropData.obj
 0001:0004a588       ?UseSourceHelper@CDragDropData@@IEAA_NXZ 000000014004b588 f   DragDropData.obj
 0001:0004a628       ?UseTargetHelper@CDragDropData@@IEAA_N_N@Z 000000014004b628 f   DragDropData.obj
 0001:0004a6f4       ??0CDwmHelper@@QEAA@XZ     000000014004b6f4 f   DwmHelper.obj
 0001:0004a7f8       ??1CDwmHelper@@UEAA@XZ     000000014004b7f8 f   DwmHelper.obj
 0001:0004a918       ??_ECDwmHelper@@UEAAPEAXI@Z 000000014004b918 f i DwmHelper.obj
 0001:0004a918       ??_GCDwmHelper@@UEAAPEAXI@Z 000000014004b918 f i DwmHelper.obj
 0001:0004a94c       ?AdjustWindowRectExForDpi@CDwmHelper@@QEAAHPEAUtagRECT@@KHKI@Z 000000014004b94c f   DwmHelper.obj
 0001:0004a994       ?DrawType@CDwmHelper@@QEAA?AW4FrameDrawStyle@@XZ 000000014004b994 f   DwmHelper.obj
 0001:0004a9e0       ?DwmDefWindowProc@CDwmHelper@@QEAAHPEAUHWND__@@I_K_JPEA_J@Z 000000014004b9e0 f   DwmHelper.obj
 0001:0004aa28       ?DwmGetWindowAttribute@CDwmHelper@@QEAAJPEAUHWND__@@KPEAXK@Z 000000014004ba28 f   DwmHelper.obj
 0001:0004aa58       ?DwmInvalidateIconicBitmaps@CDwmHelper@@QEAAJPEAUHWND__@@@Z 000000014004ba58 f   DwmHelper.obj
 0001:0004aa78       ?DwmSetIconicLivePreviewBitmap@CDwmHelper@@QEAAJPEAUHWND__@@PEAUHBITMAP__@@PEAUtagPOINT@@@Z 000000014004ba78 f   DwmHelper.obj
 0001:0004aab4       ?DwmSetIconicThumbnail@CDwmHelper@@QEAAJPEAUHWND__@@PEAUHBITMAP__@@@Z 000000014004bab4 f   DwmHelper.obj
 0001:0004aae0       ?ExtendWindowFrame@CDwmHelper@@QEAA_NPEAUHWND__@@AEBUtagRECT@@@Z 000000014004bae0 f   DwmHelper.obj
 0001:0004ab48       ?ExtendWindowFrame@CDwmHelper@@QEAA_NXZ 000000014004bb48 f   DwmHelper.obj
 0001:0004ab7c       ?ForceSetIconic@CDwmHelper@@QEAAXPEAUHWND__@@@Z 000000014004bb7c f   DwmHelper.obj
 0001:0004abec       ?GetDwmClientRectTopOffset@CDwmHelper@@QEAAHXZ 000000014004bbec f   DwmHelper.obj
 0001:0004abf8       ?InitDwm@CDwmHelper@@AEAAXXZ 000000014004bbf8 f   DwmHelper.obj
 0001:0004afcc       ?IsDwm@CDwmHelper@@QEAA_NXZ 000000014004bfcc f   DwmHelper.obj
 0001:0004b000       ?IsGlass@CDwmHelper@@QEAA_NXZ 000000014004c000 f   DwmHelper.obj
 0001:0004b028       ?IsThemed@CDwmHelper@@QEAA_NXZ 000000014004c028 f   DwmHelper.obj
 0001:0004b064       ?SetWindowTheme@CDwmHelper@@QEAAXPEAUHWND__@@PEB_W1@Z 000000014004c064 f   DwmHelper.obj
 0001:0004b08c       ??0CDynDialog@@QEAA@I@Z    000000014004c08c f   DynDialog.obj
 0001:0004b0f4       ??1CDynDialog@@UEAA@XZ     000000014004c0f4 f   DynDialog.obj
 0001:0004b204       ??_GCDynDialog@@UEAAPEAXI@Z 000000014004c204 f i DynDialog.obj
 0001:0004b204       ??_ECDynDialog@@UEAAPEAXI@Z 000000014004c204 f i DynDialog.obj
 0001:0004b238       ?DynDialogBox@CDynDialog@@KA_JPEAUHWND__@@I_K_J@Z 000000014004c238 f   DynDialog.obj
 0001:0004b304       ?ExecuteDialog@CDynDialog@@SA_JIPEAUHWND__@@P6A_J0I_K_J@Z2@Z 000000014004c304 f   DynDialog.obj
 0001:0004b3d4       ?Get@?$MMap@PEAUHWND__@@PEAVCVirtualConsole@@$0A@@@QEAA_NAEBQEAUHWND__@@PEAPEAVCVirtualConsole@@_N@Z 000000014004c3d4 f i VConChild.obj
 0001:0004b3d4       ?Get@?$MMap@PEAUHWND__@@PEAVCDynDialog@@$0A@@@QEAA_NAEBQEAUHWND__@@PEAPEAVCDynDialog@@_N@Z 000000014004c3d4 f i DynDialog.obj
 0001:0004b3d4       ?Get@?$MMap@PEAUHWND__@@PEAVCFindPanel@@$0A@@@QEAA_NAEBQEAUHWND__@@PEAPEAVCFindPanel@@_N@Z 000000014004c3d4 f i FindPanel.obj
 0001:0004b3d4       ?Get@?$MMap@PEAUHWND__@@P6A_JPEAU1@I_K_J@Z$0A@@@QEAA_NAEBQEAUHWND__@@PEAP6A_JPEAU2@I_K_J@Z_N@Z 000000014004c3d4 f i SetDlgColors.obj
 0001:0004b454       ?GetDlgClass@CDynDialog@@SAPEAV1@PEAUHWND__@@@Z 000000014004c454 f   DynDialog.obj
 0001:0004b4a8       ?GetFontPointSize@CDynDialog@@QEAAIXZ 000000014004c4a8 f   DynDialog.obj
 0001:0004b4c4       ?LoadTemplate@CDynDialog@@QEAA_NXZ 000000014004c4c4 f   DynDialog.obj
 0001:0004b6f0       ?LocalizeControl@CDynDialog@@SAHPEAUHWND__@@_J@Z 000000014004c6f0 f   DynDialog.obj
 0001:0004b800       ?LocalizeDialog@CDynDialog@@SAXPEAUHWND__@@I@Z 000000014004c800 f   DynDialog.obj
 0001:0004b85c       ?ParseDialog@CDynDialog@@IEAA_NAEA_K@Z 000000014004c85c f   DynDialog.obj
 0001:0004b958       ?ParseDialogEx@CDynDialog@@IEAA_NAEA_K@Z 000000014004c958 f   DynDialog.obj
 0001:0004ba84       ?ParseItem@CDynDialog@@IEAA_NAEA_K@Z 000000014004ca84 f   DynDialog.obj
 0001:0004bb58       ?ParseItemEx@CDynDialog@@IEAA_NAEA_K@Z 000000014004cb58 f   DynDialog.obj
 0001:0004bc34       ?PrepareDlg@CDynDialog@@IEAAXP6A_JPEAUHWND__@@I_K_J@Z@Z 000000014004cc34 f   DynDialog.obj
 0001:0004bca4       ?Set@?$MMap@PEAVCVConGroup@@PEAVCVirtualConsole@@$0A@@@QEAA_NAEBQEAVCVConGroup@@AEBQEAVCVirtualConsole@@@Z 000000014004cca4 f i TabBar.obj
 0001:0004bca4       ?Set@?$MMap@PEAUHWND__@@PEAVCDynDialog@@$0A@@@QEAA_NAEBQEAUHWND__@@AEBQEAVCDynDialog@@@Z 000000014004cca4 f i DynDialog.obj
 0001:0004bca4       ?Set@?$MMap@PEAUHWND__@@PEAVCVirtualConsole@@$0A@@@QEAA_NAEBQEAUHWND__@@AEBQEAVCVirtualConsole@@@Z 000000014004cca4 f i VConChild.obj
 0001:0004bca4       ?Set@?$MMap@PEAUHWND__@@PEAVCFindPanel@@$0A@@@QEAA_NAEBQEAUHWND__@@AEBQEAVCFindPanel@@@Z 000000014004cca4 f i FindPanel.obj
 0001:0004bca4       ?Set@?$MMap@PEAUHWND__@@P6A_JPEAU1@I_K_J@Z$0A@@@QEAA_NAEBQEAUHWND__@@AEBQ6A_JPEAU2@I_K_J@Z@Z 000000014004cca4 f i SetDlgColors.obj
 0001:0004bdf4       ?ShowDialog@CDynDialog@@SAPEAV1@IPEAUHWND__@@P6A_J0I_K_J@Z2@Z 000000014004cdf4 f   DynDialog.obj
 0001:0004becc       ?SkipSzOrAtom@CDynDialog@@IEAAPEA_WAEA_K@Z 000000014004cecc f   DynDialog.obj
 0001:0004bf60       ?SkipSzOrOrd@CDynDialog@@IEAAPEA_WAEA_K@Z 000000014004cf60 f   DynDialog.obj
 0001:0004bf94       ??0CEFindDlg@@QEAA@XZ      000000014004cf94 f   FindDlg.obj
 0001:0004bfa8       ?FindTextDialog@CEFindDlg@@QEAAXXZ 000000014004cfa8 f   FindDlg.obj
 0001:0004c0e4       ?UpdateFindDlgAlpha@CEFindDlg@@QEAAX_N@Z 000000014004d0e4 f   FindDlg.obj
 0001:0004c1b4       ?findTextProc@CEFindDlg@@SA_JPEAUHWND__@@I_K_J@Z 000000014004d1b4 f   FindDlg.obj
 0001:0004c72c       ??$SafeDelete@UCEStr@@@@YAXAEAPEAUCEStr@@@Z 000000014004d72c f i FindPanel.obj
 0001:0004c774       ??0CFindPanel@@QEAA@PEAVCConEmuMain@@@Z 000000014004d774 f   FindPanel.obj
 0001:0004c834       ??1CFindPanel@@QEAA@XZ     000000014004d834 f   FindPanel.obj
 0001:0004c864       ?Activate@CFindPanel@@QEAAPEAUHWND__@@_N@Z 000000014004d864 f   FindPanel.obj
 0001:0004c8c0       ?CreatePane@CFindPanel@@QEAAPEAUHWND__@@PEAU2@H@Z 000000014004d8c0 f   FindPanel.obj
 0001:0004c97c       ?EditCtrlProc@CFindPanel@@KA_JPEAUHWND__@@I_K_J@Z 000000014004d97c f   FindPanel.obj
 0001:0004caac       ?FindPaneProc@CFindPanel@@KA_JPEAUHWND__@@I_K_J@Z 000000014004daac f   FindPanel.obj
 0001:0004cc3c       ?GetHWND@CFindPanel@@QEAAPEAUHWND__@@XZ 000000014004dc3c f   FindPanel.obj
 0001:0004cc3c       ?GetParseError@MJsonValue@@QEAAPEB_WXZ 000000014004dc3c f   common-user64:MJsonReader.obj
 0001:0004cc44       ?GetMinWidth@CFindPanel@@QEAAHXZ 000000014004dc44 f   FindPanel.obj
 0001:0004cc64       ?Invalidate@CFindPanel@@QEAAXXZ 000000014004dc64 f   FindPanel.obj
 0001:0004cc9c       ?IsAvailable@CFindPanel@@QEAA_N_N@Z 000000014004dc9c f   FindPanel.obj
 0001:0004ccf4       ?OnCreateFinished@CFindPanel@@QEAA_NXZ 000000014004dcf4 f   FindPanel.obj
 0001:0004ce14       ?OnCreateFont@CFindPanel@@IEAAXXZ 000000014004de14 f   FindPanel.obj
 0001:0004cf10       ?OnDestroy@CFindPanel@@IEAAXXZ 000000014004df10 f   FindPanel.obj
 0001:0004cf80       ?OnKeyboard@CFindPanel@@IEAA_NI_K_JAEA_J@Z 000000014004df80 f   FindPanel.obj
 0001:0004d168       ?OnSearch@CFindPanel@@IEAAXXZ 000000014004e168 f   FindPanel.obj
 0001:0004d218       ?OnSize@CFindPanel@@IEAAXPEAUtagRECT@@@Z 000000014004e218 f   FindPanel.obj
 0001:0004d340       ?OnWindowPosChanging@CFindPanel@@IEAAXPEAUtagWINDOWPOS@@@Z 000000014004e340 f   FindPanel.obj
 0001:0004d3a0       ?RegisterPaneClass@CFindPanel@@IEAA_NXZ 000000014004e3a0 f   FindPanel.obj
 0001:0004d438       ?ShowMenu@CFindPanel@@IEAAXXZ 000000014004e438 f   FindPanel.obj
 0001:0004d630       ?StopSearch@CFindPanel@@IEAAXXZ 000000014004e630 f   FindPanel.obj
 0001:0004d680       ??$_Hash_representation@H@std@@YA_KAEBH@Z 000000014004e680 f i Font.obj
 0001:0004d6b0       ??0?$_Hash@V?$_Umap_traits@HGV?$_Uhash_compare@HU?$hash@H@std@@U?$equal_to@H@2@@std@@V?$allocator@U?$pair@$$CBHG@std@@@2@$0A@@std@@@std@@IEAA@AEBV?$_Uhash_compare@HU?$hash@H@std@@U?$equal_to@H@2@@1@AEBV?$allocator@U?$pair@$$CBHG@std@@@1@@Z 000000014004e6b0 f i Font.obj
 0001:0004d724       ??0CFont@@QEAA@PEAUHFONT__@@@Z 000000014004e724 f   Font.obj
 0001:0004d82c       ??0CFont@@QEAA@PEAVCustomFont@@@Z 000000014004e82c f   Font.obj
 0001:0004d938       ??1?$_Hash@V?$_Umap_traits@HGV?$_Uhash_compare@HU?$hash@H@std@@U?$equal_to@H@2@@std@@V?$allocator@U?$pair@$$CBHG@std@@@2@$0A@@std@@@std@@QEAA@XZ 000000014004e938 f i Font.obj
 0001:0004d9ac       ??1?$list@U?$pair@$$CBHG@std@@V?$allocator@U?$pair@$$CBHG@std@@@2@@std@@QEAA@XZ 000000014004e9ac f i Font.obj
 0001:0004d9f8       ??1?$unordered_map@HGU?$hash@H@std@@U?$equal_to@H@2@V?$allocator@U?$pair@$$CBHG@std@@@2@@std@@QEAA@XZ 000000014004e9f8 f i Font.obj
 0001:0004da00       ??1CFont@@MEAA@XZ          000000014004ea00 f   Font.obj
 0001:0004da68       ??_ECFont@@MEAAPEAXI@Z     000000014004ea68 f i Font.obj
 0001:0004da68       ??_GCFont@@MEAAPEAXI@Z     000000014004ea68 f i Font.obj
 0001:0004da9c       ?Delete@CFont@@IEAA_NXZ    000000014004ea9c f   Font.obj
 0001:0004dae8       ?Equal@CFont@@QEBA_NPEBV1@@Z 000000014004eae8 f   Font.obj
 0001:0004db14       ?IsSet@CFont@@QEBA_NXZ     000000014004eb14 f   Font.obj
 0001:0004db38       ?ResetFontWidth@CFont@@QEAAXXZ 000000014004eb38 f   Font.obj
 0001:0004db44       ?_Unchecked_erase@?$_Hash@V?$_Umap_traits@HGV?$_Uhash_compare@HU?$hash@H@std@@U?$equal_to@H@2@@std@@V?$allocator@U?$pair@$$CBHG@std@@@2@$0A@@std@@@std@@AEAAPEAU?$_List_node@U?$pair@$$CBHG@std@@PEAX@2@PEAU32@QEAU32@@Z 000000014004eb44 f i Font.obj
 0001:0004dc68       ?clear@?$_Hash@V?$_Umap_traits@HGV?$_Uhash_compare@HU?$hash@H@std@@U?$equal_to@H@2@@std@@V?$allocator@U?$pair@$$CBHG@std@@@2@$0A@@std@@@std@@QEAAXXZ 000000014004ec68 f i Font.obj
 0001:0004dd00       ??$?0AEBQEB_W@?$_Tree_temp_node@V?$allocator@U?$_Tree_node@PEB_WPEAX@std@@@std@@@std@@QEAA@AEAV?$allocator@U?$_Tree_node@PEB_WPEAX@std@@@1@PEAU?$_Tree_node@PEB_WPEAX@1@AEBQEB_W@Z 000000014004ed00 f i FontMgr.obj
 0001:0004dd7c       ??$_Destroy_range@V?$allocator@UCEStr@@@std@@@std@@YAXPEAUCEStr@@QEAU1@AEAV?$allocator@UCEStr@@@0@@Z 000000014004ed7c f i FontMgr.obj
 0001:0004ddb0       ??$_Emplace_reallocate@AEBUFontHeightInfo@@@?$vector@UFontHeightInfo@@V?$MArrayAllocator@UFontHeightInfo@@@@@std@@QEAAPEAUFontHeightInfo@@QEAU2@AEBU2@@Z 000000014004edb0 f i FontMgr.obj
 0001:0004df4c       ??$_Emplace_reallocate@AEBURegFont@@@?$vector@URegFont@@V?$MArrayAllocator@URegFont@@@@@std@@QEAAPEAURegFont@@QEAU2@AEBU2@@Z 000000014004ef4c f i FontMgr.obj
 0001:0004e14c       ??$_Emplace_reallocate@UCEStr@@@?$vector@UCEStr@@V?$allocator@UCEStr@@@std@@@std@@QEAAPEAUCEStr@@QEAU2@$$QEAU2@@Z 000000014004f14c f i FontMgr.obj
 0001:0004e284       ??$_Erase_tree@V?$allocator@U?$_Tree_node@PEB_WPEAX@std@@@std@@@?$_Tree_val@U?$_Tree_simple_types@PEB_W@std@@@std@@QEAAXAEAV?$allocator@U?$_Tree_node@PEB_WPEAX@std@@@1@PEAU?$_Tree_node@PEB_WPEAX@1@@Z 000000014004f284 f i FontMgr.obj
 0001:0004e2d8       ??$_Uninitialized_copy@PEAUCEStr@@V?$allocator@UCEStr@@@std@@@std@@YAPEAUCEStr@@QEAU1@0PEAU1@AEAV?$allocator@UCEStr@@@0@@Z 000000014004f2d8 f i FontMgr.obj
 0001:0004e34c       ??$_Uninitialized_move@PEAUCEStr@@V?$allocator@UCEStr@@@std@@@std@@YAPEAUCEStr@@QEAU1@0PEAU1@AEAV?$allocator@UCEStr@@@0@@Z 000000014004f34c f i FontMgr.obj
 0001:0004e3c0       ??$emplace_back@AEBURegFont@@@?$vector@URegFont@@V?$MArrayAllocator@URegFont@@@@@std@@QEAAXAEBURegFont@@@Z 000000014004f3c0 f i FontMgr.obj
 0001:0004e478       ??0CFontMgr@@QEAA@XZ       000000014004f478 f   FontMgr.obj
 0001:0004e604       ??0CLogFont@@QEAA@PEB_WJJJEE@Z 000000014004f604 f i FontMgr.obj
 0001:0004e6e4       ??1?$_Alloc_construct_ptr@V?$allocator@U?$_Tree_node@PEB_WPEAX@std@@@std@@@std@@QEAA@XZ 000000014004f6e4 f i FontMgr.obj
 0001:0004e700       ??1?$_Uninitialized_backout_al@V?$allocator@UCEStr@@@std@@@std@@QEAA@XZ 000000014004f700 f i FontMgr.obj
 0001:0004e768       ??1?$vector@UCEStr@@V?$allocator@UCEStr@@@std@@@std@@QEAA@XZ 000000014004f768 f i FontMgr.obj
 0001:0004e7ac       ??1CEDC@@QEAA@XZ           000000014004f7ac f i FontMgr.obj
 0001:0004e7d8       ??1CFontMgr@@QEAA@XZ       000000014004f7d8 f   FontMgr.obj
 0001:0004e954       ?AddFontsDir@CFontMgr@@QEAAXPEB_W@Z 000000014004f954 f   FontMgr.obj
 0001:0004ea2c       ?AutoRecreateFont@CFontMgr@@QEAA_NHH@Z 000000014004fa2c f   FontMgr.obj
 0001:0004eb54       ?BorderFontCharSet@CFontMgr@@QEAAEXZ 000000014004fb54 f   FontMgr.obj
 0001:0004eba4       ?BorderFontFaceName@CFontMgr@@QEAAPEB_WXZ 000000014004fba4 f   FontMgr.obj
 0001:0004ebe4       ?BorderFontHeight@CFontMgr@@QEAAJXZ 000000014004fbe4 f   FontMgr.obj
 0001:0004ec40       ?BorderFontWidth@CFontMgr@@QEAAJXZ 000000014004fc40 f   FontMgr.obj
 0001:0004ec9c       ?Create@CFontMgr@@QEAA_NUCLogFont@@AEAVCFontPtr@@PEAPEAVCustomFontFamily@@@Z 000000014004fc9c f   FontMgr.obj
 0001:0004f448       ?CreateFontGroup@CFontMgr@@AEAA_NUCLogFont@@@Z 0000000140050448 f   FontMgr.obj
 0001:0004f8b4       ?CreateOtherFont@CFontMgr@@QEAA_NPEB_WAEAVCFontPtr@@@Z 00000001400508b4 f   FontMgr.obj
 0001:0004f97c       ?EvalFontHeight@CFontMgr@@QEAAJPEB_WJE@Z 000000014005097c f   FontMgr.obj
 0001:0004fc24       ?EvalLogfontSizes@CFontMgr@@QEAAXAEAUtagLOGFONTW@@JJ@Z 0000000140050c24 f   FontMgr.obj
 0001:0004fca0       ?FindCustomFont@CFontMgr@@AEAA_NPEB_WHHHHPEAPEAVCustomFontFamily@@PEAPEAVCustomFont@@@Z 0000000140050ca0 f   FontMgr.obj
 0001:0004fdc4       ?FontBold@CFontMgr@@QEAAHXZ 0000000140050dc4 f   FontMgr.obj
 0001:0004fdd4       ?FontCellWidth@CFontMgr@@QEAAJXZ 0000000140050dd4 f   FontMgr.obj
 0001:0004fddc       ?FontCharSet@CFontMgr@@QEAAEXZ 0000000140050ddc f   FontMgr.obj
 0001:0004fde4       ?FontFaceName@CFontMgr@@QEAAPEB_WXZ 0000000140050de4 f   FontMgr.obj
 0001:0004fdec       ?FontHeight@CFontMgr@@QEAAJXZ 0000000140050dec f   FontMgr.obj
 0001:0004fe94       ?FontHeightHtml@CFontMgr@@QEAAJXZ 0000000140050e94 f   FontMgr.obj
 0001:0004ff3c       ?FontItalic@CFontMgr@@QEAAHXZ 0000000140050f3c f   FontMgr.obj
 0001:0004ff48       ?FontMonospaced@CFontMgr@@QEAA_NXZ 0000000140050f48 f   FontMgr.obj
 0001:0004ff84       ?FontPtrRegister@CFontMgr@@IEAAXPEAVCFont@@@Z 0000000140050f84 f   FontMgr.obj
 0001:0004ffb4       ?FontPtrUnregister@CFontMgr@@IEAAXPEAVCFont@@@Z 0000000140050fb4 f   FontMgr.obj
 0001:00050028       ?FontQuality@CFontMgr@@QEAAEXZ 0000000140051028 f   FontMgr.obj
 0001:00050030       ?FontWidth@CFontMgr@@QEAAJXZ 0000000140051030 f   FontMgr.obj
 0001:000500c4       ?GetFontNameFromFile@CFontMgr@@QEAAHPEB_WAEAY0CA@_W1@Z 00000001400510c4 f   FontMgr.obj
 0001:00050190       ?GetFontNameFromFile_BDF@CFontMgr@@QEAAHPEB_WAEAY0CA@_W1@Z 0000000140051190 f   FontMgr.obj
 0001:000501e0       ?GetFontNameFromFile_OTF@CFontMgr@@QEAAHPEB_WAEAY0CA@_W1@Z 00000001400511e0 f   FontMgr.obj
 0001:00050780       ?GetFontNameFromFile_TTF@CFontMgr@@QEAAHPEB_WAEAY0CA@_W1@Z 0000000140051780 f   FontMgr.obj
 0001:00050e64       ?GetMainLogFont@CFontMgr@@QEAAXAEAUtagLOGFONTW@@@Z 0000000140051e64 f   FontMgr.obj
 0001:00050eb0       ?GetZoom@CFontMgr@@QEAAJ_N@Z 0000000140051eb0 f   FontMgr.obj
 0001:00050ed4       ?InitFont@CFontMgr@@QEAAXPEB_WHH@Z 0000000140051ed4 f   FontMgr.obj
 0001:000511fc       ?IsAlmostMonospace@CFontMgr@@SA_NPEB_WPEAUtagTEXTMETRICW@@PEAU_OUTLINETEXTMETRICW@@@Z 00000001400521fc f   FontMgr.obj
 0001:00051330       ?LoadOutline@CFontMgr@@SAPEAU_OUTLINETEXTMETRICW@@PEAUHDC__@@PEAUHFONT__@@@Z 0000000140052330 f   FontMgr.obj
 0001:00051430       ?MacroFontSetName@CFontMgr@@QEAAXPEB_WGG@Z 0000000140052430 f   FontMgr.obj
 0001:00051644       ?MacroFontSetSize@CFontMgr@@QEAA_NHH@Z 0000000140052644 f   FontMgr.obj
 0001:00051af8       ?MacroFontSetSizeInt@CFontMgr@@AEAA_NAEAUtagLOGFONTW@@HH@Z 0000000140052af8 f   FontMgr.obj
 0001:00051d1c       ?QueryFont@CFontMgr@@QEAA_NW4CEFontStyles@@PEAVCVirtualConsole@@AEAVCFontPtr@@@Z 0000000140052d1c f   FontMgr.obj
 0001:00051dd4       ?RecreateAlternativeFont@CFontMgr@@AEAAXXZ 0000000140052dd4 f   FontMgr.obj
 0001:000521cc       ?RecreateFont@CFontMgr@@AEAAX_N0@Z 00000001400531cc f   FontMgr.obj
 0001:0005262c       ?RecreateFontByDpi@CFontMgr@@QEAA_NHHPEAUtagRECT@@@Z 000000014005362c f   FontMgr.obj
 0001:000526c4       ?RegisterFont@CFontMgr@@QEAAHPEB_WH@Z 00000001400536c4 f   FontMgr.obj
 0001:00052ef8       ?RegisterFonts@CFontMgr@@QEAAXXZ 0000000140053ef8 f   FontMgr.obj
 0001:000533ec       ?RegisterFontsDir@CFontMgr@@AEAAXPEB_W@Z 00000001400543ec f   FontMgr.obj
 0001:00053660       ?ResetFontWidth@CFontMgr@@AEAAXXZ 0000000140054660 f   FontMgr.obj
 0001:000536d0       ?SaveFontSizes@CFontMgr@@AEAAX_N0@Z 00000001400546d0 f   FontMgr.obj
 0001:000537e0       ?SettingsLoaded@CFontMgr@@QEAAXK@Z 00000001400547e0 f   FontMgr.obj
 0001:00053948       ?SettingsPreSave@CFontMgr@@QEAAXXZ 0000000140054948 f   FontMgr.obj
 0001:000539d0       ?UnregisterFonts@CFontMgr@@QEAAXXZ 00000001400549d0 f   FontMgr.obj
 0001:00053a9c       ?_Change_array@?$vector@UCEStr@@V?$allocator@UCEStr@@@std@@@std@@AEAAXQEAUCEStr@@_K1@Z 0000000140054a9c f i FontMgr.obj
 0001:00053b14       ?_Destroy@?$vector@UCEStr@@V?$allocator@UCEStr@@@std@@@std@@AEAAXPEAUCEStr@@0@Z 0000000140054b14 f i FontMgr.obj
 0001:00053b28       ?_Insert_node@?$_Tree_val@U?$_Tree_simple_types@PEB_W@std@@@std@@QEAAPEAU?$_Tree_node@PEB_WPEAX@2@U?$_Tree_id@PEAU?$_Tree_node@PEB_WPEAX@std@@@2@QEAU32@@Z 0000000140054b28 f i FontMgr.obj
 0001:00053b28       ?_Insert_node@?$_Tree_val@U?$_Tree_simple_types@V?$basic_string@_WU?$char_traits@_W@std@@V?$allocator@_W@2@@std@@@std@@@std@@QEAAPEAU?$_Tree_node@V?$basic_string@_WU?$char_traits@_W@std@@V?$allocator@_W@2@@std@@PEAX@2@U?$_Tree_id@PEAU?$_Tree_node@V?$basic_string@_WU?$char_traits@_W@std@@V?$allocator@_W@2@@std@@PEAX@std@@@2@QEAU32@@Z 0000000140054b28 f i SystemEnvironment.obj
 0001:00053d70       ?_Throw_tree_length_error@std@@YAXXZ 0000000140054d70 f i FontMgr.obj
 0001:00053d84       ?deallocate@?$allocator@UCEStr@@@std@@QEAAXQEAUCEStr@@_K@Z 0000000140054d84 f i FontMgr.obj
 0001:00053d94       ?erase@?$MArray@URegFont@@@@QEAAX_J0@Z 0000000140054d94 f i FontMgr.obj
 0001:00053e2c       ?push_back@?$MArray@UFontHeightInfo@@@@QEAA_JAEBUFontHeightInfo@@@Z 0000000140054e2c f i FontMgr.obj
 0001:00053eb8       ??0CFontPtr@@QEAA@XZ       0000000140054eb8 f   FontPtr.obj
 0001:00053eb8       ??0CEStrA@@QEAA@XZ         0000000140054eb8 f   common-kernel64:CEStr.obj
 0001:00053eb8       ??0CTab@@QEAA@PEBDH@Z      0000000140054eb8 f   TabID.obj
 0001:00053ec0       ??1CFontPtr@@QEAA@XZ       0000000140054ec0 f   FontPtr.obj
 0001:00053ed0       ??4CFontPtr@@QEAAAEAV0@PEAVCFont@@@Z 0000000140054ed0 f   FontPtr.obj
 0001:00053ee8       ??BCEStr@@QEBAPEB_WXZ      0000000140054ee8 f   common-kernel64:CEStr.obj
 0001:00053ee8       ??CCFontPtr@@QEBAPEAVCFont@@XZ 0000000140054ee8 f   FontPtr.obj
 0001:00053ee8       ??BCFontPtr@@QEBAPEAVCFont@@XZ 0000000140054ee8 f   FontPtr.obj
 0001:00053ee8       ??BMBSTR@@QEBAPEA_WXZ      0000000140054ee8 f   common-user64:MBSTR.obj
 0001:00053ee8       ?Ptr@CFontPtr@@QEBAPEAVCFont@@XZ 0000000140054ee8 f   FontPtr.obj
 0001:00053ee8       ??BCEStrA@@QEBAPEBDXZ      0000000140054ee8 f   common-kernel64:CEStr.obj
 0001:00053eec       ?Attach@CFontPtr@@QEAA_NPEAVCFont@@@Z 0000000140054eec f   FontPtr.obj
 0001:00053f40       ?Equal@CFontPtr@@QEBA_NPEBVCFont@@@Z 0000000140054f40 f   FontPtr.obj
 0001:00053f58       ?IsSet@CFontPtr@@QEBA_NXZ  0000000140054f58 f   FontPtr.obj
 0001:00053f7c       ?Release@CFontPtr@@QEAAHXZ 0000000140054f7c f   FontPtr.obj
 0001:00053fc0       ??0CFrameHolder@@QEAA@XZ   0000000140054fc0 f   FrameHolder.obj
 0001:0005400c       ??1CFrameHolder@@UEAA@XZ   000000014005500c f   FrameHolder.obj
 0001:0005401c       ??_ECFrameHolder@@UEAAPEAXI@Z 000000014005501c f i FrameHolder.obj
 0001:0005401c       ??_GCFrameHolder@@UEAAPEAXI@Z 000000014005501c f i FrameHolder.obj
 0001:0005404c       ?DoNcHitTest@CFrameHolder@@IEAA_JAEBUtagPOINT@@HH_J@Z 000000014005504c f   FrameHolder.obj
 0001:0005434c       ?GetWinCaptionHeight@CFrameHolder@@QEAAIXZ 000000014005534c f   FrameHolder.obj
 0001:0005435c       ?GetWinFrameWidth@CFrameHolder@@QEAAIXZ 000000014005535c f   FrameHolder.obj
 0001:00054374       ?InitFrameHolder@CFrameHolder@@QEAAXXZ 0000000140055374 f   FrameHolder.obj
 0001:00054380       ?NC_Redraw@CFrameHolder@@IEAAXXZ 0000000140055380 f   FrameHolder.obj
 0001:000543d8       ?OnDwmCompositionChanged@CFrameHolder@@IEAA_NPEAUHWND__@@I_K_JAEA_J@Z 00000001400553d8 f   FrameHolder.obj
 0001:0005446c       ?OnKeyboardMessage@CFrameHolder@@IEAA_NPEAUHWND__@@I_K_JAEA_J@Z 000000014005546c f   FrameHolder.obj
 0001:000544d8       ?OnMouseMessage@CFrameHolder@@IEAA_NPEAUHWND__@@I_K_JAEA_J@Z 00000001400554d8 f   FrameHolder.obj
 0001:000545ec       ?OnNcActivate@CFrameHolder@@IEAA_NPEAUHWND__@@I_K_JAEA_J@Z 00000001400555ec f   FrameHolder.obj
 0001:000546f0       ?OnNcCalcSize@CFrameHolder@@IEAA_NPEAUHWND__@@I_K_JAEA_J@Z 00000001400556f0 f   FrameHolder.obj
 0001:00054970       ?OnNcHitTest@CFrameHolder@@IEAA_NPEAUHWND__@@I_K_JAEA_J@Z 0000000140055970 f   FrameHolder.obj
 0001:00054a64       ?OnNcLButtonDblClk@CFrameHolder@@IEAA_NPEAUHWND__@@I_K_JAEA_J@Z 0000000140055a64 f   FrameHolder.obj
 0001:00054b00       ?OnNcMouseMessage@CFrameHolder@@IEAA_NPEAUHWND__@@I_K_JAEA_J@Z 0000000140055b00 f   FrameHolder.obj
 0001:00054c84       ?OnNcPaint@CFrameHolder@@IEAA_NPEAUHWND__@@I_K_JAEA_J@Z 0000000140055c84 f   FrameHolder.obj
 0001:00054d48       ?OnNcUahDrawCaption@CFrameHolder@@IEAA_NPEAUHWND__@@I_K_JAEA_J@Z 0000000140055d48 f   FrameHolder.obj
 0001:00054e04       ?OnNcUahDrawFrame@CFrameHolder@@IEAA_NPEAUHWND__@@I_K_JAEA_J@Z 0000000140055e04 f   FrameHolder.obj
 0001:00054ec0       ?OnPaint@CFrameHolder@@IEAA_NPEAUHWND__@@PEAUHDC__@@IAEA_J@Z 0000000140055ec0 f   FrameHolder.obj
 0001:000550bc       ?OnSysCommand@CFrameHolder@@IEAA_NPEAUHWND__@@I_K_JAEA_J@Z 00000001400560bc f   FrameHolder.obj
 0001:0005516c       ?ProcessNcMessage@CFrameHolder@@QEAA_NPEAUHWND__@@I_K_JAEA_J@Z 000000014005616c f   FrameHolder.obj
 0001:00055314       ?RecalculateFrameSizes@CFrameHolder@@QEAAXXZ 0000000140056314 f   FrameHolder.obj
 0001:000553a0       ?RedrawFrame@CFrameHolder@@QEAAXXZ 00000001400563a0 f   FrameHolder.obj
 0001:000553b0       ?SetAllowPreserveClient@CFrameHolder@@QEAA_N_N@Z 00000001400563b0 f   FrameHolder.obj
 0001:000553b8       ?SetDontPreserveClient@CFrameHolder@@QEAA_N_N@Z 00000001400563b8 f   FrameHolder.obj
 0001:000553c0       ?SetFrameActiveState@CFrameHolder@@QEAAX_N@Z 00000001400563c0 f   FrameHolder.obj
 0001:000553dc       ?isInNcPaint@CFrameHolder@@QEAA_NXZ 00000001400563dc f   FrameHolder.obj
 0001:000553e4       ??0HandleMonitor@@QEAA@XZ  00000001400563e4 f   GdiObjects.obj
 0001:000553f0       ?DoCheck@HandleMonitor@@QEAAXXZ 00000001400563f0 f   GdiObjects.obj
 0001:000554e4       ??$swprintf_c@$0DM@@@YAHAEAY0DM@_WPEB_WZZ 00000001400564e4 f i GestureEngine.obj
 0001:00055510       ??0CGestures@@QEAA@XZ      0000000140056510 f   GestureEngine.obj
 0001:000555f0       ??1CGestures@@UEAA@XZ      00000001400565f0 f   GestureEngine.obj
 0001:000555fc       ??_ECGestures@@UEAAPEAXI@Z 00000001400565fc f i GestureEngine.obj
 0001:000555fc       ??_GCGestures@@UEAAPEAXI@Z 00000001400565fc f i GestureEngine.obj
 0001:00055628       ?DumpGesture@CGestures@@AEAAXPEB_WAEBUtagGESTUREINFO@@@Z 0000000140056628 f   GestureEngine.obj
 0001:00055804       ?IsGesturesEnabled@CGestures@@QEAA_NXZ 0000000140056804 f   GestureEngine.obj
 0001:00055850       ?ProcessGestureMessage@CGestures@@UEAA_NPEAUHWND__@@I_K_JAEA_J@Z 0000000140056850 f   GestureEngine.obj
 0001:00055d3c       ?ProcessMove@CGestures@@UEAA_NPEAUHWND__@@JJ@Z 0000000140056d3c f   GestureEngine.obj
 0001:00055e60       ?ProcessPressAndTap@CGestures@@UEAAXPEAUHWND__@@JJFF@Z 0000000140056e60 f   GestureEngine.obj
 0001:00055e60       ?ProcessTwoFingerTap@CGestures@@UEAAXPEAUHWND__@@JJK@Z 0000000140056e60 f   GestureEngine.obj
 0001:00055e68       ?ProcessRotate@CGestures@@UEAA_NPEAUHWND__@@JJJ_N@Z 0000000140056e68 f   GestureEngine.obj
 0001:00055ef4       ?ProcessZoom@CGestures@@UEAAXPEAUHWND__@@NJJ@Z 0000000140056ef4 f   GestureEngine.obj
 0001:00055f84       ?SendRClick@CGestures@@AEAAXPEAUHWND__@@JJ@Z 0000000140056f84 f   GestureEngine.obj
 0001:00056080       ??0CGuiServer@@QEAA@XZ     0000000140057080 f   GuiServer.obj
 0001:00056114       ??1CGuiServer@@QEAA@XZ     0000000140057114 f   GuiServer.obj
 0001:00056250       ?DumpError@?$PipeServer@UCESERVER_REQ@@@@IEAAXPEAUPipeInst@1@PEB_WH@Z 0000000140057250 f i GuiServer.obj
 0001:00056364       ?GuiServerCommand@CGuiServer@@KAHPEAXPEAUCESERVER_REQ@@AEAPEAU2@AEAK3_J@Z 0000000140057364 f   GuiServer.obj
 0001:00056ed4       ?GuiServerFree@CGuiServer@@KAXPEAUCESERVER_REQ@@_J@Z 0000000140057ed4 f   GuiServer.obj
 0001:00056ed4       ?ServerCommandFree@CRealServer@@KAXPEAUCESERVER_REQ@@_J@Z 0000000140057ed4 f   RealServer.obj
 0001:00056f64       ?PipeServerRead@?$PipeServer@UCESERVER_REQ@@@@IEAAHPEAUPipeInst@1@@Z 0000000140057f64 f i GuiServer.obj
 0001:00057200       ?PipeServerThread@?$PipeServer@UCESERVER_REQ@@@@IEAAKPEAUPipeInst@1@@Z 0000000140058200 f i GuiServer.obj
 0001:000574d0       ?PipeServerWrite@?$PipeServer@UCESERVER_REQ@@@@IEAAHPEAUPipeInst@1@PEBXKPEAKH@Z 00000001400584d0 f i GuiServer.obj
 0001:000575fc       ?Start@CGuiServer@@QEAA_NXZ 00000001400585fc f   GuiServer.obj
 0001:00057730       ?StartPipeInstance@?$PipeServer@UCESERVER_REQ@@@@IEAA_NPEAUPipeInst@1@@Z 0000000140058730 f i GuiServer.obj
 0001:000578c0       ?StartPipeServer@?$PipeServer@UCESERVER_REQ@@@@QEAA_N_NPEB_W_JPEAU_SECURITY_ATTRIBUTES@@P6AHPEAXPEAUCESERVER_REQ@@AEAPEAU3@AEAK72@ZP6AX52@ZP6AH42@ZP6AH42@ZP6AH42@Z@Z 00000001400588c0 f i GuiServer.obj
 0001:00057a44       ?Stop@CGuiServer@@QEAAX_N@Z 0000000140058a44 f   GuiServer.obj
 0001:00057b20       ?StopPipeServer@?$PipeServer@UCESERVER_REQ@@@@QEAAX_NAEA_N@Z 0000000140058b20 f i GuiServer.obj
 0001:00057ea8       ?WaitForClient@?$PipeServer@UCESERVER_REQ@@@@IEAA_NPEAUPipeInst@1@AEAH1@Z 0000000140058ea8 f i GuiServer.obj
 0001:000581c0       ?WaitOverlapped@?$PipeServer@UCESERVER_REQ@@@@IEAAHPEAUPipeInst@1@PEAK@Z 00000001400591c0 f i GuiServer.obj
 0001:00058394       ?WriteDummyAnswer@?$PipeServer@UCESERVER_REQ@@@@IEAAHPEAUPipeInst@1@@Z 0000000140059394 f i GuiServer.obj
 0001:00058414       ?_PipeServerThread@?$PipeServer@UCESERVER_REQ@@@@KAKPEAX@Z 0000000140059414 f i GuiServer.obj
 0001:00058470       ?HooksUnlockerProc@@YA_N_N@Z 0000000140059470 f   HooksUnlocker.obj
 0001:000584b8       ?Compare@ConEmuChord@@CA_NKK@Z 00000001400594b8 f   HotkeyChord.obj
 0001:00058588       ?GetFlagsFromMod@CEVkMatch@@SAKK@Z 0000000140059588 f   HotkeyChord.obj
 0001:000585d0       ?GetHotKeyMod@ConEmuChord@@SAKK@Z 00000001400595d0 f   HotkeyChord.obj
 0001:00058654       ?GetHotkey@ConEmuChord@@SAKK@Z 0000000140059654 f   HotkeyChord.obj
 0001:00058658       ?GetHotkeyName@ConEmuChord@@SAPEB_WAEAY0IA@_WKW4ConEmuHotKeyType@@_N@Z 0000000140059658 f   HotkeyChord.obj
 0001:000587e4       ?GetMatchByVk@CEVkMatch@@SA_NEAEAU1@@Z 00000001400597e4 f   HotkeyChord.obj
 0001:00058900       ?GetModifier@ConEmuChord@@SAKKH@Z 0000000140059900 f   HotkeyChord.obj
 0001:00058978       ?GetModifiers@ConEmuChord@@QEBAIAEAY02E@Z 0000000140059978 f   HotkeyChord.obj
 0001:000589e8       ?GetVkByKeyName@ConEmuChord@@SAIPEB_WPEAHPEAK@Z 00000001400599e8 f   HotkeyChord.obj
 0001:00058b10       ?GetVkKeyName@ConEmuChord@@SAXEAEAY0CA@_W_N@Z 0000000140059b10 f   HotkeyChord.obj
 0001:00058e50       ?GetVkMod@ConEmuChord@@QEBAKW4ConEmuHotKeyType@@@Z 0000000140059e50 f   HotkeyChord.obj
 0001:00058f28       ?HasModifier@ConEmuChord@@SA_NKE@Z 0000000140059f28 f   HotkeyChord.obj
 0001:00058f7c       ?IsEmpty@ConEmuChord@@QEBA_NXZ 0000000140059f7c f   HotkeyChord.obj
 0001:00058f84       ?IsEqual@ConEmuChord@@QEBA_NAEBU1@@Z 0000000140059f84 f   HotkeyChord.obj
 0001:00058f90       ?IsEqual@ConEmuChord@@QEBA_NEK@Z 0000000140059f90 f   HotkeyChord.obj
 0001:00058fd0       ?MakeHotKey@ConEmuChord@@SAKEEEE@Z 0000000140059fd0 f   HotkeyChord.obj
 0001:00059028       ?Set@ConEmuChord@@QEAAXEK@Z 000000014005a028 f   HotkeyChord.obj
 0001:00059030       ?SetHotKey@ConEmuChord@@QEAAXW4ConEmuHotKeyType@@EEEE@Z 000000014005a030 f   HotkeyChord.obj
 0001:00059070       ?SetModifier@ConEmuChord@@SAKKE_N@Z 000000014005a070 f   HotkeyChord.obj
 0001:000591f0       ?SetVkMod@ConEmuChord@@QEAAXW4ConEmuHotKeyType@@K@Z 000000014005a1f0 f   HotkeyChord.obj
 0001:0005925c       ?TestHostkeyModifiers@ConEmuChord@@SAXAEAK@Z 000000014005a25c f   HotkeyChord.obj
 0001:000593c8       ??0CHotKeyDialog@@QEAA@PEAUHWND__@@K@Z 000000014005a3c8 f   HotkeyDlg.obj
 0001:00059434       ??1CHotKeyDialog@@QEAA@XZ  000000014005a434 f   HotkeyDlg.obj
 0001:00059440       ?EditHotKey@CHotKeyDialog@@SA_NPEAUHWND__@@AEAK@Z 000000014005a440 f   HotkeyDlg.obj
 0001:000594d4       ?FillModifierBoxes@CHotKeyDialog@@SAXAEBUConEmuHotKey@@PEAUHWND__@@@Z 000000014005a4d4 f   HotkeyDlg.obj
 0001:0005953c       ?SetHotkeyField@CHotKeyDialog@@SAXPEAUHWND__@@E@Z 000000014005a53c f   HotkeyDlg.obj
 0001:00059570       ?dlgGetHotkey@CHotKeyDialog@@SAKPEAUHWND__@@II@Z 000000014005a570 f   HotkeyDlg.obj
 0001:00059660       ?hkDlgProc@CHotKeyDialog@@SA_JPEAUHWND__@@I_K_J@Z 000000014005a660 f   HotkeyDlg.obj
 0001:00059a0c       ??$_Emplace_reallocate@AEBUConEmuHotKey@@@?$vector@UConEmuHotKey@@V?$MArrayAllocator@UConEmuHotKey@@@@@std@@QEAAPEAUConEmuHotKey@@QEAU2@AEBU2@@Z 000000014005aa0c f i HotkeyList.obj
 0001:00059c0c       ??$emplace_back@AEBUConEmuHotKey@@@?$vector@UConEmuHotKey@@V?$MArrayAllocator@UConEmuHotKey@@@@@std@@QEAAXAEBUConEmuHotKey@@@Z 000000014005ac0c f i HotkeyList.obj
 0001:00059ca8       ?Add@ConEmuHotKeyList@@IEAAPEAUConEmuHotKey@@HW4ConEmuHotKeyType@@P6A_NXZPEB_WP6A_NAEBUConEmuChord@@_NPEBU2@PEAVCRealConsole@@@Z42@Z 000000014005aca8 f   HotkeyList.obj
 0001:00059d9c       ?AllocateHotkeys@ConEmuHotKeyList@@QEAAHXZ 000000014005ad9c f   HotkeyList.obj
 0001:0005cf40       ?FindHotKey@ConEmuHotKeyList@@QEAAPEBUConEmuHotKey@@AEBUConEmuChord@@PEAVCRealConsole@@@Z 000000014005df40 f   HotkeyList.obj
 0001:0005d018       ?GetHotKeyInfo@ConEmuHotKeyList@@QEAAPEBUConEmuHotKey@@AEBUConEmuChord@@_NPEAVCRealConsole@@@Z 000000014005e018 f   HotkeyList.obj
 0001:0005d044       ?GetHotKeyPtr@ConEmuHotKeyList@@QEAAPEBUConEmuHotKey@@H@Z 000000014005e044 f   HotkeyList.obj
 0001:0005d0ec       ?ReleaseHotkeys@ConEmuHotKeyList@@QEAAXXZ 000000014005e0ec f   HotkeyList.obj
 0001:0005d17c       ?UpdateArrowModifier@ConEmuHotKeyList@@QEAAXXZ 000000014005e17c f   HotkeyList.obj
 0001:0005d1fc       ?UpdateNumberModifier@ConEmuHotKeyList@@QEAAXXZ 000000014005e1fc f   HotkeyList.obj
 0001:0005d27c       ?CanChangeVK@ConEmuHotKey@@QEBA_NXZ 000000014005e27c f   Hotkeys.obj
 0001:0005d294       ?CreateNotUniqueWarning@ConEmuHotKey@@SAPEB_WPEB_W00AEAUCEStr@@@Z 000000014005e294 f   Hotkeys.obj
 0001:0005d390       ?Equal@ConEmuHotKey@@QEAA_NEEEE@Z 000000014005e390 f   Hotkeys.obj
 0001:0005d3ec       ?GetDescription@ConEmuHotKey@@QEBAPEB_WPEA_WH_N@Z 000000014005e3ec f   Hotkeys.obj
 0001:0005d700       ?GetHotkeyName@ConEmuHotKey@@QEBAPEB_WAEAY0IA@_W_N@Z 000000014005e700 f   Hotkeys.obj
 0001:0005d748       ?GetTaskIndex@ConEmuHotKey@@QEBAHXZ 000000014005e748 f   Hotkeys.obj
 0001:0005d75c       ?GetVkMod@ConEmuHotKey@@QEBAKXZ 000000014005e75c f   Hotkeys.obj
 0001:0005d76c       ?InSelection@ConEmuHotKey@@SA_NXZ 000000014005e76c f   Hotkeys.obj
 0001:0005d7c4       ?SetHotKey@ConEmuHotKey@@QEAAXEEEE@Z 000000014005e7c4 f   Hotkeys.obj
 0001:0005d7f4       ?SetTaskIndex@ConEmuHotKey@@QEAAXH@Z 000000014005e7f4 f   Hotkeys.obj
 0001:0005d804       ?SetVkMod@ConEmuHotKey@@QEAAXK@Z 000000014005e804 f   Hotkeys.obj
 0001:0005d81c       ?UseCTSShiftArrow@ConEmuHotKey@@SA_NXZ 000000014005e81c f   Hotkeys.obj
 0001:0005d8b8       ?UseCtrlBS@ConEmuHotKey@@SA_NXZ 000000014005e8b8 f   Hotkeys.obj
 0001:0005d8e0       ?UseCtrlTab@ConEmuHotKey@@SA_NXZ 000000014005e8e0 f   Hotkeys.obj
 0001:0005d8f0       ?UseDndLKey@ConEmuHotKey@@SA_NXZ 000000014005e8f0 f   Hotkeys.obj
 0001:0005d900       ?UseDndRKey@ConEmuHotKey@@SA_NXZ 000000014005e900 f   Hotkeys.obj
 0001:0005d914       ?UsePromptFind@ConEmuHotKey@@SA_NXZ 000000014005e914 f   Hotkeys.obj
 0001:0005d9ec       ?UseWinArrows@ConEmuHotKey@@SA_NXZ 000000014005e9ec f   Hotkeys.obj
 0001:0005d9fc       ?UseWinNumber@ConEmuHotKey@@SA_NXZ 000000014005e9fc f   Hotkeys.obj
 0001:0005da2c       ?UseWndDragKey@ConEmuHotKey@@SA_NXZ 000000014005ea2c f   Hotkeys.obj
 0001:0005da3c       ??$sprintf_c@$0PP@@@YAHAEAY0PP@DPEBDZZ 000000014005ea3c f i HtmlCopy.obj
 0001:0005da68       ??$swprintf_c@$0HNA@@@YAHAEAY0HNA@_WPEB_WZZ 000000014005ea68 f i HtmlCopy.obj
 0001:0005da94       ??$wcscpy_c@$0BAA@@@YAHAEAY0BAA@_WPEB_W@Z 000000014005ea94 f i HtmlCopy.obj
 0001:0005dae0       ??0CAnsiCopy@@QEAA@AEBV?$array@K$0BA@@std@@KK@Z 000000014005eae0 f   HtmlCopy.obj
 0001:0005db68       ??0CFormatCopy@@QEAA@XZ    000000014005eb68 f   HtmlCopy.obj
 0001:0005dbb4       ??0CHtmlCopy@@QEAA@_NPEB_W1HKK@Z 000000014005ebb4 f   HtmlCopy.obj
 0001:0005dcdc       ??1CFormatCopy@@UEAA@XZ    000000014005ecdc f   HtmlCopy.obj
 0001:0005dd78       ??_GCAnsiCopy@@UEAAPEAXI@Z 000000014005ed78 f i HtmlCopy.obj
 0001:0005dd78       ??_ECAnsiCopy@@UEAAPEAXI@Z 000000014005ed78 f i HtmlCopy.obj
 0001:0005ddb8       ??_ECFormatCopy@@UEAAPEAXI@Z 000000014005edb8 f i HtmlCopy.obj
 0001:0005ddb8       ??_GCFormatCopy@@UEAAPEAXI@Z 000000014005edb8 f i HtmlCopy.obj
 0001:0005ddec       ??_ECHtmlCopy@@UEAAPEAXI@Z 000000014005edec f i HtmlCopy.obj
 0001:0005ddec       ??_GCHtmlCopy@@UEAAPEAXI@Z 000000014005edec f i HtmlCopy.obj
 0001:0005de2c       ?CreateResult@CAnsiCopy@@UEAAPEAXXZ 000000014005ee2c f   HtmlCopy.obj
 0001:0005de8c       ?CreateResult@CHtmlCopy@@UEAAPEAXXZ 000000014005ee8c f   HtmlCopy.obj
 0001:0005dfec       ?CreateResultInternal@CFormatCopy@@IEAAPEAXPEBD_J@Z 000000014005efec f   HtmlCopy.obj
 0001:0005e1bc       ?FormatColor@CAnsiCopy@@IEAAPEB_WKK_N00AEAY0FA@_W@Z 000000014005f1bc f   HtmlCopy.obj
 0001:0005e474       ?FormatColor@CHtmlCopy@@IEAAPEB_WKPEA_W@Z 000000014005f474 f   HtmlCopy.obj
 0001:0005e4b8       ?LineAdd@CFormatCopy@@UEAAXPEB_WPEBGAEBV?$array@K$0BA@@std@@_J@Z 000000014005f4b8 f   HtmlCopy.obj
 0001:0005e584       ?LineAdd@CFormatCopy@@UEAAXPEB_WPEBUtag_CharAttr@@_J@Z 000000014005f584 f   HtmlCopy.obj
 0001:0005e668       ?ParBegin@CAnsiCopy@@MEAAXXZ 000000014005f668 f   HtmlCopy.obj
 0001:0005e690       ?ParBegin@CHtmlCopy@@MEAAXXZ 000000014005f690 f   HtmlCopy.obj
 0001:0005e6b8       ?ParEnd@CAnsiCopy@@MEAAXXZ 000000014005f6b8 f   HtmlCopy.obj
 0001:0005e6e4       ?ParEnd@CHtmlCopy@@MEAAXXZ 000000014005f6e4 f   HtmlCopy.obj
 0001:0005e710       ?RawAdd@CFormatCopy@@IEAAXPEB_W_J@Z 000000014005f710 f   HtmlCopy.obj
 0001:0005e854       ?TextAdd@CAnsiCopy@@MEAAXPEB_W_JKK_N22@Z 000000014005f854 f   HtmlCopy.obj
 0001:0005e970       ?TextAdd@CHtmlCopy@@MEAAXPEB_W_JKK_N22@Z 000000014005f970 f   HtmlCopy.obj
 0001:0005ed00       ??0CIconList@@QEAA@XZ      000000014005fd00 f   IconList.obj
 0001:0005ed80       ??1CIconList@@QEAA@XZ      000000014005fd80 f   IconList.obj
 0001:0005ee2c       ?CreateTabIcon@CIconList@@QEAAHPEB_W_N0@Z 000000014005fe2c f   IconList.obj
 0001:0005efd4       ?CreateTabIconInt@CIconList@@IEAAHPEB_W_N0@Z 000000014005ffd4 f   IconList.obj
 0001:0005f540       ?GetIconInfoStr@CIconList@@SAPEB_WPEAUHICON__@@AEAY0FA@_W@Z 0000000140060540 f   IconList.obj
 0001:0005f5e0       ?GetTabIcon@CIconList@@QEAAH_N@Z 00000001400605e0 f   IconList.obj
 0001:0005f60c       ?GetTabIconByIndex@CIconList@@QEAAPEAUHICON__@@H@Z 000000014006060c f   IconList.obj
 0001:0005f62c       ?Initialize@CIconList@@QEAA_NXZ 000000014006062c f   IconList.obj
 0001:0005f8e0       ?IsInitialized@CIconList@@QEAA_NXZ 00000001400608e0 f   IconList.obj
 0001:0005f8ec       ?ParseIconFileIndex@CIconList@@SAPEB_WAEAUCEStr@@AEAH@Z 00000001400608ec f   IconList.obj
 0001:0005f980       ??$SafeDelete@VCToolImg@@@@YAXAEAPEAVCToolImg@@@Z 0000000140060980 f i ImgButton.obj
 0001:0005f9c8       ??$_Emplace_reallocate@AEBUBtnInfo@@@?$vector@UBtnInfo@@V?$MArrayAllocator@UBtnInfo@@@@@std@@QEAAPEAUBtnInfo@@QEAU2@AEBU2@@Z 00000001400609c8 f i ImgButton.obj
 0001:0005fb7c       ??0CImgButtons@@QEAA@PEAUHWND__@@HH@Z 0000000140060b7c f   ImgButton.obj
 0001:0005fbc4       ??1CImgButtons@@QEAA@XZ    0000000140060bc4 f   ImgButton.obj
 0001:0005fcac       ?Add@CImgButtons@@IEAAXPEB_WP6APEAVCToolImg@@XZI0P6AXXZ@Z 0000000140060cac f   ImgButton.obj
 0001:0005fd64       ?AddDonateButtons@CImgButtons@@QEAAXXZ 0000000140060d64 f   ImgButton.obj
 0001:0005fdac       ?GetBtnInfo@CImgButtons@@IEAA_NIPEAPEAUBtnInfo@@@Z 0000000140060dac f   ImgButton.obj
 0001:0005fe20       ?ImplementButtons@CImgButtons@@IEAAXXZ 0000000140060e20 f   ImgButton.obj
 0001:0006000c       ?Process@CImgButtons@@QEAA_NPEAUHWND__@@I_K_JAEA_J@Z 000000014006100c f   ImgButton.obj
 0001:00060128       ?RegisterTip@CImgButtons@@IEAAXXZ 0000000140061128 f   ImgButton.obj
 0001:000602ec       ?push_back@?$MArray@UBtnInfo@@@@QEAA_JAEBUBtnInfo@@@Z 00000001400612ec f i ImgButton.obj
 0001:00060378       ??0CConEmuInside@@QEAA@XZ  0000000140061378 f   Inside.obj
 0001:0006040c       ??1CConEmuInside@@UEAA@XZ  000000014006140c f   Inside.obj
 0001:00060468       ??_GCConEmuInside@@UEAAPEAXI@Z 0000000140061468 f i Inside.obj
 0001:00060468       ??_ECConEmuInside@@UEAAPEAXI@Z 0000000140061468 f i Inside.obj
 0001:000604fc       ?CheckInsideFocus@CConEmuInside@@QEAAPEAUHWND__@@XZ 00000001400614fc f   Inside.obj
 0001:000606bc       ?EnumInsideFindParent@CConEmuInside@@CAHPEAUHWND__@@_J@Z 00000001400616bc f   Inside.obj
 0001:00060728       ?GetInsideRect@CConEmuInside@@QEAA_NPEAUtagRECT@@@Z 0000000140061728 f   Inside.obj
 0001:0006086c       ?GetParentRoot@CConEmuInside@@QEAAPEAUHWND__@@XZ 000000014006186c f   Inside.obj
 0001:000608c0       ?InitInside@CConEmuInside@@SA_N_N0PEB_WKPEAUHWND__@@@Z 00000001400618c0 f   Inside.obj
 0001:000609b8       ?InsideFindConEmu@CConEmuInside@@AEAAPEAUHWND__@@PEAU2@@Z 00000001400619b8 f   Inside.obj
 0001:00060a68       ?InsideFindParent@CConEmuInside@@QEAAPEAUHWND__@@XZ 0000000140061a68 f   Inside.obj
 0001:00060e74       ?InsideFindShellView@CConEmuInside@@AEAA_NPEAUHWND__@@@Z 0000000140061e74 f   Inside.obj
 0001:00061174       ?InsideParentMonitor@CConEmuInside@@QEAAXXZ 0000000140062174 f   Inside.obj
 0001:0006119c       ?InsideUpdateDir@CConEmuInside@@AEAAXXZ 000000014006219c f   Inside.obj
 0001:00061388       ?InsideUpdatePlacement@CConEmuInside@@AEAAXXZ 0000000140062388 f   Inside.obj
 0001:00061578       ?SendVkKeySequence@CConEmuInside@@AEAA_NPEAUHWND__@@PEAG@Z 0000000140062578 f   Inside.obj
 0001:00061768       ?SetInsideParentWND@CConEmuInside@@QEAAXPEAUHWND__@@@Z 0000000140062768 f   Inside.obj
 0001:00061848       ?TurnExplorerTipPane@CConEmuInside@@AEAA_NAEAY0IA@_W@Z 0000000140062848 f   Inside.obj
 0001:00061a30       ?inMinimizing@CConEmuInside@@QEAA_NPEAUtagWINDOWPOS@@@Z 0000000140062a30 f   Inside.obj
 0001:00061a44       ?isParentIconic@CConEmuInside@@QEAA_NXZ 0000000140062a44 f   Inside.obj
 0001:00061a80       ?isParentProcess@CConEmuInside@@QEAA_NPEAUHWND__@@@Z 0000000140062a80 f   Inside.obj
 0001:00061acc       ?Initialize@CLngPredefined@@SAXXZ 0000000140062acc f   LngData.obj
 0001:00061b10       ?compare@LngPredefined@@SAHPEBX0@Z 0000000140062b10 f i LngData.obj
 0001:00061b18       ?getHint@CLngPredefined@@SAPEB_WI@Z 0000000140062b18 f   LngData.obj
 0001:00061b60       ?getRsrc@CLngPredefined@@SAPEB_WI@Z 0000000140062b60 f   LngData.obj
 0001:00061ba8       ??$SafeDelete@VMJsonValue@@@@YAXAEAPEAVMJsonValue@@@Z 0000000140062ba8 f i LngRc.obj
 0001:00061bf0       ??$_Resize_reallocate@U_Value_init_tag@std@@@?$vector@ULngRcItem@CLngRc@@V?$MArrayAllocator@ULngRcItem@CLngRc@@@@@std@@AEAAX_KAEBU_Value_init_tag@1@@Z 0000000140062bf0 f i LngRc.obj
 0001:00061cf0       ??$_Uninitialized_value_construct_n@V?$MArrayAllocator@ULngRcItem@CLngRc@@@@@std@@YAPEAULngRcItem@CLngRc@@PEAU12@_KAEAV?$MArrayAllocator@ULngRcItem@CLngRc@@@@@Z 0000000140062cf0 f i LngRc.obj
 0001:00061d28       ??0CLngRc@@QEAA@XZ         0000000140062d28 f   LngRc.obj
 0001:00061de4       ??1CLngRc@@QEAA@XZ         0000000140062de4 f   LngRc.obj
 0001:00061e9c       ?Clean@CLngRc@@IEAAXAEAV?$MArray@ULngRcItem@CLngRc@@@@@Z 0000000140062e9c f   LngRc.obj
 0001:00061f14       ?Clear@CLngRc@@IEAAXAEAV?$MArray@ULngDefinition@CLngRc@@@@@Z 0000000140062f14 f   LngRc.obj
 0001:00061fc8       ?GetResource@CLngRc@@IEAA_NAEAV?$MArray@ULngRcItem@CLngRc@@@@HAEAUCEStr@@PEB_W@Z 0000000140062fc8 f   LngRc.obj
 0001:0006202c       ?Initialize@CLngRc@@SAXXZ  000000014006302c f   LngRc.obj
 0001:00062070       ?LoadLanguages@CLngRc@@IEAA_NPEAVMJsonValue@@@Z 0000000140063070 f   LngRc.obj
 0001:00062284       ?LoadResources@CLngRc@@IEAA_NPEB_W0@Z 0000000140063284 f   LngRc.obj
 0001:000626ac       ?LoadSection@CLngRc@@IEAA_NPEAVMJsonValue@@AEAV?$MArray@ULngRcItem@CLngRc@@@@H@Z 00000001400636ac f   LngRc.obj
 0001:00062918       ?Reload@CLngRc@@QEAAX_N@Z  0000000140063918 f   LngRc.obj
 0001:00062bb0       ?SetResource@CLngRc@@IEAA_NAEAV?$MArray@ULngRcItem@CLngRc@@@@HPEAVMJsonValue@@@Z 0000000140063bb0 f   LngRc.obj
 0001:00062ccc       ?SetResource@CLngRc@@IEAA_NAEAV?$MArray@ULngRcItem@CLngRc@@@@HPEB_W_N@Z 0000000140063ccc f   LngRc.obj
 0001:00062e00       ?_Reallocate_exactly@?$vector@ULngRcItem@CLngRc@@V?$MArrayAllocator@ULngRcItem@CLngRc@@@@@std@@AEAAX_K@Z 0000000140063e00 f i LngRc.obj
 0001:00062ea0       ?getControl@CLngRc@@SAPEB_WJAEAUCEStr@@PEB_W@Z 0000000140063ea0 f   LngRc.obj
 0001:00062eec       ?getHint@CLngRc@@SA_NIPEA_W_K@Z 0000000140063eec f   LngRc.obj
 0001:00062fe4       ?getLanguage@CLngRc@@SAPEB_WXZ 0000000140063fe4 f   LngRc.obj
 0001:0006301c       ?getLanguages@CLngRc@@SA_NAEAV?$MArray@PEB_W@@@Z 000000014006401c f   LngRc.obj
 0001:00063138       ?getRsrc@CLngRc@@SAPEB_WIPEAUCEStr@@@Z 0000000140064138 f   LngRc.obj
 0001:000631e0       ?isLocalized@CLngRc@@SA_NXZ 00000001400641e0 f   LngRc.obj
 0001:00063218       ?loadString@CLngRc@@KA_NIPEA_W_K@Z 0000000140064218 f   LngRc.obj
 0001:00063250       ?resize@?$MArray@ULngRcItem@CLngRc@@@@QEAA_N_J@Z 0000000140064250 f i LngRc.obj
 0001:000632c4       ?set_at@?$MArray@ULngRcItem@CLngRc@@@@QEAA_J_JAEBULngRcItem@CLngRc@@@Z 00000001400642c4 f i LngRc.obj
 0001:00063330       ??_EMStream@@UEAAPEAXI@Z   0000000140064330 f i LoadImg.obj
 0001:00063330       ??_GMStream@@UEAAPEAXI@Z   0000000140064330 f i LoadImg.obj
 0001:000633a8       ?AddRef@MStream@@UEAAKXZ   00000001400643a8 f i LoadImg.obj
 0001:000633bc       ?CopyTo@MStream@@UEAAJPEAUIStream@@T_ULARGE_INTEGER@@PEAT3@2@Z 00000001400643bc f i LoadImg.obj
 0001:000633bc       ?LockRegion@MStream@@UEAAJT_ULARGE_INTEGER@@0K@Z 00000001400643bc f i LoadImg.obj
 0001:000633bc       ?Revert@MStream@@UEAAJXZ   00000001400643bc f i LoadImg.obj
 0001:000633bc       ?Clone@MStream@@UEAAJPEAPEAUIStream@@@Z 00000001400643bc f i LoadImg.obj
 0001:000633bc       ?UnlockRegion@MStream@@UEAAJT_ULARGE_INTEGER@@0K@Z 00000001400643bc f i LoadImg.obj
 0001:000633c4       ?Commit@MStream@@UEAAJK@Z  00000001400643c4 f i LoadImg.obj
 0001:000633d0       ?CreateSolidImage@@YAPEAUtagBITMAPFILEHEADER@@KII@Z 00000001400643d0 f   LoadImg.obj
 0001:00063510       ?GetCodecClsid@@YAHPEB_WPEAU_GUID@@@Z 0000000140064510 f   LoadImg.obj
 0001:00063810       ?LoadImageEx@@YAPEAUtagBITMAPFILEHEADER@@PEB_WAEAU_BY_HANDLE_FILE_INFORMATION@@@Z 0000000140064810 f   LoadImg.obj
 0001:00063998       ?LoadImageFinalize@@YAXXZ  0000000140064998 f   LoadImg.obj
 0001:000639e8       ?LoadImageGdip@@YAPEAUtagBITMAPFILEHEADER@@PEB_W@Z 00000001400649e8 f   LoadImg.obj
 0001:00063cbc       ?QueryInterface@MStream@@UEAAJAEBU_GUID@@PEAPEAX@Z 0000000140064cbc f i LoadImg.obj
 0001:00063d24       ?Read@MStream@@UEAAJPEAXKPEAK@Z 0000000140064d24 f i LoadImg.obj
 0001:00063d98       ?Release@MStream@@UEAAKXZ  0000000140064d98 f i LoadImg.obj
 0001:00063dc8       ?SaveImageEx@@YA_NPEB_WPEAEK@Z 0000000140064dc8 f   LoadImg.obj
 0001:00063f38       ?SaveImageEx@@YA_NPEB_WPEAUHBITMAP__@@@Z 0000000140064f38 f   LoadImg.obj
 0001:0006402c       ?Seek@MStream@@UEAAJT_LARGE_INTEGER@@KPEAT_ULARGE_INTEGER@@@Z 000000014006502c f i LoadImg.obj
 0001:00064090       ?SetSize@MStream@@UEAAJT_ULARGE_INTEGER@@@Z 0000000140065090 f i LoadImg.obj
 0001:0006413c       ?Stat@MStream@@UEAAJPEAUtagSTATSTG@@K@Z 000000014006513c f i LoadImg.obj
 0001:000641b8       ?Write@MStream@@UEAAJPEBXKPEAK@Z 00000001400651b8 f i LoadImg.obj
 0001:00064284       ?About@ConEmuMacro@@YAPEA_WPEAUGuiMacro@@PEAVCRealConsole@@_N@Z 0000000140065284 f   Macro.obj
 0001:000642cc       ?AffinityPriority@ConEmuMacro@@YAPEA_WPEAUGuiMacro@@PEAVCRealConsole@@_N@Z 00000001400652cc f   Macro.obj
 0001:0006434c       ?AltNumber@ConEmuMacro@@YAPEA_WPEAUGuiMacro@@PEAVCRealConsole@@_N@Z 000000014006534c f   Macro.obj
 0001:000643a0       ?Attach@ConEmuMacro@@YAPEA_WPEAUGuiMacro@@PEAVCRealConsole@@_N@Z 00000001400653a0 f   Macro.obj
 0001:0006444c       ?Break@ConEmuMacro@@YAPEA_WPEAUGuiMacro@@PEAVCRealConsole@@_N@Z 000000014006544c f   Macro.obj
 0001:000644d8       ?Close@ConEmuMacro@@YAPEA_WPEAUGuiMacro@@PEAVCRealConsole@@_N@Z 00000001400654d8 f   Macro.obj
 0001:00064764       ?Context@ConEmuMacro@@YAPEA_WPEAUGuiMacro@@PEAVCRealConsole@@_N@Z 0000000140065764 f   Macro.obj
 0001:000647cc       ?Copy@ConEmuMacro@@YAPEA_WPEAUGuiMacro@@PEAVCRealConsole@@_N@Z 00000001400657cc f   Macro.obj
 0001:00064900       ?Debug@ConEmuMacro@@YAPEA_WPEAUGuiMacro@@PEAVCRealConsole@@_N@Z 0000000140065900 f   Macro.obj
 0001:0006498c       ?Detach@ConEmuMacro@@YAPEA_WPEAUGuiMacro@@PEAVCRealConsole@@_N@Z 000000014006598c f   Macro.obj
 0001:000649f0       ?EnvironmentReload@ConEmuMacro@@YAPEA_WPEAUGuiMacro@@PEAVCRealConsole@@_N@Z 00000001400659f0 f   Macro.obj
 0001:00064a14       ?EnvironmentList@ConEmuMacro@@YAPEA_WPEAUGuiMacro@@PEAVCRealConsole@@_N@Z 0000000140065a14 f   Macro.obj
 0001:00064c94       ?FindEditor@ConEmuMacro@@YAPEA_WPEAUGuiMacro@@PEAVCRealConsole@@_N@Z 0000000140065c94 f   Macro.obj
 0001:00064cfc       ?FindFarWindow@ConEmuMacro@@YAPEA_WPEAUGuiMacro@@PEAVCRealConsole@@_N@Z 0000000140065cfc f   Macro.obj
 0001:00064d88       ?FindViewer@ConEmuMacro@@YAPEA_WPEAUGuiMacro@@PEAVCRealConsole@@_N@Z 0000000140065d88 f   Macro.obj
 0001:00064df0       ?Flash@ConEmuMacro@@YAPEA_WPEAUGuiMacro@@PEAVCRealConsole@@_N@Z 0000000140065df0 f   Macro.obj
 0001:00064ef0       ?FontSetName@ConEmuMacro@@YAPEA_WPEAUGuiMacro@@PEAVCRealConsole@@_N@Z 0000000140065ef0 f   Macro.obj
 0001:00064f98       ?FontSetSize@ConEmuMacro@@YAPEA_WPEAUGuiMacro@@PEAVCRealConsole@@_N@Z 0000000140065f98 f   Macro.obj
 0001:00065004       ?GetInfo@ConEmuMacro@@YAPEA_WPEAUGuiMacro@@PEAVCRealConsole@@_N@Z 0000000140066004 f   Macro.obj
 0001:000653b0       ?GetOption@ConEmuMacro@@YAPEA_WPEAUGuiMacro@@PEAVCRealConsole@@_N@Z 00000001400663b0 f   Macro.obj
 0001:000654f4       ?GroupInput@ConEmuMacro@@YAPEA_WPEAUGuiMacro@@PEAVCRealConsole@@_N@Z 00000001400664f4 f   Macro.obj
 0001:00065594       ?HighlightMouse@ConEmuMacro@@YAPEA_WPEAUGuiMacro@@PEAVCRealConsole@@_N@Z 0000000140066594 f   Macro.obj
 0001:00065624       ?IsConEmu@ConEmuMacro@@YAPEA_WPEAUGuiMacro@@PEAVCRealConsole@@_N@Z 0000000140066624 f   Macro.obj
 0001:00065634       ?IsConsoleActive@ConEmuMacro@@YAPEA_WPEAUGuiMacro@@PEAVCRealConsole@@_N@Z 0000000140066634 f   Macro.obj
 0001:00065668       ?IsRealVisible@ConEmuMacro@@YAPEA_WPEAUGuiMacro@@PEAVCRealConsole@@_N@Z 0000000140066668 f   Macro.obj
 0001:000656a0       ?Keys@ConEmuMacro@@YAPEA_WPEAUGuiMacro@@PEAVCRealConsole@@_N@Z 00000001400666a0 f   Macro.obj
 0001:00065998       ?Menu@ConEmuMacro@@YAPEA_WPEAUGuiMacro@@PEAVCRealConsole@@_N@Z 0000000140066998 f   Macro.obj
 0001:00065abc       ?MsgBox@ConEmuMacro@@YAPEA_WPEAUGuiMacro@@PEAVCRealConsole@@_N@Z 0000000140066abc f   Macro.obj
 0001:00065bb4       ?Palette@ConEmuMacro@@YAPEA_WPEAUGuiMacro@@PEAVCRealConsole@@_N@Z 0000000140066bb4 f   Macro.obj
 0001:00065e0c       ?Paste@ConEmuMacro@@YAPEA_WPEAUGuiMacro@@PEAVCRealConsole@@_N@Z 0000000140066e0c f   Macro.obj
 0001:00065fec       ?PasteExplorerPath@ConEmuMacro@@YAPEA_WPEAUGuiMacro@@PEAVCRealConsole@@_N@Z 0000000140066fec f   Macro.obj
 0001:0006608c       ?PasteFile@ConEmuMacro@@YAPEA_WPEAUGuiMacro@@PEAVCRealConsole@@_N@Z 000000014006708c f   Macro.obj
 0001:00066238       ?Pause@ConEmuMacro@@YAPEA_WPEAUGuiMacro@@PEAVCRealConsole@@_N@Z 0000000140067238 f   Macro.obj
 0001:000662ac       ?Print@ConEmuMacro@@YAPEA_WPEAUGuiMacro@@PEAVCRealConsole@@_N@Z 00000001400672ac f   Macro.obj
 0001:00066320       ?Progress@ConEmuMacro@@YAPEA_WPEAUGuiMacro@@PEAVCRealConsole@@_N@Z 0000000140067320 f   Macro.obj
 0001:000663cc       ?Recreate@ConEmuMacro@@YAPEA_WPEAUGuiMacro@@PEAVCRealConsole@@_N@Z 00000001400673cc f   Macro.obj
 0001:000664a8       ?Rename@ConEmuMacro@@YAPEA_WPEAUGuiMacro@@PEAVCRealConsole@@_N@Z 00000001400674a8 f   Macro.obj
 0001:00066550       ?Scroll@ConEmuMacro@@YAPEA_WPEAUGuiMacro@@PEAVCRealConsole@@_N@Z 0000000140067550 f   Macro.obj
 0001:00066680       ?Select@ConEmuMacro@@YAPEA_WPEAUGuiMacro@@PEAVCRealConsole@@_N@Z 0000000140067680 f   Macro.obj
 0001:0006684c       ?SetDpi@ConEmuMacro@@YAPEA_WPEAUGuiMacro@@PEAVCRealConsole@@_N@Z 000000014006784c f   Macro.obj
 0001:000668e8       ?SetFocus@ConEmuMacro@@YAPEA_WPEAUGuiMacro@@PEAVCRealConsole@@_N@Z 00000001400678e8 f   Macro.obj
 0001:0006690c       ?SetOption@ConEmuMacro@@YAPEA_WPEAUGuiMacro@@PEAVCRealConsole@@_N@Z 000000014006790c f   Macro.obj
 0001:00066dfc       ?SetParentHWND@ConEmuMacro@@YAPEA_WPEAUGuiMacro@@PEAVCRealConsole@@_N@Z 0000000140067dfc f   Macro.obj
 0001:00066e84       ?Settings@ConEmuMacro@@YAPEA_WPEAUGuiMacro@@PEAVCRealConsole@@_N@Z 0000000140067e84 f   Macro.obj
 0001:00066ecc       ?Shell@ConEmuMacro@@YAPEA_WPEAUGuiMacro@@PEAVCRealConsole@@_N@Z 0000000140067ecc f   Macro.obj
 0001:00067620       ?Sleep@ConEmuMacro@@YAPEA_WPEAUGuiMacro@@PEAVCRealConsole@@_N@Z 0000000140068620 f   Macro.obj
 0001:00067778       ?Split@ConEmuMacro@@YAPEA_WPEAUGuiMacro@@PEAVCRealConsole@@_N@Z 0000000140068778 f   Macro.obj
 0001:00067938       ?Status@ConEmuMacro@@YAPEA_WPEAUGuiMacro@@PEAVCRealConsole@@_N@Z 0000000140068938 f   Macro.obj
 0001:000679f0       ?Tab@ConEmuMacro@@YAPEA_WPEAUGuiMacro@@PEAVCRealConsole@@_N@Z 00000001400689f0 f   Macro.obj
 0001:00067d40       ?Task@ConEmuMacro@@YAPEA_WPEAUGuiMacro@@PEAVCRealConsole@@_N@Z 0000000140068d40 f   Macro.obj
 0001:00067f40       ?TaskAdd@ConEmuMacro@@YAPEA_WPEAUGuiMacro@@PEAVCRealConsole@@_N@Z 0000000140068f40 f   Macro.obj
 0001:000680c4       ?TermMode@ConEmuMacro@@YAPEA_WPEAUGuiMacro@@PEAVCRealConsole@@_N@Z 00000001400690c4 f   Macro.obj
 0001:00068154       ?Transparency@ConEmuMacro@@YAPEA_WPEAUGuiMacro@@PEAVCRealConsole@@_N@Z 0000000140069154 f   Macro.obj
 0001:000681b0       ?Unfasten@ConEmuMacro@@YAPEA_WPEAUGuiMacro@@PEAVCRealConsole@@_N@Z 00000001400691b0 f   Macro.obj
 0001:000681e8       ?Update@ConEmuMacro@@YAPEA_WPEAUGuiMacro@@PEAVCRealConsole@@_N@Z 00000001400691e8 f   Macro.obj
 0001:0006821c       ?Wiki@ConEmuMacro@@YAPEA_WPEAUGuiMacro@@PEAVCRealConsole@@_N@Z 000000014006921c f   Macro.obj
 0001:00068250       ?WindowFullscreen@ConEmuMacro@@YAPEA_WPEAUGuiMacro@@PEAVCRealConsole@@_N@Z 0000000140069250 f   Macro.obj
 0001:00068284       ?WindowMaximize@ConEmuMacro@@YAPEA_WPEAUGuiMacro@@PEAVCRealConsole@@_N@Z 0000000140069284 f   Macro.obj
 0001:00068300       ?WindowMinimize@ConEmuMacro@@YAPEA_WPEAUGuiMacro@@PEAVCRealConsole@@_N@Z 0000000140069300 f   Macro.obj
 0001:00068370       ?WindowMode@ConEmuMacro@@YAPEA_WPEAUGuiMacro@@PEAVCRealConsole@@_N@Z 0000000140069370 f   Macro.obj
 0001:000686ec       ?WindowPosSize@ConEmuMacro@@YAPEA_WPEAUGuiMacro@@PEAVCRealConsole@@_N@Z 00000001400696ec f   Macro.obj
 0001:0006879c       ?Write@ConEmuMacro@@YAPEA_WPEAUGuiMacro@@PEAVCRealConsole@@_N@Z 000000014006979c f   Macro.obj
 0001:00068808       ?Zoom@ConEmuMacro@@YAPEA_WPEAUGuiMacro@@PEAVCRealConsole@@_N@Z 0000000140069808 f   Macro.obj
 0001:00068854       ??$_Destroy_range@V?$MArrayAllocator@U?$pair@_JUCEStr@@@std@@@@@std@@YAXPEAU?$pair@_JUCEStr@@@0@QEAU10@AEAV?$MArrayAllocator@U?$pair@_JUCEStr@@@std@@@@@Z 0000000140069854 f i Macro.obj
 0001:00068888       ??$_Erase_tree@V?$allocator@U?$_Tree_node@V?$basic_string@_WU?$char_traits@_W@std@@V?$allocator@_W@2@@std@@PEAX@std@@@std@@@?$_Tree_val@U?$_Tree_simple_types@V?$basic_string@_WU?$char_traits@_W@std@@V?$allocator@_W@2@@std@@@std@@@std@@QEAAXAEAV?$allocator@U?$_Tree_node@V?$basic_string@_WU?$char_traits@_W@std@@V?$allocator@_W@2@@std@@PEAX@std@@@1@PEAU?$_Tree_node@V?$basic_string@_WU?$char_traits@_W@std@@V?$allocator@_W@2@@std@@PEAX@1@@Z 0000000140069888 f i Macro.obj
 0001:00068924       ??$ultow_s@$0BAE@@@YAPEB_WIAEAY0BAE@_WH@Z 0000000140069924 f i Macro.obj
 0001:00068950       ??$wcscpy_c@$03@@YAHAEAY03_WPEB_W@Z 0000000140069950 f i Macro.obj
 0001:0006899c       ??1?$set@V?$basic_string@_WU?$char_traits@_W@std@@V?$allocator@_W@2@@std@@U?$less@V?$basic_string@_WU?$char_traits@_W@std@@V?$allocator@_W@2@@std@@@2@V?$allocator@V?$basic_string@_WU?$char_traits@_W@std@@V?$allocator@_W@2@@std@@@2@@std@@QEAA@XZ 000000014006999c f i Macro.obj
 0001:000689c8       ??1CStartEnvTitle@@UEAA@XZ 00000001400699c8 f   RealConsole.obj
 0001:000689d4       ??1CEStrConcat@@QEAA@XZ    00000001400699d4 f i Macro.obj
 0001:00068a40       ??_GCStartEnvBase@@UEAAPEAXI@Z 0000000140069a40 f i Macro.obj
 0001:00068a40       ??_ECStartEnvBase@@UEAAPEAXI@Z 0000000140069a40 f i Macro.obj
 0001:00068b18       ?ChangeContext@ConEmuMacro@@YAPEAVCRealConsole@@PEAV2@IIAEAVCVConGuard@@AEAPEA_W@Z 0000000140069b18 f   Macro.obj
 0001:00068d1c       ?ConvertMacro@ConEmuMacro@@YAPEA_WPEB_WE_N@Z 0000000140069d1c f   Macro.obj
 0001:00068e9c       ?ExecuteMacro@ConEmuMacro@@YAPEA_WPEA_WPEAVCRealConsole@@_NPEAUCESERVER_REQ_GUIMACRO@@@Z 0000000140069e9c f   Macro.obj
 0001:0006920c       ?ExecuteMacroSync@ConEmuMacro@@YA_J_K_J@Z 000000014006a20c f   Macro.obj
 0001:0006923c       ?FindFarWindowHelper@ConEmuMacro@@YAPEA_WIPEA_WPEAVCRealConsole@@_N@Z 000000014006a23c f   Macro.obj
 0001:00069340       ?Int2Str@ConEmuMacro@@YAPEA_WI_N@Z 000000014006a340 f   Macro.obj
 0001:000693f4       ?TransparencyHelper@ConEmuMacro@@YAPEA_WHH@Z 000000014006a3f4 f   Macro.obj
 0001:000695bc       ??$swprintf_c@$0M@@@YAHAEAY0M@_WPEB_WZZ 000000014006a5bc f i MacroImpl.obj
 0001:000695e8       ?AsString@GuiMacro@@QEAAPEA_WXZ 000000014006a5e8 f   MacroImpl.obj
 0001:00069964       ?ConcatMacro@ConEmuMacro@@YAPEB_WAEAPEA_WPEB_W@Z 000000014006a964 f   MacroImpl.obj
 0001:000699e8       ?GetIntArg@GuiMacro@@QEAA_N_KAEAH@Z 000000014006a9e8 f   MacroImpl.obj
 0001:00069a10       ?GetNextInt@ConEmuMacro@@YAPEA_WAEAPEA_WAEAUGuiMacroArg@@@Z 000000014006aa10 f   MacroImpl.obj
 0001:00069b0c       ?GetNextMacro@ConEmuMacro@@YAPEAUGuiMacro@@AEAPEA_W_NPEAPEA_W@Z 000000014006ab0c f   MacroImpl.obj
 0001:0006a0b0       ?GetNextString@ConEmuMacro@@YAPEA_WAEAPEA_W0_NAEA_N@Z 000000014006b0b0 f   MacroImpl.obj
 0001:0006a36c       ?GetRestStrArgs@GuiMacro@@QEAA_N_KAEAPEA_W@Z 000000014006b36c f   MacroImpl.obj
 0001:0006a430       ?GetStrArg@GuiMacro@@QEAA_N_KAEAPEA_W@Z 000000014006b430 f   MacroImpl.obj
 0001:0006a464       ?IsIntArg@GuiMacro@@QEAA_N_K@Z 000000014006b464 f   MacroImpl.obj
 0001:0006a480       ?IsStrArg@GuiMacro@@QEAA_N_K@Z 000000014006b480 f   MacroImpl.obj
 0001:0006a4a0       ?SkipWhiteSpaces@ConEmuMacro@@YAXAEAPEA_W@Z 000000014006b4a0 f   MacroImpl.obj
 0001:0006a4cc       ??0CMatch@@QEAA@$$QEAV?$function@$$A6A_NPEB_WAEAUCEStr@@@Z@std@@@Z 000000014006b4cc f   Match.obj
 0001:0006a590       ??1?$function@$$A6A_NPEAVCVirtualConsole@@_J@Z@std@@QEAA@XZ 000000014006b590 f i VConGroup.obj
 0001:0006a590       ??1?$function@$$A6A_NPEB_WAEAUCEStr@@@Z@std@@QEAA@XZ 000000014006b590 f i Match.obj
 0001:0006a5bc       ??1CMatch@@QEAA@XZ         000000014006b5bc f   Match.obj
 0001:0006a614       ?CheckValidUrl@CMatch@@KA_NAEAH0AEA_NPEB_W222H@Z 000000014006b614 f   Match.obj
 0001:0006a73c       ?FindRangeStart@CMatch@@KA_NAEAH0AEA_NPEB_W22222H@Z 000000014006b73c f   Match.obj
 0001:0006a970       ?GetNextLine@CMatch@@IEAA_NAEAVCRConDataGuard@@H@Z 000000014006b970 f   Match.obj
 0001:0006aa78       ?IsFileLineTerminator@CMatch@@KA_NPEB_W0@Z 000000014006ba78 f   Match.obj
 0001:0006ab44       ?IsValidFile@CMatch@@IEAA_NPEB_WH00AEAH@Z 000000014006bb44 f   Match.obj
 0001:0006ad04       ?Match@CMatch@@QEAAHW4ExpandTextRangeType@@PEB_WHHAEAVCRConDataGuard@@H@Z 000000014006bd04 f   Match.obj
 0001:0006ae60       ?MatchAny@CMatch@@IEAA_NAEAVCRConDataGuard@@H@Z 000000014006be60 f   Match.obj
 0001:0006bcc8       ?MatchFileNoExt@CMatch@@IEAA_NAEAVCRConDataGuard@@H@Z 000000014006ccc8 f   Match.obj
 0001:0006bea0       ?MatchWord@CMatch@@IEAA_NPEB_WHHAEAH1AEAVCRConDataGuard@@H@Z 000000014006cea0 f   Match.obj
 0001:0006c0c4       ?StoreMatchText@CMatch@@IEAAXPEB_W0@Z 000000014006d0c4 f   Match.obj
 0001:0006c1e4       ??$_Emplace_reallocate@AEBUCmdTaskPopupItem@CConEmuMenu@@@?$vector@UCmdTaskPopupItem@CConEmuMenu@@V?$MArrayAllocator@UCmdTaskPopupItem@CConEmuMenu@@@@@std@@QEAAPEAUCmdTaskPopupItem@CConEmuMenu@@QEAU23@AEBU23@@Z 000000014006d1e4 f i Menu.obj
 0001:0006c5a4       ??$emplace_back@AEBUCmdTaskPopupItem@CConEmuMenu@@@?$vector@UCmdTaskPopupItem@CConEmuMenu@@V?$MArrayAllocator@UCmdTaskPopupItem@CConEmuMenu@@@@@std@@QEAAXAEBUCmdTaskPopupItem@CConEmuMenu@@@Z 000000014006d5a4 f i Menu.obj
 0001:0006c62c       ??$wcscpy_c@$0CE@@@YAHAEAY0CE@_WPEB_W@Z 000000014006d62c f i Menu.obj
 0001:0006c678       ??0CConEmuMenu@@QEAA@XZ    000000014006d678 f   Menu.obj
 0001:0006c82c       ??1CConEmuMenu@@QEAA@XZ    000000014006d82c f   Menu.obj
 0001:0006c8c8       ?CalcTabMenuPos@CConEmuMenu@@QEAA?AUtagPOINT@@PEAVCVirtualConsole@@@Z 000000014006d8c8 f   Menu.obj
 0001:0006c9a4       ?CreateDebugMenuPopup@CConEmuMenu@@QEAAPEAUHMENU__@@XZ 000000014006d9a4 f   Menu.obj
 0001:0006cb78       ?CreateEditMenuPopup@CConEmuMenu@@QEAAPEAUHMENU__@@PEAVCVirtualConsole@@PEAU2@@Z 000000014006db78 f   Menu.obj
 0001:0006cea4       ?CreateHelpMenuPopup@CConEmuMenu@@QEAAPEAUHMENU__@@XZ 000000014006dea4 f   Menu.obj
 0001:0006d084       ?CreateOrUpdateMenu@CConEmuMenu@@QEAA_NAEAPEAUHMENU__@@PEBUMenuItem@@_K@Z 000000014006e084 f   Menu.obj
 0001:0006d234       ?CreateVConListPopupMenu@CConEmuMenu@@QEAAPEAUHMENU__@@PEAU2@H@Z 000000014006e234 f   Menu.obj
 0001:0006d5e4       ?CreateVConPopupMenu@CConEmuMenu@@QEAAPEAUHMENU__@@PEAVCVirtualConsole@@PEAU2@_N2@Z 000000014006e5e4 f   Menu.obj
 0001:0006db6c       ?CreateViewMenuPopup@CConEmuMenu@@QEAAPEAUHMENU__@@PEAVCVirtualConsole@@PEAU2@@Z 000000014006eb6c f   Menu.obj
 0001:0006dd48       ?ExecPopupMenuCmd@CConEmuMenu@@QEAAXW4TrackMenuPlace@@PEAVCVirtualConsole@@H@Z 000000014006ed48 f   Menu.obj
 0001:0006e144       ?FillTaskPopup@CConEmuMenu@@AEAAHPEAUHMENU__@@PEAUCmdTaskPopupItem@1@@Z 000000014006f144 f   Menu.obj
 0001:0006e3dc       ?GetInScMinimize@CConEmuMenu@@QEAA_NXZ 000000014006f3dc f   Menu.obj
 0001:0006e3e0       ?GetRestoreFromMinimized@CConEmuMenu@@QEAA_NXZ 000000014006f3e0 f   Menu.obj
 0001:0006e3e4       ?GetSysMenu@CConEmuMenu@@QEAAPEAUHMENU__@@H@Z 000000014006f3e4 f   Menu.obj
 0001:0006e48c       ?GetTrackMenuPlace@CConEmuMenu@@QEAA?AW4TrackMenuPlace@@XZ 000000014006f48c f   Menu.obj
 0001:0006e490       ?MenuAccel@CConEmuMenu@@AEAAPEB_WHPEB_W@Z 000000014006f490 f   Menu.obj
 0001:0006e5a8       ?OnInitMenuPopup@CConEmuMenu@@QEAA_JPEAUHWND__@@PEAUHMENU__@@_J@Z 000000014006f5a8 f   Menu.obj
 0001:0006e850       ?OnMenuRClick@CConEmuMenu@@QEAAXPEAUHMENU__@@I@Z 000000014006f850 f   Menu.obj
 0001:0006e864       ?OnMenuSelected@CConEmuMenu@@QEAA_NPEAUHMENU__@@GG@Z 000000014006f864 f   Menu.obj
 0001:0006e95c       ?OnMenuSelected_NewCon@CConEmuMenu@@AEAA_NPEAUHMENU__@@GG@Z 000000014006f95c f   Menu.obj
 0001:0006eb58       ?OnNcIconLClick@CConEmuMenu@@QEAAXXZ 000000014006fb58 f   Menu.obj
 0001:0006ebe8       ?OnNewConPopupMenu@CConEmuMenu@@QEAAXPEAUtagPOINT@@K_N@Z 000000014006fbe8 f   Menu.obj
 0001:0006f944       ?OnNewConPopupMenuRClick@CConEmuMenu@@AEAAXPEAUHMENU__@@I@Z 0000000140070944 f   Menu.obj
 0001:0006fd88       ?OnSysCommand@CConEmuMenu@@QEAA_JPEAUHWND__@@_K_JI@Z 0000000140070d88 f   Menu.obj
 0001:00070880       ?Reset@CmdTaskPopupItem@CConEmuMenu@@QEAAXW4CmdTaskPopupItemType@12@HPEB_W@Z 0000000140071880 f   Menu.obj
 0001:000708f4       ?SetMenuName@CmdTaskPopupItem@CConEmuMenu@@SAXPEA_W_JPEB_W_N32@Z 00000001400718f4 f   Menu.obj
 0001:00070b1c       ?SetPassSysCommand@CConEmuMenu@@QEAA_N_N@Z 0000000140071b1c f   Menu.obj
 0001:00070b24       ?SetRestoreFromMinimized@CConEmuMenu@@QEAA_N_N@Z 0000000140071b24 f   Menu.obj
 0001:00070b2c       ?SetTrackMenuPlace@CConEmuMenu@@QEAA?AW4TrackMenuPlace@@W42@@Z 0000000140071b2c f   Menu.obj
 0001:00070b34       ?ShowKeyBarHint@CConEmuMenu@@AEAAXPEAUHMENU__@@GG@Z 0000000140071b34 f   Menu.obj
 0001:00070bb4       ?ShowMenuHint@CConEmuMenu@@AEAAXPEAUHMENU__@@GG@Z 0000000140071bb4 f   Menu.obj
 0001:00070cac       ?ShowMenuHint@CConEmuMenu@@AEAAXPEB_WPEAUtagPOINT@@@Z 0000000140071cac f   Menu.obj
 0001:00070df4       ?ShowPopupMenu@CConEmuMenu@@QEAAXPEAVCVirtualConsole@@UtagPOINT@@K_N@Z 0000000140071df4 f   Menu.obj
 0001:00070fac       ?ShowSysmenu@CConEmuMenu@@QEAAXHHK@Z 0000000140071fac f   Menu.obj
 0001:00071410       ?UpdateSysMenu@CConEmuMenu@@AEAAXPEAUHMENU__@@@Z 0000000140072410 f   Menu.obj
 0001:00071840       ?trackPopupMenu@CConEmuMenu@@QEAAHW4TrackMenuPlace@@PEAUHMENU__@@IHHPEAUHWND__@@PEAUtagRECT@@@Z 0000000140072840 f   Menu.obj
 0001:00071b10       ?CopyToClipboard@@YA_NPEB_W@Z 0000000140072b10 f   MyClipboard.obj
 0001:00071c64       ?GetCliboardText@@YAPEA_WAEAKPEA_W_J@Z 0000000140072c64 f   MyClipboard.obj
 0001:00071e70       ?MyCloseClipboard@@YAXXZ   0000000140072e70 f   MyClipboard.obj
 0001:00071eb0       ?MyOpenClipboard@@YA_NPEB_W@Z 0000000140072eb0 f   MyClipboard.obj
 0001:00072010       ?MySetClipboardData@@YAPEAXIPEAX@Z 0000000140073010 f   MyClipboard.obj
 0001:000720bc       ??0OleInitializer@@QEAA@XZ 00000001400730bc f   OleInitializer.obj
 0001:000720d0       ??0OleInitializer@@QEAA@_N@Z 00000001400730d0 f   OleInitializer.obj
 0001:00072100       ??1OleInitializer@@UEAA@XZ 0000000140073100 f   OleInitializer.obj
 0001:00072120       ??_EOleInitializer@@UEAAPEAXI@Z 0000000140073120 f i OleInitializer.obj
 0001:00072120       ??_GOleInitializer@@UEAAPEAXI@Z 0000000140073120 f i OleInitializer.obj
 0001:00072168       ?Initialize@OleInitializer@@QEAA_NXZ 0000000140073168 f   OleInitializer.obj
 0001:00072194       ??$SafeDelete@UCommandHistory@@@@YAXAEAPEAUCommandHistory@@@Z 0000000140073194 f i Options.obj
 0001:000721dc       ??$SafeDelete@USettingsBase@@@@YAXAEAPEAUSettingsBase@@@Z 00000001400731dc f i Options.obj
 0001:00072214       ??$ltow_s@$0BA@@@YAPEB_WHAEAY0BA@_WH@Z 0000000140073214 f i Options.obj
 0001:00072240       ??$swprintf_c@$0BCM@@@YAHAEAY0BCM@_WPEB_WZZ 0000000140073240 f i Options.obj
 0001:0007226c       ??$wcscpy_c@$07@@YAHAEAY07_WPEB_W@Z 000000014007326c f i Options.obj
 0001:000722b8       ??$wcscpy_c@$0BCC@@@YAHAEAY0BCC@_WPEB_W@Z 00000001400732b8 f i Options.obj
 0001:00072304       ??$wcscpy_c@$0FA@@@YAHAEAY0FA@_WPEB_W@Z 0000000140073304 f i Options.obj
 0001:00072350       ??0Settings@@QEAA@XZ       0000000140073350 f   Options.obj
 0001:0007239c       ??1Settings@@QEAA@XZ       000000014007339c f   Options.obj
 0001:000723bc       ?AppSettingsDelete@Settings@@IEAAXH@Z 00000001400733bc f   Options.obj
 0001:0007244c       ?AppSettingsXch@Settings@@IEAA_NHH@Z 000000014007344c f   Options.obj
 0001:000724a0       ?AutoSaveSettings@Settings@@QEAAXPEAUSettingsBase@@_N@Z 00000001400734a0 f   Options.obj
 0001:000727cc       ?CheckCharAltFont@Settings@@QEAA_NH@Z 00000001400737cc f   Options.obj
 0001:000727f4       ?CheckConsoleSettings@Settings@@QEAAXXZ 00000001400737f4 f   Options.obj
 0001:0007298c       ?CheckHotkeyUnique@Settings@@QEAAXXZ 000000014007398c f   Options.obj
 0001:00072c10       ?CmdTaskGet@Settings@@QEAAPEBUCommandTasks@@H@Z 0000000140073c10 f   Options.obj
 0001:00072cc4       ?CmdTaskGetByName@Settings@@QEAAPEBUCommandTasks@@PEB_W@Z 0000000140073cc4 f   Options.obj
 0001:00072e40       ?CmdTaskGetDefaultShell@Settings@@QEAA_NAEAURConStartArgsEx@@AEAUCEStr@@@Z 0000000140073e40 f   Options.obj
 0001:00072fe8       ?CmdTaskSet@Settings@@QEAAHHPEB_W00K@Z 0000000140073fe8 f   Options.obj
 0001:000733d8       ?CmdTaskSetVkMod@Settings@@QEAAXHK@Z 00000001400743d8 f   Options.obj
 0001:00073420       ?CmdTaskXch@Settings@@QEAA_NHH@Z 0000000140074420 f   Options.obj
 0001:0007346c       ?CreateCharRanges@Settings@@QEAAPEA_WAEAY0BAAAA@E@Z 000000014007446c f   Options.obj
 0001:00073550       ?CreatePredefinedPalettes@Settings@@QEAAXH@Z 0000000140074550 f   Options.obj
 0001:000736d8       ?CreateSettings@Settings@@QEAAPEAUSettingsBase@@PEBUSettingsStorage@@@Z 00000001400746d8 f   Options.obj
 0001:00073a04       ?DisableLogging@Settings@@QEAAXXZ 0000000140074a04 f   Options.obj
 0001:00073a0c       ?EnableLogging@Settings@@QEAAXXZ 0000000140074a0c f   Options.obj
 0001:00073a38       ?FreeApps@Settings@@AEAAXHPEAPEAUAppSettings@@@Z 0000000140074a38 f   Options.obj
 0001:00073ab8       ?FreeCmdTasks@Settings@@IEAAXXZ 0000000140074ab8 f   Options.obj
 0001:00073b34       ?FreePalettes@Settings@@IEAAXXZ 0000000140074b34 f   Options.obj
 0001:00073bb8       ?FreeProgresses@Settings@@IEAAXXZ 0000000140074bb8 f   Options.obj
 0001:00073c4c       ?FreeStartupTask@Settings@@IEAAXXZ 0000000140074c4c f   Options.obj
 0001:00073c74       ?GetAppSettings@Settings@@QEAAPEBUAppSettings@@H@Z 0000000140074c74 f   Options.obj
 0001:00073cbc       ?GetAppSettingsId@Settings@@QEAAHPEB_W_N@Z 0000000140074cbc f   Options.obj
 0001:00073e44       ?GetAppSettingsPtr@Settings@@IEAAPEAUAppSettings@@HH@Z 0000000140074e44 f   Options.obj
 0001:00073f88       ?GetColors@Settings@@QEAAAEBV?$array@K$0BA@@std@@HH@Z 0000000140074f88 f   Options.obj
 0001:00074018       ?GetColorsPrepare@Settings@@QEAAAEBV?$array@K$0BA@@std@@AEBV23@AEAV23@PEA_NH@Z 0000000140075018 f   Options.obj
 0001:0007404c       ?GetDefColors@Settings@@CA_NPEB_WAEAV?$array@K$0BA@@std@@@Z 000000014007504c f   Options.obj
 0001:00074114       ?GetDefaultTerminalApps@Settings@@QEAAPEA_WXZ 0000000140075114 f   Options.obj
 0001:0007412c       ?GetDefaultTerminalAppsMSZ@Settings@@QEAAPEB_WXZ 000000014007512c f   Options.obj
 0001:00074134       ?GetFadeColor@Settings@@QEAAKK@Z 0000000140075134 f   Options.obj
 0001:0007423c       ?GetHotkeyById@Settings@@QEAAKHPEAPEBUConEmuHotKey@@@Z 000000014007523c f   Options.obj
 0001:000742d8       ?GetHotkeyNameById@Settings@@QEAAPEB_WHAEAY0IA@_W_N@Z 00000001400752d8 f   Options.obj
 0001:00074348       ?GetIntelligentExceptions@Settings@@QEAAPEA_WXZ 0000000140075348 f   Options.obj
 0001:00074360       ?GetIntelligentExceptionsMSZ@Settings@@QEAAPEB_WXZ 0000000140075360 f   Options.obj
 0001:00074368       ?GetLogFileName@Settings@@QEAAPEB_WXZ 0000000140075368 f   Options.obj
 0001:00074388       ?GetPaletteColors@Settings@@QEAAAEBV?$array@K$0BA@@std@@PEB_WH@Z 0000000140075388 f   Options.obj
 0001:000743f4       ?GetPaletteIndex@AppSettings@@QEBAHXZ 00000001400753f4 f   Options.obj
 0001:00074410       ?GetSettingsType@Settings@@QEAA?AUSettingsStorage@@XZ 0000000140075410 f   Options.obj
 0001:00074528       ?GetStoragePlaceDescr@Settings@@QEAAPEA_WPEBUSettingsStorage@@PEB_W@Z 0000000140075528 f   Options.obj
 0001:0007465c       ?GetWindowsColors@Settings@@CAXAEAV?$array@K$0BA@@std@@@Z 000000014007565c f   Options.obj
 0001:00074818       ?HideCaptionAlwaysFrame@Settings@@QEAAHXZ 0000000140075818 f   Options.obj
 0001:00074864       ?HistoryAdd@Settings@@QEAAXPEB_W@Z 0000000140075864 f   Options.obj
 0001:00074984       ?HistoryGet@Settings@@QEAAPEB_WH@Z 0000000140075984 f   Options.obj
 0001:00074998       ?HistoryLoad@Settings@@QEAAXPEAUSettingsBase@@@Z 0000000140075998 f   Options.obj
 0001:00074a98       ?HistoryReset@Settings@@QEAAXXZ 0000000140075a98 f   Options.obj
 0001:00074ac4       ?HistorySave@Settings@@QEAAXPEAUSettingsBase@@@Z 0000000140075ac4 f   Options.obj
 0001:00074ba0       ?InitSettings@Settings@@QEAAXXZ 0000000140075ba0 f   Options.obj
 0001:000755a8       ?InitVanilla@Settings@@QEAAXXZ 00000001400765a8 f   Options.obj
 0001:000756bc       ?IsHotkey@Settings@@QEAA_NH@Z 00000001400766bc f   Options.obj
 0001:000756dc       ?IsModifierPressed@Settings@@QEAAXHPEA_N0@Z 00000001400766dc f   Options.obj
 0001:000757e4       ?IsModifierPressed@Settings@@QEAA_NH_N@Z 00000001400767e4 f   Options.obj
 0001:00075820       ?LineDelimited2MSZ@Settings@@QEAAPEA_WPEB_W_N@Z 0000000140076820 f   Options.obj
 0001:00075920       ?LoadAppSettings@Settings@@AEAAXPEAUSettingsBase@@PEAUAppSettings@@@Z 0000000140076920 f   Options.obj
 0001:00075dac       ?LoadAppsSettings@Settings@@AEAAXPEAUSettingsBase@@_N@Z 0000000140076dac f   Options.obj
 0001:000760f8       ?LoadCmdTasks@Settings@@QEAAXPEAUSettingsBase@@_N@Z 00000001400770f8 f   Options.obj
 0001:000763ec       ?LoadCursorSettings@Settings@@AEAAXPEAUSettingsBase@@PEATCECursorType@@1@Z 00000001400773ec f   Options.obj
 0001:00076678       ?LoadHotkeys@Settings@@AEAAXPEAUSettingsBase@@AEB_N11@Z 0000000140077678 f   Options.obj
 0001:00076ab0       ?LoadMSZ@Settings@@QEAA_NPEAUSettingsBase@@PEB_WAEAPEA_W1_N@Z 0000000140077ab0 f   Options.obj
 0001:00076c38       ?LoadPalettes@Settings@@QEAAXPEAUSettingsBase@@@Z 0000000140077c38 f   Options.obj
 0001:00077010       ?LoadSettings@Settings@@QEAAXAEA_NPEBUSettingsStorage@@@Z 0000000140078010 f   Options.obj
 0001:000794d4       ?LoadSizeSettings@Settings@@IEAAXPEAUSettingsBase@@@Z 000000014007a4d4 f   Options.obj
 0001:000798c4       ?MSZ2LineDelimited@Settings@@QEAAPEA_WPEB_W0_N@Z 000000014007a8c4 f   Options.obj
 0001:000799f4       ?MultiLine2MSZ@Settings@@QEAAPEA_WPEB_WPEAK@Z 000000014007a9f4 f   Options.obj
 0001:00079b4c       ?NeedCreateAppWindow@Settings@@QEAA_NXZ 000000014007ab4c f   Options.obj
 0001:00079b84       ?OnAutoSaveTimer@Settings@@QEAAXXZ 000000014007ab84 f   Options.obj
 0001:00079c2c       ?PaletteDelete@Settings@@QEAAXPEB_W@Z 000000014007ac2c f   Options.obj
 0001:00079cc8       ?PaletteFindByColors@Settings@@QEAAPEBUColorPalette@@_NPEBU2@@Z 000000014007acc8 f   Options.obj
 0001:00079d60       ?PaletteFindCurrent@Settings@@QEAAPEBUColorPalette@@_N@Z 000000014007ad60 f   Options.obj
 0001:00079dac       ?PaletteGet@Settings@@QEAAPEBUColorPalette@@H@Z 000000014007adac f   Options.obj
 0001:00079db4       ?PaletteGetByName@Settings@@QEAAPEBUColorPalette@@PEB_W@Z 000000014007adb4 f   Options.obj
 0001:00079dd4       ?PaletteGetIndex@Settings@@QEAAHPEB_W@Z 000000014007add4 f   Options.obj
 0001:00079e70       ?PaletteGetPtr@Settings@@IEAAPEAUColorPalette@@H@Z 000000014007ae70 f   Options.obj
 0001:00079f6c       ?PaletteSaveAs@Settings@@QEAAXPEB_W@Z 000000014007af6c f   Options.obj
 0001:00079fb0       ?PaletteSaveAs@Settings@@QEAAXPEB_WEEEEAEBV?$array@K$0BA@@std@@_N@Z 000000014007afb0 f   Options.obj
 0001:0007a248       ?PaletteSetActive@Settings@@QEAAHPEB_W@Z 000000014007b248 f   Options.obj
 0001:0007a2f8       ?PaletteSetStdIndexes@Settings@@QEAAXXZ 000000014007b2f8 f   Options.obj
 0001:0007a388       ?ParseCharRanges@Settings@@QEAAHPEB_WAEAY0BAAAA@EE@Z 000000014007b388 f   Options.obj
 0001:0007a4cc       ?PrepareFadeColors@Settings@@QEAAXAEBV?$array@K$0BA@@std@@AEAV23@PEA_N@Z 000000014007b4cc f   Options.obj
 0001:0007a568       ?RClickMacro@Settings@@QEAAPEB_WW4FarMacroVersion@@@Z 000000014007b568 f   Options.obj
 0001:0007a5d0       ?RClickMacroDefault@Settings@@QEAAPEB_WW4FarMacroVersion@@@Z 000000014007b5d0 f   Options.obj
 0001:0007a5e4       ?ReleasePointers@Settings@@IEAAXXZ 000000014007b5e4 f   Options.obj
 0001:0007a7e8       ?ResetFadeColors@Settings@@QEAAXXZ 000000014007b7e8 f   Options.obj
 0001:0007a838       ?ResetSavedOnExit@Settings@@QEAAXXZ 000000014007b838 f   Options.obj
 0001:0007a840       ?SafeFarCloseMacro@Settings@@QEAAPEB_WW4FarMacroVersion@@@Z 000000014007b840 f   Options.obj
 0001:0007a8a8       ?SafeFarCloseMacroDefault@Settings@@QEAAPEB_WW4FarMacroVersion@@@Z 000000014007b8a8 f   Options.obj
 0001:0007a8bc       ?SaveAllMacro@Settings@@QEAAPEB_WW4FarMacroVersion@@@Z 000000014007b8bc f   Options.obj
 0001:0007a924       ?SaveAllMacroDefault@Settings@@QEAAPEB_WW4FarMacroVersion@@@Z 000000014007b924 f   Options.obj
 0001:0007a938       ?SaveAppSettings@Settings@@AEAAXPEAUSettingsBase@@PEAUAppSettings@@@Z 000000014007b938 f   Options.obj
 0001:0007ab58       ?SaveAppsSettings@Settings@@QEAAXPEAUSettingsBase@@@Z 000000014007bb58 f   Options.obj
 0001:0007ad6c       ?SaveCmdTasks@Settings@@QEAA_NPEAUSettingsBase@@@Z 000000014007bd6c f   Options.obj
 0001:0007b008       ?SaveConsoleFont@Settings@@QEAAXXZ 000000014007c008 f   Options.obj
 0001:0007b0c0       ?SaveFindOptions@Settings@@QEAAXPEAUSettingsBase@@@Z 000000014007c0c0 f   Options.obj
 0001:0007b1bc       ?SaveHotkeys@Settings@@AEAAXPEAUSettingsBase@@H@Z 000000014007c1bc f   Options.obj
 0001:0007b3c8       ?SaveMSZ@Settings@@QEAAXPEAUSettingsBase@@PEB_W11_N@Z 000000014007c3c8 f   Options.obj
 0001:0007b424       ?SavePalettes@Settings@@IEAAXPEAUSettingsBase@@@Z 000000014007c424 f   Options.obj
 0001:0007b870       ?SaveSettings@Settings@@QEAAHHPEBUSettingsStorage@@@Z 000000014007c870 f   Options.obj
 0001:0007d2d0       ?SaveSettingsOnExit@Settings@@QEAAXXZ 000000014007e2d0 f   Options.obj
 0001:0007d2f8       ?SaveSizeSettings@Settings@@IEAAXPEAUSettingsBase@@@Z 000000014007e2f8 f   Options.obj
 0001:0007d564       ?SaveStartCommands@Settings@@AEAAXPEAUSettingsBase@@@Z 000000014007e564 f   Options.obj
 0001:0007d604       ?SaveStatusSettings@Settings@@IEAAXPEAUSettingsBase@@@Z 000000014007e604 f   Options.obj
 0001:0007d71c       ?SaveStdColors@Settings@@AEAAXPEAUSettingsBase@@@Z 000000014007e71c f   Options.obj
 0001:0007d844       ?SaveStopBuzzingDate@Settings@@QEAAXXZ 000000014007e844 f   Options.obj
 0001:0007d964       ?SaveVanilla@Settings@@QEAA_NPEAUSettingsBase@@@Z 000000014007e964 f   Options.obj
 0001:0007db54       ?SetDefaultTerminalApps@Settings@@QEAAXPEB_W@Z 000000014007eb54 f   Options.obj
 0001:0007dbd0       ?SetHideCaptionAlways@Settings@@QEAAX_N@Z 000000014007ebd0 f   Options.obj
 0001:0007dbd8       ?SetHotkeyById@Settings@@QEAAXHK@Z 000000014007ebd8 f   Options.obj
 0001:0007dc60       ?SetIntelligentExceptions@Settings@@QEAAXPEB_W@Z 000000014007ec60 f   Options.obj
 0001:0007dcac       ?SetMinToTray@Settings@@QEAAX_N@Z 000000014007ecac f   Options.obj
 0001:0007dd18       ?SetPaletteName@AppSettings@@QEAAXPEB_W@Z 000000014007ed18 f   Options.obj
 0001:0007dd38       ?SortPalettes@Settings@@IEAAXXZ 000000014007ed38 f   Options.obj
 0001:0007de48       ?StatusBarFontHeight@Settings@@QEAAHXZ 000000014007ee48 f   Options.obj
 0001:0007de5c       ?StatusBarHeight@Settings@@QEAAHXZ 000000014007ee5c f   Options.obj
 0001:0007decc       ?SwitchHideCaptionAlways@Settings@@QEAAXXZ 000000014007eecc f   Options.obj
 0001:0007dee0       ?TabCloseMacro@Settings@@QEAAPEB_WW4FarMacroVersion@@@Z 000000014007eee0 f   Options.obj
 0001:0007df48       ?TabCloseMacroDefault@Settings@@QEAAPEB_WW4FarMacroVersion@@@Z 000000014007ef48 f   Options.obj
 0001:0007df5c       ?isActivateSplitMouseOver@Settings@@QEAA_NXZ 000000014007ef5c f   Options.obj
 0001:0007df98       ?isAdminShield@Settings@@QEAA_NXZ 000000014007ef98 f   Options.obj
 0001:0007dfa4       ?isAdminSuffix@Settings@@QEAA_NXZ 000000014007efa4 f   Options.obj
 0001:0007dfc4       ?isAlwaysShowTrayIcon@Settings@@QEAA_NXZ 000000014007efc4 f   Options.obj
 0001:0007e018       ?isCloseOnCrossClick@Settings@@QEAA_NXZ 000000014007f018 f   Options.obj
 0001:0007e044       ?isCloseOnLastTabClose@Settings@@QEAA_NE@Z 000000014007f044 f   Options.obj
 0001:0007e078       ?isCloseOnLastTabClose@Settings@@QEAA_NXZ 000000014007f078 f   Options.obj
 0001:0007e084       ?isForcedHideCaptionAlways@Settings@@QEAA_NXZ 000000014007f084 f   Options.obj
 0001:0007e09c       ?isHideCaptionAlways@Settings@@QEAA_NXZ 000000014007f09c f   Options.obj
 0001:0007e0cc       ?isHideOnLastTabClose@Settings@@QEAA_NXZ 000000014007f0cc f   Options.obj
 0001:0007e10c       ?isIntegralSize@Settings@@QEAA_NXZ 000000014007f10c f   Options.obj
 0001:0007e134       ?isKeyboardHooks@Settings@@QEAA_N_N0@Z 000000014007f134 f   Options.obj
 0001:0007e158       ?isLogging@Settings@@QEAAII@Z 000000014007f158 f   Options.obj
 0001:0007e1b0       ?isMinOnLastTabClose@Settings@@QEAA_NXZ 000000014007f1b0 f   Options.obj
 0001:0007e1f0       ?isMinToTray@Settings@@QEAA_N_N@Z 000000014007f1f0 f   Options.obj
 0001:0007e210       ?isMinimizeOnLoseFocus@Settings@@QEAA_NXZ 000000014007f210 f   Options.obj
 0001:0007e22c       ?isModifierExist@Settings@@QEAA_NE_N@Z 000000014007f22c f   Options.obj
 0001:0007e2e4       ?isRClickTouchInvert@Settings@@QEAA_NXZ 000000014007f2e4 f   Options.obj
 0001:0007e31c       ?isTabsOnTaskBar@Settings@@QEAA_NXZ 000000014007f31c f   Options.obj
 0001:0007e380       ?isTransparentAllowed@Settings@@QEAA_NXZ 000000014007f380 f   Options.obj
 0001:0007e3c0       ?isUseClink@Settings@@QEAAKXZ 000000014007f3c0 f   Options.obj
 0001:0007e668       ?isWindowOnTaskBar@Settings@@QEAA_N_N@Z 000000014007f668 f   Options.obj
 0001:0007e6e8       ??$wcscpy_c@$0CAA@@@YAHAEAY0CAA@_WPEB_W@Z 000000014007f6e8 f i OptionsClass.obj
 0001:0007e734       ??$wcscpy_c@$0HNA@@@YAHAEAY0HNA@_WPEB_W@Z 000000014007f734 f i OptionsClass.obj
 0001:0007e780       ??0CSettings@@QEAA@XZ      000000014007f780 f   OptionsClass.obj
 0001:0007ec90       ??1CSettings@@UEAA@XZ      000000014007fc90 f   OptionsClass.obj
 0001:0007ee14       ??_ECSettings@@UEAAPEAXI@Z 000000014007fe14 f i OptionsClass.obj
 0001:0007ee14       ??_GCSettings@@UEAAPEAXI@Z 000000014007fe14 f i OptionsClass.obj
 0001:0007ee48       ?ActivatePage@CSettings@@QEAA_NW4TabHwndIndex@@@Z 000000014007fe48 f   OptionsClass.obj
 0001:0007eebc       ?BalloonStyle@CSettings@@QEAAKXZ 000000014007febc f   OptionsClass.obj
 0001:0007ef50       ?CenterMoreDlg@CSettings@@CAXPEAUHWND__@@@Z 000000014007ff50 f   OptionsClass.obj
 0001:0007f004       ?ChangeCurrentPalette@CSettings@@QEAAXPEBUColorPalette@@_N@Z 0000000140080004 f   OptionsClass.obj
 0001:0007f32c       ?CheckConsoleFont@CSettings@@KA_NPEAUHWND__@@@Z 000000014008032c f   OptionsClass.obj
 0001:0007f734       ?CheckConsoleFontFast@CSettings@@QEAA_NPEB_W@Z 0000000140080734 f   OptionsClass.obj
 0001:0007fcbc       ?CheckConsoleFontRegistry@CSettings@@KA_NPEB_W@Z 0000000140080cbc f   OptionsClass.obj
 0001:0007fef8       ?CheckSelectionModifiers@CSettings@@QEAAXPEAUHWND__@@@Z 0000000140080ef8 f   OptionsClass.obj
 0001:000803b8       ?CheckTheming@CSettings@@QEAA_NXZ 00000001400813b8 f   OptionsClass.obj
 0001:00080480       ?ClearPages@CSettings@@AEAAXXZ 0000000140081480 f   OptionsClass.obj
 0001:000804e0       ?Create@CSetPgANSI@@SAPEAVCSetPgBase@@XZ 00000001400814e0 f i OptionsClass.obj
 0001:00080508       ?Create@CSetPgAppear@@SAPEAVCSetPgBase@@XZ 0000000140081508 f i OptionsClass.obj
 0001:00080530       ?Create@CSetPgApps@@SAPEAVCSetPgBase@@XZ 0000000140081530 f i OptionsClass.obj
 0001:00080558       ?Create@CSetPgBackgr@@SAPEAVCSetPgBase@@XZ 0000000140081558 f i OptionsClass.obj
 0001:00080580       ?Create@CSetPgChildGui@@SAPEAVCSetPgBase@@XZ 0000000140081580 f i OptionsClass.obj
 0001:000805a8       ?Create@CSetPgColors@@SAPEAVCSetPgBase@@XZ 00000001400815a8 f i OptionsClass.obj
 0001:000805d0       ?Create@CSetPgComspec@@SAPEAVCSetPgBase@@XZ 00000001400815d0 f i OptionsClass.obj
 0001:000805f8       ?Create@CSetPgConfirm@@SAPEAVCSetPgBase@@XZ 00000001400815f8 f i OptionsClass.obj
 0001:00080620       ?Create@CSetPgCursor@@SAPEAVCSetPgBase@@XZ 0000000140081620 f i OptionsClass.obj
 0001:00080648       ?Create@CSetPgDebug@@SAPEAVCSetPgBase@@XZ 0000000140081648 f i OptionsClass.obj
 0001:00080670       ?Create@CSetPgDefTerm@@SAPEAVCSetPgBase@@XZ 0000000140081670 f i OptionsClass.obj
 0001:00080698       ?Create@CSetPgEnvironment@@SAPEAVCSetPgBase@@XZ 0000000140081698 f i OptionsClass.obj
 0001:000806c0       ?Create@CSetPgFar@@SAPEAVCSetPgBase@@XZ 00000001400816c0 f i OptionsClass.obj
 0001:000806e8       ?Create@CSetPgFarMacro@@SAPEAVCSetPgBase@@XZ 00000001400816e8 f i OptionsClass.obj
 0001:00080710       ?Create@CSetPgFeatures@@SAPEAVCSetPgBase@@XZ 0000000140081710 f i OptionsClass.obj
 0001:00080738       ?Create@CSetPgFonts@@SAPEAVCSetPgBase@@XZ 0000000140081738 f i OptionsClass.obj
 0001:00080760       ?Create@CSetPgGeneral@@SAPEAVCSetPgBase@@XZ 0000000140081760 f i OptionsClass.obj
 0001:00080788       ?Create@CSetPgHilight@@SAPEAVCSetPgBase@@XZ 0000000140081788 f i OptionsClass.obj
 0001:000807b0       ?Create@CSetPgInfo@@SAPEAVCSetPgBase@@XZ 00000001400817b0 f i OptionsClass.obj
 0001:000807d8       ?Create@CSetPgIntegr@@SAPEAVCSetPgBase@@XZ 00000001400817d8 f i OptionsClass.obj
 0001:00080800       ?Create@CSetPgKeyboard@@SAPEAVCSetPgBase@@XZ 0000000140081800 f i OptionsClass.obj
 0001:00080828       ?Create@CSetPgKeys@@SAPEAVCSetPgBase@@XZ 0000000140081828 f i OptionsClass.obj
 0001:00080850       ?Create@CSetPgMarkCopy@@SAPEAVCSetPgBase@@XZ 0000000140081850 f i OptionsClass.obj
 0001:00080878       ?Create@CSetPgMouse@@SAPEAVCSetPgBase@@XZ 0000000140081878 f i OptionsClass.obj
 0001:000808a0       ?Create@CSetPgPaste@@SAPEAVCSetPgBase@@XZ 00000001400818a0 f i OptionsClass.obj
 0001:000808c8       ?Create@CSetPgQuake@@SAPEAVCSetPgBase@@XZ 00000001400818c8 f i OptionsClass.obj
 0001:000808f0       ?Create@CSetPgSizePos@@SAPEAVCSetPgBase@@XZ 00000001400818f0 f i OptionsClass.obj
 0001:00080918       ?Create@CSetPgStartup@@SAPEAVCSetPgBase@@XZ 0000000140081918 f i OptionsClass.obj
 0001:00080940       ?Create@CSetPgStatus@@SAPEAVCSetPgBase@@XZ 0000000140081940 f i OptionsClass.obj
 0001:00080968       ?Create@CSetPgTabs@@SAPEAVCSetPgBase@@XZ 0000000140081968 f i OptionsClass.obj
 0001:00080990       ?Create@CSetPgTaskbar@@SAPEAVCSetPgBase@@XZ 0000000140081990 f i OptionsClass.obj
 0001:000809b8       ?Create@CSetPgTasks@@SAPEAVCSetPgBase@@XZ 00000001400819b8 f i OptionsClass.obj
 0001:000809e0       ?Create@CSetPgTransparent@@SAPEAVCSetPgBase@@XZ 00000001400819e0 f i OptionsClass.obj
 0001:00080a08       ?Create@CSetPgUpdate@@SAPEAVCSetPgBase@@XZ 0000000140081a08 f i OptionsClass.obj
 0001:00080a30       ?Create@CSetPgViews@@SAPEAVCSetPgBase@@XZ 0000000140081a30 f i OptionsClass.obj
 0001:00080a58       ?CreateConFontError@CSettings@@IEAAPEB_WPEB_W0@Z 0000000140081a58 f   OptionsClass.obj
 0001:00080c00       ?Dialog@CSettings@@SAXH@Z  0000000140081c00 f   OptionsClass.obj
 0001:00080d8c       ?EditConsoleFont@CSettings@@QEAA_NPEAUHWND__@@@Z 0000000140081d8c f   OptionsClass.obj
 0001:00080dd0       ?EditConsoleFontProc@CSettings@@SA_JPEAUHWND__@@I_K_J@Z 0000000140081dd0 f   OptionsClass.obj
 0001:00081adc       ?EnumConFamCallBack@CSettings@@SAHPEAUtagLOGFONTW@@PEAUtagNEWTEXTMETRICW@@KPEAX@Z 0000000140082adc f   OptionsClass.obj
 0001:00081d40       ?EvalSize@CSettings@@QEAAJJKPEAUDpiValue@@@Z 0000000140082d40 f   OptionsClass.obj
 0001:00081dd4       ?ExportSettings@CSettings@@IEAAXXZ 0000000140082dd4 f   OptionsClass.obj
 0001:00081f78       ?GetActivePage@CSettings@@QEAAPEAUHWND__@@XZ 0000000140082f78 f   OptionsClass.obj
 0001:00081fb8       ?GetActivePageObj@CSettings@@QEAAPEAVCSetPgBase@@XZ 0000000140082fb8 f   OptionsClass.obj
 0001:00081ffc       ?GetActivePageWiki@CSettings@@QEAAPEB_WAEAUCEStr@@@Z 0000000140082ffc f   OptionsClass.obj
 0001:00082088       ?GetBackgroundObject@CSettings@@QEAAPEAVCBackgroundInfo@@XZ 0000000140083088 f   OptionsClass.obj
 0001:000820a0       ?GetConfigName@CSettings@@QEAAPEB_WXZ 00000001400830a0 f   OptionsClass.obj
 0001:000820a8       ?GetConfigPath@CSettings@@QEAAPEB_WXZ 00000001400830a8 f   OptionsClass.obj
 0001:000820b0       ?GetDefaultCreateAction@CSettings@@QEAA?AW4RecreateActionParm@@XZ 00000001400830b0 f   OptionsClass.obj
 0001:000820e0       ?GetDialogDpi@CSettings@@AEAAHXZ 00000001400830e0 f   OptionsClass.obj
 0001:00082108       ?GetOverallDpi@CSettings@@IEAAHXZ 0000000140083108 f   OptionsClass.obj
 0001:0008214c       ?GetPage@CSettings@@QEAAPEAUHWND__@@W4TabHwndIndex@@@Z 000000014008314c f   OptionsClass.obj
 0001:00082164       ?GetPageData@CSettings@@AEAAPEBUConEmuSetupPages@@W4TabHwndIndex@@@Z 0000000140083164 f   OptionsClass.obj
 0001:000821b0       ?GetPageId@CSettings@@AEAA?AW4TabHwndIndex@@PEAUHWND__@@PEAPEAUConEmuSetupPages@@@Z 00000001400831b0 f   OptionsClass.obj
 0001:000821f8       ?GetPageIdByDialogId@CSettings@@AEAA?AW4TabHwndIndex@@I@Z 00000001400831f8 f   OptionsClass.obj
 0001:00082230       ?GetPageObj@CSettings@@QEAAPEAVCSetPgBase@@W4TabHwndIndex@@@Z 0000000140083230 f   OptionsClass.obj
 0001:0008224c       ?ImportSettings@CSettings@@IEAAXXZ 000000014008324c f   OptionsClass.obj
 0001:00082328       ?InitPageNames@CSettings@@AEAAXXZ 0000000140083328 f   OptionsClass.obj
 0001:000823ac       ?InitVars_Pages@CSettings@@AEAAXXZ 00000001400833ac f   OptionsClass.obj
 0001:00082c98       ?IsBackgroundEnabled@CSettings@@QEAA_NPEAVCVirtualConsole@@@Z 0000000140083c98 f   OptionsClass.obj
 0001:00082db0       ?IsMulti@CSettings@@QEAA_NXZ 0000000140083db0 f   OptionsClass.obj
 0001:00082dd4       ?IsSingleInstanceArg@CSettings@@QEAA_NXZ 0000000140083dd4 f   OptionsClass.obj
 0001:00082e04       ?LoadBackgroundFile@CSettings@@QEAA_NPEB_W_N@Z 0000000140083e04 f   OptionsClass.obj
 0001:00082e70       ?NeedBackgroundUpdate@CSettings@@QEAAXXZ 0000000140083e70 f   OptionsClass.obj
 0001:00082eb8       ?OnCtlColorStatic@CSettings@@IEAA_JPEAUHWND__@@PEAUHDC__@@0G@Z 0000000140083eb8 f   OptionsClass.obj
 0001:00082f40       ?OnDrawFontItem@CSettings@@IEAA_JPEAUHWND__@@I_K_J@Z 0000000140083f40 f   OptionsClass.obj
 0001:00083178       ?OnInitDialog@CSettings@@IEAA_JXZ 0000000140084178 f   OptionsClass.obj
 0001:000838c0       ?OnListBoxDblClk@CSettings@@IEAA_JPEAUHWND__@@_K_J@Z 00000001400848c0 f   OptionsClass.obj
 0001:000838f8       ?OnMeasureFontItem@CSettings@@IEAA_JPEAUHWND__@@I_K_J@Z 00000001400848f8 f   OptionsClass.obj
 0001:00083980       ?OnPage@CSettings@@IEAA_JPEAUtagNMHDR@@@Z 0000000140084980 f   OptionsClass.obj
 0001:00083d20       ?OnPanelViewAppeared@CSettings@@QEAAXH@Z 0000000140084d20 f   OptionsClass.obj
 0001:00083d90       ?OnResetOrReload@CSettings@@IEAAX_NPEAUSettingsStorage@@@Z 0000000140084d90 f   OptionsClass.obj
 0001:000841e0       ?OnSettingsClosed@CSettings@@QEAAXXZ 00000001400851e0 f   OptionsClass.obj
 0001:00084300       ?Performance@CSettings@@QEAAXIH@Z 0000000140085300 f   OptionsClass.obj
 0001:0008461c       ?PostUpdateCounters@CSettings@@QEAAX_N@Z 000000014008561c f   OptionsClass.obj
 0001:000849a0       ?ProcessTipHelp@CSettings@@QEAA_JPEAUHWND__@@I_K_J@Z 00000001400859a0 f   OptionsClass.obj
 0001:00084a0c       ?QueryDpi@CSettings@@QEAAHXZ 0000000140085a0c f   OptionsClass.obj
 0001:00084a14       ?RecreateFont@CSettings@@AEAAXG@Z 0000000140085a14 f   OptionsClass.obj
 0001:00084ad0       ?RegisterTabs@CSettings@@AEAAXXZ 0000000140085ad0 f   OptionsClass.obj
 0001:00084b30       ?RegisterTipsFor@CSettings@@QEAAXPEAUHWND__@@@Z 0000000140085b30 f   OptionsClass.obj
 0001:00084f08       ?RegisterTipsForChild@CSettings@@CAHPEAUHWND__@@_J@Z 0000000140085f08 f   OptionsClass.obj
 0001:00085048       ?ReleaseHandles@CSettings@@AEAAXXZ 0000000140086048 f   OptionsClass.obj
 0001:00085090       ?ResetCmdHistory@CSettings@@QEAA_NPEAUHWND__@@@Z 0000000140086090 f   OptionsClass.obj
 0001:000850ec       ?SearchForControls@CSettings@@IEAAXXZ 00000001400860ec f   OptionsClass.obj
 0001:00085b9c       ?SelectTreeItem@CSettings@@CAXPEAUHWND__@@PEAU_TREEITEM@@_N@Z 0000000140086b9c f   OptionsClass.obj
 0001:00085c18       ?SetArgBufferHeight@CSettings@@QEAAXH@Z 0000000140086c18 f   OptionsClass.obj
 0001:00085c98       ?SetBgImageDarker@CSettings@@QEAAXE_N@Z 0000000140086c98 f   OptionsClass.obj
 0001:00085db8       ?SetConfigName@CSettings@@QEAAXPEB_W@Z 0000000140086db8 f   OptionsClass.obj
 0001:00085e7c       ?SetOption@CSettings@@QEAA_NPEB_W0@Z 0000000140086e7c f   OptionsClass.obj
 0001:00085fb8       ?SetOption@CSettings@@QEAA_NPEB_WH@Z 0000000140086fb8 f   OptionsClass.obj
 0001:00086054       ?SetRequestedDpi@CSettings@@QEAAXHH@Z 0000000140087054 f   OptionsClass.obj
 0001:00086078       ?SetSaveCmdHistory@CSettings@@QEAAX_N@Z 0000000140087078 f   OptionsClass.obj
 0001:00086100       ?SettingsLoaded@CSettings@@QEAAXKPEB_W@Z 0000000140087100 f   OptionsClass.obj
 0001:00086570       ?SettingsPreSave@CSettings@@QEAAXXZ 0000000140087570 f   OptionsClass.obj
 0001:000867b8       ?ShowConFontErrorTip@CSettings@@QEAAXXZ 00000001400877b8 f   OptionsClass.obj
 0001:00086808       ?ShowErrorTip@CSettings@@AEAAXPEA_WPEAUHWND__@@H1PEAUtagTOOLINFOW@@1K_N@Z 0000000140087808 f   OptionsClass.obj
 0001:0008698c       ?ShowFontErrorTip@CSettings@@QEAAXPEB_W@Z 000000014008798c f   OptionsClass.obj
 0001:00086a24       ?ShowModifierErrorTip@CSettings@@QEAAXPEB_WPEAUHWND__@@G@Z 0000000140087a24 f   OptionsClass.obj
 0001:00086aa8       ?UnregisterTabs@CSettings@@AEAAXXZ 0000000140087aa8 f   OptionsClass.obj
 0001:00086aec       ?UpdateConsoleMode@CSettings@@QEAAXPEAVCRealConsole@@@Z 0000000140087aec f   OptionsClass.obj
 0001:00086b84       ?UpdateFontInfo@CSettings@@QEAAXXZ 0000000140087b84 f   OptionsClass.obj
 0001:00086bd4       ?UpdatePos@CSettings@@QEAAXHH_N@Z 0000000140087bd4 f   OptionsClass.obj
 0001:00086e24       ?UpdateSize@CSettings@@QEAAXTCESize@@0@Z 0000000140087e24 f   OptionsClass.obj
 0001:00087340       ?UpdateTextColorSettings@CSettings@@QEAAXHHPEBUAppSettings@@@Z 0000000140088340 f   OptionsClass.obj
 0001:00087390       ?UpdateWinHookSettings@CSettings@@QEAAXPEAUHINSTANCE__@@@Z 0000000140088390 f   OptionsClass.obj
 0001:00087614       ?UpdateWindowMode@CSettings@@QEAAXW4ConEmuWindowMode@@@Z 0000000140088614 f   OptionsClass.obj
 0001:00087698       ?isDialogMessage@CSettings@@QEAA_NAEAUtagMSG@@@Z 0000000140088698 f   OptionsClass.obj
 0001:00087780       ?wndOpProc@CSettings@@SA_JPEAUHWND__@@I_K_J@Z 0000000140088780 f   OptionsClass.obj
 0001:00087d48       ??$_Emplace_reallocate@AEBUAppInfo@AppFoundList@FastConfig@@@?$vector@UAppInfo@AppFoundList@FastConfig@@V?$MArrayAllocator@UAppInfo@AppFoundList@FastConfig@@@@@std@@QEAAPEAUAppInfo@AppFoundList@FastConfig@@QEAU234@AEBU234@@Z 0000000140088d48 f i OptionsFast.obj
 0001:00087f38       ??$_Guess_median_unchecked@PEAUAppInfo@AppFoundList@FastConfig@@P6A_NAEBU123@0@Z@std@@YAXPEAUAppInfo@AppFoundList@FastConfig@@00P6A_NAEBU123@1@Z@Z 0000000140088f38 f i OptionsFast.obj
 0001:00088014       ??$_Insertion_sort_unchecked@PEAUAppInfo@AppFoundList@FastConfig@@P6A_NAEBU123@0@Z@std@@YAPEAUAppInfo@AppFoundList@FastConfig@@PEAU123@QEAU123@P6A_NAEBU123@2@Z@Z 0000000140089014 f i OptionsFast.obj
 0001:000882fc       ??$_Make_heap_unchecked@PEAUAppInfo@AppFoundList@FastConfig@@P6A_NAEBU123@0@Z@std@@YAXPEAUAppInfo@AppFoundList@FastConfig@@0P6A_NAEBU123@1@Z@Z 00000001400892fc f i OptionsFast.obj
 0001:00088430       ??$_Med3_unchecked@PEAUAppInfo@AppFoundList@FastConfig@@P6A_NAEBU123@0@Z@std@@YAXPEAUAppInfo@AppFoundList@FastConfig@@00P6A_NAEBU123@1@Z@Z 0000000140089430 f i OptionsFast.obj
 0001:000888f0       ??$_Partition_by_median_guess_unchecked@PEAUAppInfo@AppFoundList@FastConfig@@P6A_NAEBU123@0@Z@std@@YA?AU?$pair@PEAUAppInfo@AppFoundList@FastConfig@@PEAU123@@0@PEAUAppInfo@AppFoundList@FastConfig@@0P6A_NAEBU234@1@Z@Z 00000001400898f0 f i OptionsFast.obj
 0001:00089564       ??$_Pop_heap_hole_by_index@PEAUAppInfo@AppFoundList@FastConfig@@U123@P6A_NAEBU123@0@Z@std@@YAXPEAUAppInfo@AppFoundList@FastConfig@@_J1$$QEAU123@P6A_NAEBU123@3@Z@Z 000000014008a564 f i OptionsFast.obj
 0001:00089748       ??$_Pop_heap_hole_unchecked@PEAUAppInfo@AppFoundList@FastConfig@@U123@P6A_NAEBU123@0@Z@std@@YAXPEAUAppInfo@AppFoundList@FastConfig@@00$$QEAU123@P6A_NAEBU123@2@Z@Z 000000014008a748 f i OptionsFast.obj
 0001:000897f8       ??$_Pop_heap_unchecked@PEAUAppInfo@AppFoundList@FastConfig@@P6A_NAEBU123@0@Z@std@@YAXPEAUAppInfo@AppFoundList@FastConfig@@0P6A_NAEBU123@1@Z@Z 000000014008a7f8 f i OptionsFast.obj
 0001:0008990c       ??$_Push_heap_by_index@PEAUAppInfo@AppFoundList@FastConfig@@U123@P6A_NAEBU123@0@Z@std@@YAXPEAUAppInfo@AppFoundList@FastConfig@@_J1$$QEAU123@P6A_NAEBU123@3@Z@Z 000000014008a90c f i OptionsFast.obj
 0001:00089a8c       ??$_Sort_heap_unchecked@PEAUAppInfo@AppFoundList@FastConfig@@P6A_NAEBU123@0@Z@std@@YAXPEAUAppInfo@AppFoundList@FastConfig@@0P6A_NAEBU123@1@Z@Z 000000014008aa8c f i OptionsFast.obj
 0001:00089b20       ??$_Sort_unchecked@PEAUAppInfo@AppFoundList@FastConfig@@P6A_NAEBU123@0@Z@std@@YAXPEAUAppInfo@AppFoundList@FastConfig@@0_JP6A_NAEBU123@2@Z@Z 000000014008ab20 f i OptionsFast.obj
 0001:00089c50       ??$emplace_back@AEBUAppInfo@AppFoundList@FastConfig@@@?$vector@UAppInfo@AppFoundList@FastConfig@@V?$MArrayAllocator@UAppInfo@AppFoundList@FastConfig@@@@@std@@QEAAXAEBUAppInfo@AppFoundList@FastConfig@@@Z 000000014008ac50 f i OptionsFast.obj
 0001:00089cf4       ??0CVarDefs@FastConfig@@QEAA@XZ 000000014008acf4 f i OptionsFast.obj
 0001:00089d64       ??0FarVerList@FastConfig@@QEAA@XZ 000000014008ad64 f i OptionsFast.obj
 0001:00089e04       ??1AppFoundList@FastConfig@@UEAA@XZ 000000014008ae04 f i OptionsFast.obj
 0001:00089e40       ??1CVarDefs@FastConfig@@QEAA@XZ 000000014008ae40 f i OptionsFast.obj
 0001:00089eb0       ??1FarVerList@FastConfig@@UEAA@XZ 000000014008aeb0 f i OptionsFast.obj
 0001:00089eec       ??1FoundFiles@FastConfig@@QEAA@XZ 000000014008aeec f i OptionsFast.obj
 0001:00089fac       ??_FAppFoundList@FastConfig@@QEAAXXZ 000000014008afac f i OptionsFast.obj
 0001:00089ff0       ??_EAppFoundList@FastConfig@@UEAAPEAXI@Z 000000014008aff0 f i OptionsFast.obj
 0001:00089ff0       ??_GAppFoundList@FastConfig@@UEAAPEAXI@Z 000000014008aff0 f i OptionsFast.obj
 0001:0008a050       ??_EFarVerList@FastConfig@@UEAAPEAXI@Z 000000014008b050 f i OptionsFast.obj
 0001:0008a050       ??_GFarVerList@FastConfig@@UEAAPEAXI@Z 000000014008b050 f i OptionsFast.obj
 0001:0008a0b0       ?Add@AppFoundList@FastConfig@@QEAA_NPEB_W0000ZZ 000000014008b0b0 f i OptionsFast.obj
 0001:0008a280       ?Add@FoundFiles@FastConfig@@QEAAXPEB_W0@Z 000000014008b280 f i OptionsFast.obj
 0001:0008a398       ?AddAppPath@AppFoundList@FastConfig@@MEAA_JPEB_W00_N000@Z 000000014008b398 f i OptionsFast.obj
 0001:0008a69c       ?CheckOptionsFast@FastConfig@@YAXPEB_WK@Z 000000014008b69c f   OptionsFast.obj
 0001:0008aba4       ?CheckUnique@AppFoundList@FastConfig@@QEAA_NPEB_W@Z 000000014008bba4 f i OptionsFast.obj
 0001:0008ad0c       ?Clean@AppFoundList@FastConfig@@IEAAXXZ 000000014008bd0c f i OptionsFast.obj
 0001:0008ae8c       ?Commit@AppFoundList@FastConfig@@UEAA_NXZ 000000014008be8c f i OptionsFast.obj
 0001:0008bf14       ?CreateDefaultTasks@FastConfig@@YAXK@Z 000000014008cf14 f   OptionsFast.obj
 0001:0008d374       ?DoPaintColorBox@FastConfig@@YAXPEAUHWND__@@AEBUColorPalette@@@Z 000000014008e374 f   OptionsFast.obj
 0001:0008d49c       ?DoStartupCommand@FastConfig@@YAXPEAUHWND__@@G@Z 000000014008e49c f   OptionsFast.obj
 0001:0008d6f4       ?FastMsgBox@FastConfig@@YAHPEB_WI0PEAUHWND__@@_N@Z 000000014008e6f4 f   OptionsFast.obj
 0001:0008d764       ?FindInstalledVersions@FarVerList@FastConfig@@QEAAXXZ 000000014008e764 f i OptionsFast.obj
 0001:0008e2b4       ?FindStartupTask@FastConfig@@YAXK@Z 000000014008f2b4 f   OptionsFast.obj
 0001:0008e440       ?Free@AppInfo@AppFoundList@FastConfig@@QEAAXXZ 000000014008f440 f i OptionsFast.obj
 0001:0008e4c0       ?GetStartupCommand@FastConfig@@YAPEB_WAEAUCEStr@@@Z 000000014008f4c0 f   OptionsFast.obj
 0001:0008e7b0       ?MakeUnique@AppFoundList@FastConfig@@UEAAXXZ 000000014008f7b0 f i OptionsFast.obj
 0001:0008fa3c       ?Process@CVarDefs@FastConfig@@QEAAXHPEB_W@Z 0000000140090a3c f i OptionsFast.obj
 0001:0008fbc8       ?ScanRegistry@FarVerList@FastConfig@@IEAAXXZ 0000000140090bc8 f i OptionsFast.obj
 0001:0008fe08       ?SortRoutine@impl@?1??MakeUnique@AppFoundList@FastConfig@@UEAAXXZ@SA_NAEBUAppInfo@34@0@Z 0000000140090e08 f i OptionsFast.obj
 0001:0008fe94       ?SortRoutine@impl@?BM@??FindInstalledVersions@FarVerList@FastConfig@@QEAAXXZ@SA_NAEBUAppInfo@AppFoundList@4@0@Z 0000000140090e94 f i OptionsFast.obj
 0001:0008fee8       ?Trim@AppFoundList@FastConfig@@IEAA_NXZ 0000000140090ee8 f i OptionsFast.obj
 0001:00090180       ?erase@?$MArray@UAppInfo@AppFoundList@FastConfig@@@@QEAAX_J0@Z 0000000140091180 f i OptionsFast.obj
 0001:00090218       ?GetItemHelp@CEHelpPopup@@SA_NHPEAUHWND__@@PEA_WK@Z 0000000140091218 f   OptionsHelp.obj
 0001:00090378       ?OpenSettingsWiki@CEHelpPopup@@SA_NPEAUHWND__@@G@Z 0000000140091378 f   OptionsHelp.obj
 0001:000904b8       ??0CPushInfo@@QEAA@XZ      00000001400914b8 f   PushInfo.obj
 0001:000906ec       ?OnNotificationClick@CPushInfo@@QEAAXXZ 00000001400916ec f   PushInfo.obj
 0001:000907ac       ?OpenNotificationUrl@CPushInfo@@QEAAXXZ 00000001400917ac f   PushInfo.obj
 0001:00090810       ?ShowNotification@CPushInfo@@QEAA_NXZ 0000000140091810 f   PushInfo.obj
 0001:0009088c       ??0CRConData@@IEAA@PEAVCRealConsole@@PEA_WPEAUtag_CharAttr@@AEBU_CONSOLE_SCREEN_BUFFER_INFO@@AEBU_COORD@@@Z 000000014009188c f   RConData.obj
 0001:00090910       ??1CRConData@@MEAA@XZ      0000000140091910 f   RConData.obj
 0001:0009096c       ??_ECRConData@@MEAAPEAXI@Z 000000014009196c f i RConData.obj
 0001:0009096c       ??_GCRConData@@MEAAPEAXI@Z 000000014009196c f i RConData.obj
 0001:000909a0       ?Allocate@CRConData@@SA_NAEAVCRConDataGuard@@PEAVCRealConsole@@PEA_WPEAUtag_CharAttr@@AEBU_CONSOLE_SCREEN_BUFFER_INFO@@AEBU_COORD@@@Z 00000001400919a0 f   RConData.obj
 0001:00090a7c       ?Allocate@CRConData@@SA_NAEAVCRConDataGuard@@PEAVCRealConsole@@_K@Z 0000000140091a7c f   RConData.obj
 0001:00090bcc       ?CheckProgressInConsole@CRConData@@QEAAFI@Z 0000000140091bcc f   RConData.obj
 0001:000911c8       ?FindPanels@CRConData@@QEAA_NAEA_NAEAUtagRECT@@1011@Z 00000001400921c8 f   RConData.obj
 0001:00091878       ?GetConsoleData@CRConData@@QEAAIPEA_WPEAUtag_CharAttr@@II_WU2@11_N4@Z 0000000140092878 f   RConData.obj
 0001:00091f04       ?GetConsoleLine@CRConData@@QEBA_NHAEAUConsoleLinePtr@@@Z 0000000140092f04 f   RConData.obj
 0001:00091fb0       ?clear@ConsoleLinePtr@@QEAAXXZ 0000000140092fb0 f   RConData.obj
 0001:00091fc4       ?isValid@CRConData@@QEAA_N_N_K@Z 0000000140092fc4 f   RConData.obj
 0001:00092000       ?isValid@CRConDataGuard@@QEAA_N_K@Z 0000000140093000 f   RConData.obj
 0001:00092034       ??0CRConFiles@@QEAA@PEAVCRealConsole@@@Z 0000000140093034 f   RConFiles.obj
 0001:0009203c       ?CheckParentFolders@CRConFiles@@AEAA_NPEB_W0AEAUCEStr@@@Z 000000014009303c f   RConFiles.obj
 0001:0009217c       ?GetFileFromConsole@CRConFiles@@QEAAPEB_WPEB_WAEAUCEStr@@@Z 000000014009317c f   RConFiles.obj
 0001:00092448       ??$swprintf_s@$0MI@@@YAHAEAY0MI@_WPEB_WZZ 0000000140093448 f i RConPalette.obj
 0001:0009249c       ??0CRConPalette@@QEAA@PEAVCRealConsole@@@Z 000000014009349c f   RConPalette.obj
 0001:000924dc       ??_GCRConPalette@@UEAAPEAXI@Z 00000001400934dc f i RConPalette.obj
 0001:000924dc       ??_ECRConPalette@@UEAAPEAXI@Z 00000001400934dc f i RConPalette.obj
 0001:00092508       ?UpdateColorTable@CRConPalette@@QEAAXAEBV?$array@K$0BA@@std@@_N1EEE@Z 0000000140093508 f   RConPalette.obj
 0001:0009293c       ??$SafeDelete@VCMatch@@@@YAXAEAPEAVCMatch@@@Z 000000014009393c f i RealBuffer.obj
 0001:00092984       ??$sprintf_c@$0CA@@@YAHAEAY0CA@DPEBDZZ 0000000140093984 f i RealBuffer.obj
 0001:000929b0       ??$swprintf_c@$0GA@@@YAHAEAY0GA@_WPEB_WZZ 00000001400939b0 f i RealBuffer.obj
 0001:000929dc       ??$swprintf_c@$0PA@@@YAHAEAY0PA@_WPEB_WZZ 00000001400939dc f i RealBuffer.obj
 0001:00092a08       ??0CRealBuffer@@QEAA@PEAVCRealConsole@@W4RealBufferType@@@Z 0000000140093a08 f   RealBuffer.obj
 0001:00092b68       ??1CRConDataGuard@@UEAA@XZ 0000000140093b68 f i RealBuffer.obj
 0001:00092bb4       ??1CRealBuffer@@QEAA@XZ    0000000140093bb4 f   RealBuffer.obj
 0001:00092cd8       ??_G?$CRefGuard@VCRConData@@@@UEAAPEAXI@Z 0000000140093cd8 f i RealBuffer.obj
 0001:00092cd8       ??_E?$CRefGuard@VCRConData@@@@UEAAPEAXI@Z 0000000140093cd8 f i RealBuffer.obj
 0001:00092cd8       ??_ECRConDataGuard@@UEAAPEAXI@Z 0000000140093cd8 f i RealBuffer.obj
 0001:00092cd8       ??_GCRConDataGuard@@UEAAPEAXI@Z 0000000140093cd8 f i RealBuffer.obj
 0001:00092d44       ?AllocateBuffer@MPipeBase@@IEAAPEAX_KPEAX0@Z 0000000140093d44 f i RealBuffer.obj
 0001:00092e1c       ?ApplyConsoleInfo@CRealBuffer@@AEAAXPEBUCESERVER_REQ@@AEA_N11@Z 0000000140093e1c f   RealBuffer.obj
 0001:0009353c       ?ApplyConsoleInfo@CRealBuffer@@QEAA_NXZ 000000014009453c f   RealBuffer.obj
 0001:00093668       ?Attach@?$CRefGuard@VCVirtualConsole@@@@UEAA_NPEAVCVirtualConsole@@@Z 0000000140094668 f i VConRelease.obj
 0001:00093668       ?Attach@?$CRefGuard@VCVConGroup@@@@UEAA_NPEAVCVConGroup@@@Z 0000000140094668 f i VConGroup.obj
 0001:00093668       ?Attach@?$CRefGuard@VCRConData@@@@UEAA_NPEAVCRConData@@@Z 0000000140094668 f i RealBuffer.obj
 0001:00093668       ?Attach@?$CRefGuard@VCConHostSearch@CRealConsole@@@@UEAA_NPEAVCConHostSearch@CRealConsole@@@Z 0000000140094668 f i RealConsole.obj
 0001:000936c0       ?BuferModeChangeLock@CRealBuffer@@QEAA_NXZ 00000001400946c0 f   RealBuffer.obj
 0001:000936d4       ?BuferModeChangeUnlock@CRealBuffer@@QEAAXXZ 00000001400946d4 f   RealBuffer.obj
 0001:000936dc       ?BufferHeight@CRealBuffer@@QEAAHI@Z 00000001400946dc f   RealBuffer.obj
 0001:00093734       ?BufferToScreen@CRealBuffer@@QEAA?AU_COORD@@U2@_N1@Z 0000000140094734 f   RealBuffer.obj
 0001:000937ec       ?CanProcessHyperlink@CRealBuffer@@AEAA_NAEBU_COORD@@@Z 00000001400947ec f   RealBuffer.obj
 0001:000938d0       ?ChangeBufferHeightMode@CRealBuffer@@QEAAX_N@Z 00000001400948d0 f   RealBuffer.obj
 0001:000939b0       ?ChangeSelectionByKey@CRealBuffer@@QEAAXI_N0@Z 00000001400949b0 f   RealBuffer.obj
 0001:00093d90       ?CheckBufferSize@CRealBuffer@@AEAA_NXZ 0000000140094d90 f   RealBuffer.obj
 0001:00093df4       ?ConsoleCursorInfo@CRealBuffer@@QEAAXPEAU_CONSOLE_CURSOR_INFO@@@Z 0000000140094df4 f   RealBuffer.obj
 0001:00093eb4       ?ConsoleCursorPos@CRealBuffer@@QEAAXPEAU_COORD@@@Z 0000000140094eb4 f   RealBuffer.obj
 0001:00093f08       ?ConsoleScreenBufferInfo@CRealBuffer@@QEAAXPEAU_CONSOLE_SCREEN_BUFFER_INFO@@PEAU_SMALL_RECT@@PEAUTOPLEFTCOORD@@@Z 0000000140094f08 f   RealBuffer.obj
 0001:00093f70       ?CorrectSelectionAnchor@CRealBuffer@@QEAAIXZ 0000000140094f70 f   RealBuffer.obj
 0001:00094008       ?DoCopyPaste@CRealBuffer@@QEAAX_N0@Z 0000000140095008 f   RealBuffer.obj
 0001:00094128       ?DoScrollBuffer@CRealBuffer@@QEAA_JHFI_N@Z 0000000140095128 f   RealBuffer.obj
 0001:000942bc       ?DoSelectionCopy@CRealBuffer@@QEAA_NW4CECopyMode@@EPEB_WPEAPEAX@Z 00000001400952bc f   RealBuffer.obj
 0001:00094584       ?DoSelectionCopyInt@CRealBuffer@@AEAA_NW4CECopyMode@@_NHHHHEPEB_WPEAPEAX@Z 0000000140095584 f   RealBuffer.obj
 0001:000953f8       ?DoSelectionFinalize@CRealBuffer@@QEAA_N_NW4CECopyMode@@_KPEAPEAX@Z 00000001400963f8 f   RealBuffer.obj
 0001:00095478       ?DoSelectionStop@CRealBuffer@@QEAAXXZ 0000000140096478 f   RealBuffer.obj
 0001:00095500       ?DumpConsole@CRealBuffer@@QEAAXPEAX@Z 0000000140096500 f   RealBuffer.obj
 0001:00095624       ?ExpandSelection@CRealBuffer@@QEAAXFF_N@Z 0000000140096624 f   RealBuffer.obj
 0001:00095a64       ?ExpandTextRange@CRealBuffer@@AEAA?AW4ExpandTextRangeType@@AEAU_COORD@@0W42@PEAUCEStr@@@Z 0000000140096a64 f   RealBuffer.obj
 0001:00095d54       ?FindPanels@CRealBuffer@@QEAAXXZ 0000000140096d54 f   RealBuffer.obj
 0001:000960f0       ?GetBufferHeight@CRealBuffer@@QEBAFXZ 00000001400970f0 f   RealBuffer.obj
 0001:000960f8       ?GetBufferPosY@CRealBuffer@@QEBAFXZ 00000001400970f8 f   RealBuffer.obj
 0001:0009610c       ?GetBufferWidth@CRealBuffer@@QEBAFXZ 000000014009710c f   RealBuffer.obj
 0001:00096114       ?GetConInMode@CRealBuffer@@QEAAGXZ 0000000140097114 f   RealBuffer.obj
 0001:0009611c       ?GetConOutMode@CRealBuffer@@QEAAGXZ 000000014009711c f   RealBuffer.obj
 0001:00096124       ?GetConWindowSize@CRealBuffer@@QEBA_NAEBU_CONSOLE_SCREEN_BUFFER_INFO@@PEAH1PEAK@Z 0000000140097124 f   RealBuffer.obj
 0001:00096250       ?GetConsoleCP@CRealBuffer@@QEAAKXZ 0000000140097250 f   RealBuffer.obj
 0001:00096258       ?GetConsoleData@CRealBuffer@@QEAAXPEA_WPEAUtag_CharAttr@@HHAEAUConEmuTextRange@@@Z 0000000140097258 f   RealBuffer.obj
 0001:00096cfc       ?GetConsoleLine@CRealBuffer@@QEAA_NAEAVCRConDataGuard@@HAEAPEB_WAEAHPEAVMSectionLock@@@Z 0000000140097cfc f   RealBuffer.obj
 0001:00096d54       ?GetConsoleLine@CRealBuffer@@QEAA_NHAEAVCRConDataGuard@@AEAUConsoleLinePtr@@PEAVMSectionLock@@@Z 0000000140097d54 f   RealBuffer.obj
 0001:00096ea8       ?GetConsoleOutputCP@CRealBuffer@@QEAAKXZ 0000000140097ea8 f   RealBuffer.obj
 0001:00096eb0       ?GetConsoleSelectionInfo@CRealBuffer@@QEAA_NPEAU_CONSOLE_SELECTION_INFO@@@Z 0000000140097eb0 f   RealBuffer.obj
 0001:00096ed4       ?GetCursorInfo@CRealBuffer@@QEAAXPEAU_COORD@@PEAU_CONSOLE_CURSOR_INFO@@@Z 0000000140097ed4 f   RealBuffer.obj
 0001:00096ef8       ?GetData@CRealBuffer@@IEAA_NAEAVCRConDataGuard@@@Z 0000000140097ef8 f   RealBuffer.obj
 0001:00096f80       ?GetDefaultNtvdmHeight@CRealBuffer@@QEAA?AU_COORD@@XZ 0000000140097f80 f   RealBuffer.obj
 0001:00096ff8       ?GetDetector@CRealBuffer@@QEAAPEBVCRgnDetect@@XZ 0000000140097ff8 f   RealBuffer.obj
 0001:00097008       ?GetDynamicHeight@CRealBuffer@@QEBAHXZ 0000000140098008 f   RealBuffer.obj
 0001:00097028       ?GetKeybLayout@CRealBuffer@@QEAA_KXZ 0000000140098028 f   RealBuffer.obj
 0001:00097030       ?GetLastTextRangeType@CRealBuffer@@QEAA?AW4ExpandTextRangeType@@XZ 0000000140098030 f   RealBuffer.obj
 0001:00097040       ?GetMaxSize@CRealBuffer@@QEAA?AU_COORD@@XZ 0000000140098040 f   RealBuffer.obj
 0001:0009704c       ?GetPanelRect@CRealBuffer@@QEAA_N_NPEAUtagRECT@@00@Z 000000014009804c f   RealBuffer.obj
 0001:000970f4       ?GetRBtnDrag@CRealBuffer@@QEAA_NPEAU_COORD@@@Z 00000001400980f4 f   RealBuffer.obj
 0001:00097108       ?GetSelectionCellsCount@CRealBuffer@@QEAAHXZ 0000000140098108 f   RealBuffer.obj
 0001:00097168       ?GetSelectionCharCount@CRealBuffer@@AEAAH_NHHHHPEAH1H@Z 0000000140098168 f   RealBuffer.obj
 0001:00097240       ?GetStatusLineCount@CRealBuffer@@QEAAHH@Z 0000000140098240 f   RealBuffer.obj
 0001:0009735c       ?GetTextHeight@CRealBuffer@@QEBAHXZ 000000014009835c f   RealBuffer.obj
 0001:00097370       ?GetTextWidth@CRealBuffer@@QEBAHXZ 0000000140098370 f   RealBuffer.obj
 0001:00097384       ?InitBuffers@CRealBuffer@@AEAA_NKHHPEAVCRConDataGuard@@@Z 0000000140098384 f   RealBuffer.obj
 0001:00097850       ?InitMaxSize@CRealBuffer@@QEAAXAEBU_COORD@@@Z 0000000140098850 f   RealBuffer.obj
 0001:0009785c       ?InitSBI@CRealBuffer@@QEAAXAEBU_CONSOLE_SCREEN_BUFFER_INFO@@@Z 000000014009885c f   RealBuffer.obj
 0001:000979a8       ?IsBufferHeightTurnedOn@CRealBuffer@@AEAA_NAEBU_CONSOLE_SCREEN_BUFFER_INFO@@@Z 00000001400989a8 f   RealBuffer.obj
 0001:000979f8       ?IsTrueColorerBufferChanged@CRealBuffer@@AEAA_NXZ 00000001400989f8 f   RealBuffer.obj
 0001:00097c14       ?LoadAlternativeConsole@CRealBuffer@@QEAA_NW4LoadAltMode@@@Z 0000000140098c14 f   RealBuffer.obj
 0001:00097eec       ?LoadDataFromDump@CRealBuffer@@AEAA_NAEBU_CONSOLE_SCREEN_BUFFER_INFO@@PEBU_CHAR_INFO@@K@Z 0000000140098eec f   RealBuffer.obj
 0001:0009832c       ?LoadDataFromSrv@CRealBuffer@@AEAA_NAEAVCRConDataGuard@@KPEAU_CHAR_INFO@@@Z 000000014009932c f   RealBuffer.obj
 0001:00098680       ?LoadDumpConsole@CRealBuffer@@QEAA_NPEB_W@Z 0000000140099680 f   RealBuffer.obj
 0001:00098c60       ?MarkFindText@CRealBuffer@@QEAAXHPEB_W_N1@Z 0000000140099c60 f   RealBuffer.obj
 0001:000992d0       ?OnBufferHeight@CRealBuffer@@QEAAXXZ 000000014009a2d0 f   RealBuffer.obj
 0001:000992f0       ?OnKeyboard@CRealBuffer@@QEAA_NPEAUHWND__@@I_K_JPEB_W@Z 000000014009a2f0 f   RealBuffer.obj
 0001:000994fc       ?OnKeysSending@CRealBuffer@@QEAAXXZ 000000014009a4fc f   RealBuffer.obj
 0001:00099558       ?OnMouse@CRealBuffer@@QEAA_NI_KHHU_COORD@@@Z 000000014009a558 f   RealBuffer.obj
 0001:0009a134       ?OnMouseSelection@CRealBuffer@@AEAA_NI_KHH@Z 000000014009b134 f   RealBuffer.obj
 0001:0009a5f0       ?OnTimerCheckSelection@CRealBuffer@@QEAAXXZ 000000014009b5f0 f   RealBuffer.obj
 0001:0009a718       ?Open@?$MPipe@UCESERVER_REQ_HDR@@U1@@@QEAA_NXZ 000000014009b718 f i RealBuffer.obj
 0001:0009a7f0       ?PatchMouseCoords@CRealBuffer@@AEAA_NAEAH0AEAU_COORD@@@Z 000000014009b7f0 f   RealBuffer.obj
 0001:0009a9ec       ?PreFillBuffers@CRealBuffer@@QEAAXXZ 000000014009b9ec f   RealBuffer.obj
 0001:0009aab0       ?PreInit@CRealBuffer@@QEAA_NXZ 000000014009bab0 f   RealBuffer.obj
 0001:0009ac38       ?PrepareColorTable@CRealBuffer@@AEAAXPEBUAppSettings@@PEAPEAUtag_CharAttr@@1@Z 000000014009bc38 f   RealBuffer.obj
 0001:0009ad38       ?PrepareTransparent@CRealBuffer@@AEAAXPEA_WPEAUtag_CharAttr@@HH@Z 000000014009bd38 f   RealBuffer.obj
 0001:0009af68       ?ProcessFarHyperlink@CRealBuffer@@QEAA_NIU_COORD@@_N@Z 000000014009bf68 f   RealBuffer.obj
 0001:0009b9c8       ?ProcessFarHyperlink@CRealBuffer@@QEAA_N_N@Z 000000014009c9c8 f   RealBuffer.obj
 0001:0009bb1c       ?ProcessSelectionHotKey@CRealBuffer@@QEAAPEBUConEmuHotKey@@AEBUConEmuChord@@_NPEB_W@Z 000000014009cb1c f   RealBuffer.obj
 0001:0009be14       ?QueryCellInfo@CRealBuffer@@QEAAXPEA_WH@Z 000000014009ce14 f   RealBuffer.obj
 0001:0009bff4       ?Release@?$CRefGuard@VCRConData@@@@UEAAXXZ 000000014009cff4 f i RealBuffer.obj
 0001:0009bff4       ?Release@?$CRefGuard@VCVConGroup@@@@UEAAXXZ 000000014009cff4 f i VConGroup.obj
 0001:0009bff4       ?Release@?$CRefGuard@VCConHostSearch@CRealConsole@@@@UEAAXXZ 000000014009cff4 f i RealConsole.obj
 0001:0009bff4       ?Release@?$CRefGuard@VCVirtualConsole@@@@UEAAXXZ 000000014009cff4 f i VConGroup.obj
 0001:0009c038       ?ReleaseMem@CRealBuffer@@QEAAXXZ 000000014009d038 f   RealBuffer.obj
 0001:0009c084       ?ResetBuffer@CRealBuffer@@QEAAXXZ 000000014009d084 f   RealBuffer.obj
 0001:0009c19c       ?ResetConData@CRealBuffer@@QEAAXXZ 000000014009d19c f   RealBuffer.obj
 0001:0009c1ac       ?ResetLastMousePos@CRealBuffer@@AEAA_NXZ 000000014009d1ac f   RealBuffer.obj
 0001:0009c1f4       ?ResetTopLeft@CRealBuffer@@QEAAXXZ 000000014009d1f4 f   RealBuffer.obj
 0001:0009c230       ?ScreenToBuffer@CRealBuffer@@QEAA?AU_COORD@@U2@@Z 000000014009d230 f   RealBuffer.obj
 0001:0009c268       ?SetBufferHeightMode@CRealBuffer@@QEAAX_N0@Z 000000014009d268 f   RealBuffer.obj
 0001:0009c2b0       ?SetChange2Size@CRealBuffer@@QEAAXHH@Z 000000014009d2b0 f   RealBuffer.obj
 0001:0009c2c0       ?SetConsoleSize@CRealBuffer@@QEAA_NFFGK@Z 000000014009d2c0 f   RealBuffer.obj
 0001:0009c5e8       ?SetConsoleSizeSrv@CRealBuffer@@AEAA_NGGGK@Z 000000014009d5e8 f   RealBuffer.obj
 0001:0009cf58       ?SetKeybLayout@CRealBuffer@@QEAAX_K@Z 000000014009df58 f   RealBuffer.obj
 0001:0009cf60       ?SetRBtnDrag@CRealBuffer@@QEAAX_NPEBU_COORD@@@Z 000000014009df60 f   RealBuffer.obj
 0001:0009cf78       ?SetTopLeft@CRealBuffer@@IEAA_NHH_N0@Z 000000014009df78 f   RealBuffer.obj
 0001:0009d0bc       ?ShowKeyBarHint@CRealBuffer@@QEAAXG@Z 000000014009e0bc f   RealBuffer.obj
 0001:0009d0f8       ?StartSelection@CRealBuffer@@QEAAX_NFF0IPEAU_COORD@@K@Z 000000014009e0f8 f   RealBuffer.obj
 0001:0009d3a0       ?StoreLastTextRange@CRealBuffer@@AEAA_NW4ExpandTextRangeType@@@Z 000000014009e3a0 f   RealBuffer.obj
 0001:0009d3f4       ?StorePausedState@CRealBuffer@@QEAAXW4CEPauseCmd@@@Z 000000014009e3f4 f   RealBuffer.obj
 0001:0009d444       ?SyncConsole2Window@CRealBuffer@@QEAAXFF@Z 000000014009e444 f   RealBuffer.obj
 0001:0009d534       ?TextHeight@CRealBuffer@@QEBAHXZ 000000014009e534 f   RealBuffer.obj
 0001:0009d550       ?TextWidth@CRealBuffer@@QEBAHXZ 000000014009e550 f   RealBuffer.obj
 0001:0009d56c       ?Transact@?$MPipe@UCESERVER_REQ_HDR@@U1@@@QEAA_NPEBUCESERVER_REQ_HDR@@KPEAPEBU2@@Z 000000014009e56c f i RealBuffer.obj
 0001:0009d9f4       ?UpdateSelection@CRealBuffer@@QEAAXXZ 000000014009e9f4 f   RealBuffer.obj
 0001:0009da6c       ?isConSelectMode@CRealBuffer@@QEAA_NXZ 000000014009ea6c f   RealBuffer.obj
 0001:0009dab0       ?isConsoleDataChanged@CRealBuffer@@QEAA_NXZ 000000014009eab0 f   RealBuffer.obj
 0001:0009dac0       ?isCursorVisible@CRealBuffer@@QEAA_NXZ 000000014009eac0 f   RealBuffer.obj
 0001:0009db08       ?isDataValid@CRealBuffer@@IEAA_NXZ 000000014009eb08 f   RealBuffer.obj
 0001:0009dbe0       ?isFarMenuOrMacro@CRealBuffer@@QEAA_NXZ 000000014009ebe0 f   RealBuffer.obj
 0001:0009dd9c       ?isInitialized@CRealBuffer@@QEAA_NXZ 000000014009ed9c f   RealBuffer.obj
 0001:0009ddc0       ?isLeftPanel@CRealBuffer@@QEAA_NXZ 000000014009edc0 f   RealBuffer.obj
 0001:0009ddc4       ?isMouseClickExtension@CRealBuffer@@QEAA_NXZ 000000014009edc4 f   RealBuffer.obj
 0001:0009de14       ?isMouseInsideSelection@CRealBuffer@@QEAA_NHH@Z 000000014009ee14 f   RealBuffer.obj
 0001:0009df28       ?isMouseSelectionPresent@CRealBuffer@@QEAA_NXZ 000000014009ef28 f   RealBuffer.obj
 0001:0009df3c       ?isPaused@CRealBuffer@@QEAA_NXZ 000000014009ef3c f   RealBuffer.obj
 0001:0009df50       ?isRightPanel@CRealBuffer@@QEAA_NXZ 000000014009ef50 f   RealBuffer.obj
 0001:0009df54       ?isScroll@CRealBuffer@@QEAA_NW4RealBufferScroll@@@Z 000000014009ef54 f   RealBuffer.obj
 0001:0009df5c       ?isSelectionAllowed@CRealBuffer@@QEAA_NXZ 000000014009ef5c f   RealBuffer.obj
 0001:0009e100       ?isSelectionPresent@CRealBuffer@@QEAA_NXZ 000000014009f100 f   RealBuffer.obj
 0001:0009e114       ?isStreamSelection@CRealBuffer@@QEAA_NXZ 000000014009f114 f   RealBuffer.obj
 0001:0009e128       ??$SafeDelete@UTermX@@@@YAXAEAPEAUTermX@@@Z 000000014009f128 f i RealConsole.obj
 0001:0009e158       ??$SafeDelete@VCProcessData@@@@YAXAEAPEAVCProcessData@@@Z 000000014009f158 f i RealConsole.obj
 0001:0009e1c4       ??$SafeDelete@VCTab@@@@YAXAEAPEAVCTab@@@Z 000000014009f1c4 f i RealConsole.obj
 0001:0009e20c       ??$_Emplace_reallocate@AEBUConProcess@@@?$vector@UConProcess@@V?$MArrayAllocator@UConProcess@@@@@std@@QEAAPEAUConProcess@@QEAU2@AEBU2@@Z 000000014009f20c f i RealConsole.obj
 0001:0009e3e8       ??$_Emplace_reallocate@AEBUtagPROCESSENTRY32W@@@?$vector@UtagPROCESSENTRY32W@@V?$MArrayAllocator@UtagPROCESSENTRY32W@@@@@std@@QEAAPEAUtagPROCESSENTRY32W@@QEAU2@AEBU2@@Z 000000014009f3e8 f i RealConsole.obj
 0001:0009e5d0       ??$emplace_back@AEBUConProcess@@@?$vector@UConProcess@@V?$MArrayAllocator@UConProcess@@@@@std@@QEAAXAEBUConProcess@@@Z 000000014009f5d0 f i RealConsole.obj
 0001:0009e64c       ??$ltow_s@$0BE@@@YAPEB_WHAEAY0BE@_WH@Z 000000014009f64c f i RealConsole.obj
 0001:0009e678       ??$sprintf_c@$0MA@@@YAHAEAY0MA@DPEBDZZ 000000014009f678 f i RealConsole.obj
 0001:0009e6a4       ??$swprintf_c@$04@@YAHAEAY04_WPEB_WZZ 000000014009f6a4 f i RealConsole.obj
 0001:0009e6d0       ??$swprintf_c@$07@@YAHAEAY07_WPEB_WZZ 000000014009f6d0 f i RealConsole.obj
 0001:0009e6fc       ??$swprintf_c@$0BAD@@@YAHAEAY0BAD@_WPEB_WZZ 000000014009f6fc f i RealConsole.obj
 0001:0009e728       ??$swprintf_c@$0BGI@@@YAHAEAY0BGI@_WPEB_WZZ 000000014009f728 f i RealConsole.obj
 0001:0009e754       ??$swprintf_c@$0BO@@@YAHAEAY0BO@_WPEB_WZZ 000000014009f754 f i RealConsole.obj
 0001:0009e780       ??$ultow_s@$0DAM@@@YAPEB_WIAEAY0DAM@_WH@Z 000000014009f780 f i RealConsole.obj
 0001:0009e7ac       ??$ultow_s@$0EBA@@@YAPEB_WIAEAY0EBA@_WH@Z 000000014009f7ac f i RealConsole.obj
 0001:0009e7d8       ??$wcscpy_c@$04@@YAHAEAY04_WPEB_W@Z 000000014009f7d8 f i RealConsole.obj
 0001:0009e824       ??$wcscpy_c@$0EAA@@@YAHAEAY0EAA@_WPEB_W@Z 000000014009f824 f i RealConsole.obj
 0001:0009e870       ??$wcscpy_c@$0EAB@@@YAHAEAY0EAB@_WPEB_W@Z 000000014009f870 f i RealConsole.obj
 0001:0009e8bc       ??$wcscpy_c@$0EGA@@@YAHAEAY0EGA@_WPEB_W@Z 000000014009f8bc f i RealConsole.obj
 0001:0009e908       ??$wcscpy_c@$0EMA@@@YAHAEAY0EMA@_WPEB_W@Z 000000014009f908 f i RealConsole.obj
 0001:0009e954       ??$wcscpy_c@$0IAAA@@@YAHAEAY0IAAA@_WPEB_W@Z 000000014009f954 f i RealConsole.obj
 0001:0009e9a0       ??$xf_interlocked_new@UTermX@@@@YAPEAUTermX@@AEAPEAU0@$$QEAPEAU0@@Z 000000014009f9a0 f i RealConsole.obj
 0001:0009e9d4       ??0?$CRefGuard@VCConHostSearch@CRealConsole@@@@QEAA@PEAVCConHostSearch@CRealConsole@@@Z 000000014009f9d4 f i RealConsole.obj
 0001:0009ea4c       ??0CConHostSearch@CRealConsole@@QEAA@XZ 000000014009fa4c f   RealConsole.obj
 0001:0009eacc       ??0CRealConsole@@QEAA@PEAVCVirtualConsole@@PEAVCConEmuMain@@@Z 000000014009facc f   RealConsole.obj
 0001:0009ed98       ??0MPipeBase@@QEAA@XZ      000000014009fd98 f i RealConsole.obj
 0001:0009eec8       ??1?$CRefGuard@VCConHostSearch@CRealConsole@@@@UEAA@XZ 000000014009fec8 f i RealConsole.obj
 0001:0009ef14       ??1?$MPipe@UCESERVER_REQ_HDR@@U1@@@UEAA@XZ 000000014009ff14 f i RealConsole.obj
 0001:0009ef30       ??1CRealConsole@@QEAA@XZ   000000014009ff30 f   RealConsole.obj
 0001:0009f514       ??1_TabsInfo@CRealConsole@@QEAA@XZ 00000001400a0514 f i RealConsole.obj
 0001:0009f51c       ??_E?$CRefGuard@VCConHostSearch@CRealConsole@@@@UEAAPEAXI@Z 00000001400a051c f i RealConsole.obj
 0001:0009f51c       ??_G?$CRefGuard@VCConHostSearch@CRealConsole@@@@UEAAPEAXI@Z 00000001400a051c f i RealConsole.obj
 0001:0009f588       ??_E?$MPipe@UCESERVER_REQ_HDR@@U1@@@UEAAPEAXI@Z 00000001400a0588 f i RealConsole.obj
 0001:0009f588       ??_G?$MPipe@UCESERVER_REQ_HDR@@U1@@@UEAAPEAXI@Z 00000001400a0588 f i RealConsole.obj
 0001:0009f5c8       ??_GCConHostSearch@CRealConsole@@UEAAPEAXI@Z 00000001400a05c8 f i RealConsole.obj
 0001:0009f5c8       ??_ECConHostSearch@CRealConsole@@UEAAPEAXI@Z 00000001400a05c8 f i RealConsole.obj
 0001:0009f638       ??_EMPipeBase@@UEAAPEAXI@Z 00000001400a0638 f i RealConsole.obj
 0001:0009f638       ??_GMPipeBase@@UEAAPEAXI@Z 00000001400a0638 f i RealConsole.obj
 0001:0009f678       ?ActivateFarWindow@CRealConsole@@QEAA_NH@Z 00000001400a0678 f   RealConsole.obj
 0001:0009f948       ?AddIndicatorsCtrlState@CRealConsole@@QEAAXAEAK@Z 00000001400a0948 f   RealConsole.obj
 0001:0009f990       ?AddModifiersCtrlState@CRealConsole@@QEAAXAEAK@Z 00000001400a0990 f   RealConsole.obj
 0001:0009f9f4       ?AdminDuplicate@CRealConsole@@QEAAXXZ 00000001400a09f4 f   RealConsole.obj
 0001:0009fa1c       ?AttachConemuC@CRealConsole@@QEAA_NPEAUHWND__@@KPEBUCESERVER_REQ_STARTSTOP@@AEAUCESERVER_REQ_SRVSTARTSTOPRET@@@Z 00000001400a0a1c f   RealConsole.obj
 0001:0009fc7c       ?AutoCopyTimer@CRealConsole@@QEAAXXZ 00000001400a0c7c f   RealConsole.obj
 0001:0009fcec       ?BufferToScreen@CRealConsole@@QEAA?AU_COORD@@U2@_N1@Z 00000001400a0cec f   RealConsole.obj
 0001:0009fd1c       ?CanActivateFarWindow@CRealConsole@@QEAAKH@Z 00000001400a0d1c f   RealConsole.obj
 0001:0009ff00       ?CanCloseTab@CRealConsole@@QEAA_N_N@Z 00000001400a0f00 f   RealConsole.obj
 0001:0009ff24       ?CanCutChildFrame@CRealConsole@@SA_NPEB_W@Z 00000001400a0f24 f   RealConsole.obj
 0001:0009ff74       ?ChangeAffinityPriority@CRealConsole@@QEAA_NPEB_W0@Z 00000001400a0f74 f   RealConsole.obj
 0001:000a017c       ?ChangeBufferHeightMode@CRealConsole@@QEAAX_N@Z 00000001400a117c f   RealConsole.obj
 0001:000a0198       ?ChangePromptPosition@CRealConsole@@AEAA_NPEBUAppSettings@@U_COORD@@@Z 00000001400a1198 f   RealConsole.obj
 0001:000a02f4       ?ChangeSelectionByKey@CRealConsole@@QEAAXI_N0@Z 00000001400a12f4 f   RealConsole.obj
 0001:000a0300       ?CheckFarStates@CRealConsole@@AEAAXXZ 00000001400a1300 f   RealConsole.obj
 0001:000a053c       ?CheckPanelTitle@CRealConsole@@AEAAXXZ 00000001400a153c f   RealConsole.obj
 0001:000a05d8       ?CheckProgressInTitle@CRealConsole@@IEAAFXZ 00000001400a15d8 f   RealConsole.obj
 0001:000a07c0       ?CheckVConRConPointer@CRealConsole@@AEAAX_N@Z 00000001400a17c0 f   RealConsole.obj
 0001:000a0878       ?ChildSystemMenu@CRealConsole@@QEAAXXZ 00000001400a1878 f   RealConsole.obj
 0001:000a095c       ?Close@MPipeBase@@UEAAXXZ  00000001400a195c f i RealConsole.obj
 0001:000a09f0       ?CloseColorMapping@CRealConsole@@AEAAXXZ 00000001400a19f0 f   RealConsole.obj
 0001:000a0a70       ?CloseConsole@CRealConsole@@QEAAX_N00@Z 00000001400a1a70 f   RealConsole.obj
 0001:000a0cac       ?CloseConsoleWindow@CRealConsole@@QEAAX_N@Z 00000001400a1cac f   RealConsole.obj
 0001:000a0d2c       ?CloseFarMapData@CRealConsole@@AEAAXPEAVMSectionLock@@@Z 00000001400a1d2c f   RealConsole.obj
 0001:000a0de4       ?CloseMapHeader@CRealConsole@@AEAAXXZ 00000001400a1de4 f   RealConsole.obj
 0001:000a0ee4       ?CloseTab@CRealConsole@@QEAAXXZ 00000001400a1ee4 f   RealConsole.obj
 0001:000a10ec       ?ConHostSearch@CRealConsole@@IEAAK_N@Z 00000001400a20ec f   RealConsole.obj
 0001:000a1484       ?ConHostSearchPrepare@CRealConsole@@IEAAXXZ 00000001400a2484 f   RealConsole.obj
 0001:000a1608       ?ConHostSetPID@CRealConsole@@IEAAXK@Z 00000001400a2608 f   RealConsole.obj
 0001:000a1658       ?ConWnd@CRealConsole@@QEAAPEAUHWND__@@XZ 00000001400a2658 f   RealConsole.obj
 0001:000a1668       ?Construct@CRealConsole@@QEAA_NPEAVCVirtualConsole@@PEAURConStartArgsEx@@@Z 00000001400a2668 f   RealConsole.obj
 0001:000a1f30       ?CoordInPanel@CRealConsole@@QEAAHU_COORD@@_N@Z 00000001400a2f30 f   RealConsole.obj
 0001:000a1ff8       ?CorrectGuiChildRect@CRealConsole@@SAXKKAEAUtagRECT@@PEB_W@Z 00000001400a2ff8 f   RealConsole.obj
 0001:000a2134       ?CreateColorMapping@CRealConsole@@AEAAXXZ 00000001400a3134 f   RealConsole.obj
 0001:000a2290       ?CreateCommandLine@CRealConsole@@QEAAPEA_W_N@Z 00000001400a3290 f   RealConsole.obj
 0001:000a23a8       ?CreateLogFiles@CRealConsole@@AEAAXXZ 00000001400a33a8 f   RealConsole.obj
 0001:000a2540       ?CreateOrRunAs@CRealConsole@@KA_NPEAV1@AEAURConStartArgsEx@@PEA_WAEAPEB_WAEAU_STARTUPINFOW@@AEAU_PROCESS_INFORMATION@@AEAPEAU_SHELLEXECUTEINFOW@@AEAK_N@Z 00000001400a3540 f   RealConsole.obj
 0001:000a2b84       ?CtrlWinAltSpace@CRealConsole@@QEAAXXZ 00000001400a3b84 f   RealConsole.obj
 0001:000a2be4       ?DeleteWordKeyPress@CRealConsole@@QEAA_N_N@Z 00000001400a3be4 f   RealConsole.obj
 0001:000a2d8c       ?DetachRCon@CRealConsole@@QEAA_N_N00@Z 00000001400a3d8c f   RealConsole.obj
 0001:000a31a8       ?DoEndFindText@CRealConsole@@QEAAXXZ 00000001400a41a8 f   RealConsole.obj
 0001:000a324c       ?DoFindText@CRealConsole@@QEAAXH@Z 00000001400a424c f   RealConsole.obj
 0001:000a3324       ?DoLockUnlock@CRealConsole@@QEAAX_N@Z 00000001400a4324 f   RealConsole.obj
 0001:000a3500       ?DoRenameTab@CRealConsole@@QEAAXXZ 00000001400a4500 f   RealConsole.obj
 0001:000a3568       ?DoScroll@CRealConsole@@QEAA_JHI@Z 00000001400a4568 f   RealConsole.obj
 0001:000a3828       ?DoSelectionCopy@CRealConsole@@QEAA_NW4CECopyMode@@EPEB_W@Z 00000001400a4828 f   RealConsole.obj
 0001:000a3a50       ?DoSelectionFinalize@CRealConsole@@QEAAXXZ 00000001400a4a50 f   RealConsole.obj
 0001:000a3aa4       ?DumpConsole@CRealConsole@@QEAAXPEAX@Z 00000001400a4aa4 f   RealConsole.obj
 0001:000a3ab0       ?DuplicateRoot@CRealConsole@@QEAA_N_N0PEB_W11@Z 00000001400a4ab0 f   RealConsole.obj
 0001:000a41e0       ?EndSizing@CRealConsole@@QEAAXXZ 00000001400a51e0 f   RealConsole.obj
 0001:000a4324       ?EvalPromptCtrlBSCount@CRealConsole@@AEAAHPEBUAppSettings@@@Z 00000001400a5324 f   RealConsole.obj
 0001:000a4564       ?EvalPromptLeftRightCount@CRealConsole@@AEAAHPEBUAppSettings@@U_COORD@@AEAG@Z 00000001400a5564 f   RealConsole.obj
 0001:000a49e4       ?ExpandSelection@CRealConsole@@QEAAXFF@Z 00000001400a59e4 f   RealConsole.obj
 0001:000a4a30       ?FinalRelease@CConHostSearch@CRealConsole@@MEAAXXZ 00000001400a5a30 f   RealConsole.obj
 0001:000a4a6c       ?FindChildGuiWindowProc@CRealConsole@@CAHPEAUHWND__@@_J@Z 00000001400a5a6c f   RealConsole.obj
 0001:000a4ab8       ?FindPicViewFrom@CRealConsole@@AEAAPEAUHWND__@@PEAU2@@Z 00000001400a5ab8 f   RealConsole.obj
 0001:000a4b2c       ?GetActivateFarWindowError@CRealConsole@@QEAAPEB_WPEA_W_K@Z 00000001400a5b2c f   RealConsole.obj
 0001:000a4bd4       ?GetActiveAppSettingsId@CRealConsole@@QEAAH_N@Z 00000001400a5bd4 f   RealConsole.obj
 0001:000a4cbc       ?GetActiveBufferType@CRealConsole@@QEAA?AW4RealBufferType@@XZ 00000001400a5cbc f   RealConsole.obj
 0001:000a4cd4       ?GetActiveDlgFlags@CRealConsole@@QEAAKXZ 00000001400a5cd4 f   RealConsole.obj
 0001:000a4d04       ?GetActivePID@CRealConsole@@QEAAKPEAUConProcess@@@Z 00000001400a5d04 f   RealConsole.obj
 0001:000a4d58       ?GetActiveProcessInfo@CRealConsole@@QEAAPEB_WAEAUCEStr@@@Z 00000001400a5d58 f   RealConsole.obj
 0001:000a4fdc       ?GetActiveProcessName@CRealConsole@@QEAAPEB_WXZ 00000001400a5fdc f   RealConsole.obj
 0001:000a4ff8       ?GetActiveTab@CRealConsole@@QEAAHXZ 00000001400a5ff8 f   RealConsole.obj
 0001:000a5008       ?GetActiveTabType@CRealConsole@@QEAAIXZ 00000001400a6008 f   RealConsole.obj
 0001:000a5010       ?GetAnsiLogInfo@CRealConsole@@QEAA?AUConEmuAnsiLog@@XZ 00000001400a6010 f   RealConsole.obj
 0001:000a52a0       ?GetAppCursorKeys@CRealConsole@@QEAA_NXZ 00000001400a62a0 f   RealConsole.obj
 0001:000a52bc       ?GetArgs@CRealConsole@@QEAAAEBURConStartArgsEx@@XZ 00000001400a62bc f   RealConsole.obj
 0001:000a52c4       ?GetBracketedPaste@CRealConsole@@QEAA_NXZ 00000001400a62c4 f   RealConsole.obj
 0001:000a52d8       ?GetCmd@CRealConsole@@QEAAPEB_W_N@Z 00000001400a62d8 f   RealConsole.obj
 0001:000a5310       ?GetConStatus@CRealConsole@@QEAAPEB_WXZ 00000001400a6310 f   RealConsole.obj
 0001:000a5328       ?GetConsoleCP@CRealConsole@@QEAAKXZ 00000001400a6328 f   RealConsole.obj
 0001:000a5334       ?GetConsoleCurDir@CRealConsole@@QEAAPEB_WAEAUCEStr@@_N@Z 00000001400a6334 f   RealConsole.obj
 0001:000a5450       ?GetConsoleCursorInfo@CRealConsole@@QEAAXPEAU_CONSOLE_CURSOR_INFO@@PEAU_COORD@@@Z 00000001400a6450 f   RealConsole.obj
 0001:000a5498       ?GetConsoleData@CRealConsole@@QEAAXPEA_WPEAUtag_CharAttr@@HHAEAUConEmuTextRange@@@Z 00000001400a6498 f   RealConsole.obj
 0001:000a54d4       ?GetConsoleInfo@CRealConsole@@QEAAPEB_WPEB_WAEAUCEStr@@@Z 00000001400a64d4 f   RealConsole.obj
 0001:000a57d4       ?GetConsoleInfo@CRealConsole@@QEAAXPEAUConsoleInfoArg@@@Z 00000001400a67d4 f   RealConsole.obj
 0001:000a581c       ?GetConsoleOutputCP@CRealConsole@@QEAAKXZ 00000001400a681c f   RealConsole.obj
 0001:000a5828       ?GetConsoleScreenBufferInfo@CRealConsole@@QEAAXPEAU_CONSOLE_SCREEN_BUFFER_INFO@@@Z 00000001400a6828 f   RealConsole.obj
 0001:000a5848       ?GetConsoleStartDir@CRealConsole@@QEAAPEB_WAEAUCEStr@@@Z 00000001400a6848 f   RealConsole.obj
 0001:000a58a0       ?GetCursorShape@CRealConsole@@QEAA?AW4TermCursorShapes@@XZ 00000001400a68a0 f   RealConsole.obj
 0001:000a58b0       ?GetDefaultAppSettingsId@CRealConsole@@AEAAHXZ 00000001400a68b0 f   RealConsole.obj
 0001:000a5b60       ?GetDetector@CRealConsole@@QEAAPEBVCRgnDetect@@XZ 00000001400a6b60 f   RealConsole.obj
 0001:000a5b74       ?GetFarInfo@CRealConsole@@QEAAPEBUCEFAR_INFO_MAPPING@@XZ 00000001400a6b74 f   RealConsole.obj
 0001:000a5b88       ?GetFarPID@CRealConsole@@QEAAK_N@Z 00000001400a6b88 f   RealConsole.obj
 0001:000a5bc0       ?GetFarStatus@CRealConsole@@QEAAKXZ 00000001400a6bc0 f   RealConsole.obj
 0001:000a5bd8       ?GetFarVersion@CRealConsole@@QEAA_NPEAUFarVersion@@@Z 00000001400a6bd8 f   RealConsole.obj
 0001:000a5c3c       ?GetFileFromConsole@CRealConsole@@QEAAPEB_WPEB_WAEAUCEStr@@@Z 00000001400a6c3c f   RealConsole.obj
 0001:000a5d00       ?GetInteractivePID@CRealConsole@@QEAAKXZ 00000001400a6d00 f   RealConsole.obj
 0001:000a5d40       ?GetLastTextRangeType@CRealConsole@@QEAA?AW4ExpandTextRangeType@@XZ 00000001400a6d40 f   RealConsole.obj
 0001:000a5d4c       ?GetLoadedPID@CRealConsole@@QEAAKXZ 00000001400a6d4c f   RealConsole.obj
 0001:000a5de0       ?GetMaxConSize@CRealConsole@@QEAA_NPEAU_COORD@@@Z 00000001400a6de0 f   RealConsole.obj
 0001:000a5dfc       ?GetMntPrefix@CRealConsole@@QEAAPEB_WXZ 00000001400a6dfc f   RealConsole.obj
 0001:000a5e9c       ?GetModifiedEditors@CRealConsole@@QEAAHXZ 00000001400a6e9c f   RealConsole.obj
 0001:000a5f0c       ?GetMonitorThreadID@CRealConsole@@QEAAKXZ 00000001400a6f0c f   RealConsole.obj
 0001:000a5f1c       ?GetPanelDirs@CRealConsole@@QEAAXAEAUCEStr@@0@Z 00000001400a6f1c f   RealConsole.obj
 0001:000a5fa4       ?GetPanelRect@CRealConsole@@QEAA_N_NPEAUtagRECT@@00@Z 00000001400a6fa4 f   RealConsole.obj
 0001:000a5ff4       ?GetPanelTitle@CRealConsole@@QEAAPEB_WXZ 00000001400a6ff4 f   RealConsole.obj
 0001:000a6024       ?GetProcessInformation@CRealConsole@@QEAA_NKPEAUConProcess@@@Z 00000001400a7024 f   RealConsole.obj
 0001:000a61b0       ?GetProcesses@CRealConsole@@QEAAHPEAPEAUConProcess@@_N@Z 00000001400a71b0 f   RealConsole.obj
 0001:000a65f0       ?GetProgramStatus@CRealConsole@@QEAAKXZ 00000001400a75f0 f   RealConsole.obj
 0001:000a6600       ?GetProgress@CRealConsole@@QEAAFPEAHPEA_N@Z 00000001400a7600 f   RealConsole.obj
 0001:000a668c       ?GetRootProcessIcon@CRealConsole@@QEAAHXZ 00000001400a768c f   RealConsole.obj
 0001:000a66ac       ?GetRootProcessName@CRealConsole@@QEAAPEB_WXZ 00000001400a76ac f   RealConsole.obj
 0001:000a66c4       ?GetRunTime@CRealConsole@@AEAAKXZ 00000001400a76c4 f   RealConsole.obj
 0001:000a66f8       ?GetRunningPID@CRealConsole@@QEAAKXZ 00000001400a76f8 f   RealConsole.obj
 0001:000a6834       ?GetServerPID@CRealConsole@@QEAAK_N@Z 00000001400a7834 f   RealConsole.obj
 0001:000a6854       ?GetStartupDir@CRealConsole@@QEAAPEB_WXZ 00000001400a7854 f   RealConsole.obj
 0001:000a6884       ?GetStatusLineCount@CRealConsole@@QEAAHH@Z 00000001400a7884 f   RealConsole.obj
 0001:000a68b0       ?GetTab@CRealConsole@@QEAA_NHAEAVCTab@@@Z 00000001400a78b0 f   RealConsole.obj
 0001:000a69a8       ?GetTabCount@CRealConsole@@QEAAH_N@Z 00000001400a79a8 f   RealConsole.obj
 0001:000a69e4       ?GetTabTitle@CRealConsole@@QEAAPEB_WAEAVCTab@@@Z 00000001400a79e4 f   RealConsole.obj
 0001:000a6a5c       ?GetTermType@CRealConsole@@QEAA?AW4TermEmulationType@@XZ 00000001400a7a5c f   RealConsole.obj
 0001:000a6ac0       ?GetTerminalPID@CRealConsole@@QEAAKXZ 00000001400a7ac0 f   RealConsole.obj
 0001:000a6ad0       ?GetTitle@CRealConsole@@QEAAPEB_W_N@Z 00000001400a7ad0 f   RealConsole.obj
 0001:000a6c10       ?GetUserPwd@CRealConsole@@QEAA_NPEAPEB_W0PEA_N@Z 00000001400a7c10 f   RealConsole.obj
 0001:000a6c44       ?GetView@CRealConsole@@QEAAPEAUHWND__@@XZ 00000001400a7c44 f   RealConsole.obj
 0001:000a6c58       ?GetWheelScrollLines@MouseState@CConEmuMain@@QEAAIXZ 00000001400a7c58 f i RealConsole.obj
 0001:000a6cc4       ?GuiAppAttachAllowed@CRealConsole@@QEAA_NKPEB_WK@Z 00000001400a7cc4 f   RealConsole.obj
 0001:000a6f8c       ?GuiNotifyChildWindow@CRealConsole@@QEAAXXZ 00000001400a7f8c f   RealConsole.obj
 0001:000a70c4       ?GuiWnd@CRealConsole@@QEAAPEAUHWND__@@XZ 00000001400a80c4 f   RealConsole.obj
 0001:000a70dc       ?GuiWndFocusRestore@CRealConsole@@QEAAX_N@Z 00000001400a80dc f   RealConsole.obj
 0001:000a724c       ?GuiWndFocusStore@CRealConsole@@QEAAXXZ 00000001400a824c f   RealConsole.obj
 0001:000a7394       ?GuiWndFocusThread@CRealConsole@@AEAAXPEAUHWND__@@AEAH1AEAK@Z 00000001400a8394 f   RealConsole.obj
 0001:000a7448       ?GuiWndPID@CRealConsole@@QEAAKXZ 00000001400a8448 f   RealConsole.obj
 0001:000a745c       ?InCreateRoot@CRealConsole@@QEAA_NXZ 00000001400a845c f   RealConsole.obj
 0001:000a7478       ?InScroll@CRealConsole@@QEAA_NXZ 00000001400a8478 f   RealConsole.obj
 0001:000a74b0       ?InitAltServer@CRealConsole@@IEAA_NK@Z 00000001400a84b0 f   RealConsole.obj
 0001:000a760c       ?InitNames@CRealConsole@@IEAAXXZ 00000001400a860c f   RealConsole.obj
 0001:000a7734       ?InitiateDetach@CRealConsole@@AEAAKXZ 00000001400a8734 f   RealConsole.obj
 0001:000a7800       ?InternalOpenCreate@?$MFileMapping@$$CBUCEFAR_INFO_MAPPING@@@@IEAAPEBUCEFAR_INFO_MAPPING@@HHH@Z 00000001400a8800 f i RealConsole.obj
 0001:000a79a4       ?InternalOpenCreate@?$MFileMapping@UAnnotationHeader@@@@IEAAPEAUAnnotationHeader@@HHH@Z 00000001400a89a4 f i RealConsole.obj
 0001:000a7b48       ?InternalOpenCreate@?$MFileMapping@UCESERVER_CONSOLE_APP_MAPPING@@@@IEAAPEAUCESERVER_CONSOLE_APP_MAPPING@@HHH@Z 00000001400a8b48 f i RealConsole.obj
 0001:000a7cec       ?InternalOpenCreate@?$MFileMapping@UCESERVER_CONSOLE_MAPPING_HDR@@@@IEAAPEAUCESERVER_CONSOLE_MAPPING_HDR@@HHH@Z 00000001400a8cec f i RealConsole.obj
 0001:000a7e90       ?IsConsoleDataChanged@CRealConsole@@QEAA_NXZ 00000001400a8e90 f   RealConsole.obj
 0001:000a7ec4       ?IsFarHyperlinkAllowed@CRealConsole@@QEAA_N_N@Z 00000001400a8ec4 f   RealConsole.obj
 0001:000a7f94       ?IsFarLua@CRealConsole@@QEAA_NXZ 00000001400a8f94 f   RealConsole.obj
 0001:000a7fd0       ?IsPromptActionAllowed@CRealConsole@@AEAA_N_NPEBUAppSettings@@@Z 00000001400a8fd0 f   RealConsole.obj
 0001:000a8074       ?IsSwitchFarWindowAllowed@CRealConsole@@QEAA_NXZ 00000001400a9074 f   RealConsole.obj
 0001:000a80bc       ?LoadAlternativeConsole@CRealConsole@@AEAA_NW4LoadAltMode@@@Z 00000001400a90bc f   RealConsole.obj
 0001:000a814c       ?LoadDumpConsole@CRealConsole@@QEAA_NPEB_W@Z 00000001400a914c f   RealConsole.obj
 0001:000a81e0       ?LogInput@CRealConsole@@AEAA_NPEAU_INPUT_RECORD@@@Z 00000001400a91e0 f   RealConsole.obj
 0001:000a8588       ?LogInput@CRealConsole@@QEAA_NI_K_JPEB_W@Z 00000001400a9588 f   RealConsole.obj
 0001:000a88a8       ?LogString@CRealConsole@@QEAA_NPEBD@Z 00000001400a98a8 f   RealConsole.obj
 0001:000a8948       ?LogString@CRealConsole@@QEAA_NPEB_W@Z 00000001400a9948 f   RealConsole.obj
 0001:000a89ec       ?MonitorAssertTrap@CRealConsole@@QEAAXXZ 00000001400a99ec f   RealConsole.obj
 0001:000a8a04       ?MonitorThread@CRealConsole@@KAKPEAX@Z 00000001400a9a04 f   RealConsole.obj
 0001:000a8c3c       ?MonitorThreadWorker@CRealConsole@@IEAAK_NAEA_N@Z 00000001400a9c3c f   RealConsole.obj
 0001:000a995c       ?NeedRefreshRootProcessIcon@CRealConsole@@QEAAXXZ 00000001400aa95c f   RealConsole.obj
 0001:000a9968       ?OnActivate@CRealConsole@@QEAAXHH@Z 00000001400aa968 f   RealConsole.obj
 0001:000a9bd0       ?OnBufferHeight@CRealConsole@@QEAAXXZ 00000001400aabd0 f   RealConsole.obj
 0001:000a9bdc       ?OnConsoleDataChanged@CRealConsole@@QEAAXXZ 00000001400aabdc f   RealConsole.obj
 0001:000a9c8c       ?OnConsoleKeyboardLayout@CRealConsole@@QEAAXK@Z 00000001400aac8c f   RealConsole.obj
 0001:000a9cb0       ?OnConsoleLangChange@CRealConsole@@QEAAX_K@Z 00000001400aacb0 f   RealConsole.obj
 0001:000a9d94       ?OnDeactivate@CRealConsole@@QEAAXH@Z 00000001400aad94 f   RealConsole.obj
 0001:000a9e18       ?OnDosAppStartStop@CRealConsole@@QEAAXW4StartStopType@@K@Z 00000001400aae18 f   RealConsole.obj
 0001:000a9eb4       ?OnFocus@CRealConsole@@QEAAX_N@Z 00000001400aaeb4 f   RealConsole.obj
 0001:000a9f40       ?OnGuiFocused@CRealConsole@@QEAAX_N0@Z 00000001400aaf40 f   RealConsole.obj
 0001:000aa020       ?OnKeyboard@CRealConsole@@QEAAXPEAUHWND__@@I_K_JPEB_WPEBUtagMSG@@@Z 00000001400ab020 f   RealConsole.obj
 0001:000aa178       ?OnKeyboardBackCall@CRealConsole@@CA_NPEAVCVirtualConsole@@_J@Z 00000001400ab178 f   RealConsole.obj
 0001:000aa1bc       ?OnKeyboardIme@CRealConsole@@QEAAXPEAUHWND__@@I_K_J@Z 00000001400ab1bc f   RealConsole.obj
 0001:000aa3d4       ?OnKeyboardInt@CRealConsole@@AEAAXPEAUHWND__@@I_K_JPEB_WPEBUtagMSG@@@Z 00000001400ab3d4 f   RealConsole.obj
 0001:000aa71c       ?OnMouse@CRealConsole@@QEAA_NI_KHH_N@Z 00000001400ab71c f   RealConsole.obj
 0001:000aaa9c       ?OnMouseSelection@CRealConsole@@QEAA_NI_KHH@Z 00000001400aba9c f   RealConsole.obj
 0001:000aab1c       ?OnScroll@CRealConsole@@QEAAXI_KHH_N@Z 00000001400abb1c f   RealConsole.obj
 0001:000aac3c       ?OnSelectionChanged@CRealConsole@@QEAAXXZ 00000001400abc3c f   RealConsole.obj
 0001:000aade4       ?OnServerClosing@CRealConsole@@QEAAXKPEAH@Z 00000001400abde4 f   RealConsole.obj
 0001:000aaf2c       ?OnServerStarted@CRealConsole@@AEAAXKPEAXK_N@Z 00000001400abf2c f   RealConsole.obj
 0001:000aafc8       ?OnServerStarted@CRealConsole@@QEAAPEAUHWND__@@QEAU2@KKAEAUCESERVER_REQ_SRVSTARTSTOPRET@@@Z 00000001400abfc8 f   RealConsole.obj
 0001:000ab08c       ?OnStartProcessAllowed@CRealConsole@@QEAAXXZ 00000001400ac08c f   RealConsole.obj
 0001:000ab15c       ?OnTimerCheck@CRealConsole@@QEAAXXZ 00000001400ac15c f   RealConsole.obj
 0001:000ab250       ?OnTitleChanged@CRealConsole@@AEAAXXZ 00000001400ac250 f   RealConsole.obj
 0001:000ab5dc       ?OpenConsoleEventPipe@CRealConsole@@QEAA_NXZ 00000001400ac5dc f   RealConsole.obj
 0001:000ab7c0       ?OpenFarMapData@CRealConsole@@AEAA_NXZ 00000001400ac7c0 f   RealConsole.obj
 0001:000ab9d4       ?OpenMapHeader@CRealConsole@@AEAA_N_N@Z 00000001400ac9d4 f   RealConsole.obj
 0001:000abb4c       ?Owner@CRealConsole@@QEAAPEAVCConEmuMain@@XZ 00000001400acb4c f   RealConsole.obj
 0001:000abb58       ?Paste@CRealConsole@@QEAAXW4CEPasteMode@@PEB_W_NE@Z 00000001400acb58 f   RealConsole.obj
 0001:000ac0e4       ?PasteExplorerPath@CRealConsole@@QEAAX_N0@Z 00000001400ad0e4 f   RealConsole.obj
 0001:000ac194       ?Pause@CRealConsole@@QEAA?AW4CEPauseCmd@@W42@@Z 00000001400ad194 f   RealConsole.obj
 0001:000ac290       ?PortableStarted@CRealConsole@@QEAAXPEAUCESERVER_REQ_PORTABLESTARTED@@@Z 00000001400ad290 f   RealConsole.obj
 0001:000ac3cc       ?PostCommand@CRealConsole@@AEAAXKKPEBX@Z 00000001400ad3cc f   RealConsole.obj
 0001:000ac4dc       ?PostConsoleEvent@CRealConsole@@QEAA_NPEAU_INPUT_RECORD@@_N@Z 00000001400ad4dc f   RealConsole.obj
 0001:000ac72c       ?PostConsoleEventPipe@CRealConsole@@QEAA_NPEAUMSG64@@_K@Z 00000001400ad72c f   RealConsole.obj
 0001:000ac868       ?PostConsoleMessage@CRealConsole@@QEAA_NPEAUHWND__@@I_K_J@Z 00000001400ad868 f   RealConsole.obj
 0001:000ac9c4       ?PostCtrlBreakEvent@CRealConsole@@QEAA_NKK@Z 00000001400ad9c4 f   RealConsole.obj
 0001:000aca94       ?PostDragCopy@CRealConsole@@QEAAX_N@Z 00000001400ada94 f   RealConsole.obj
 0001:000acbbc       ?PostKeyPress@CRealConsole@@QEAA_NGK_WH@Z 00000001400adbbc f   RealConsole.obj
 0001:000accb8       ?PostKeyUp@CRealConsole@@QEAA_NGK_WH@Z 00000001400adcb8 f   RealConsole.obj
 0001:000acd88       ?PostLeftClickSync@CRealConsole@@QEAA_NU_COORD@@@Z 00000001400add88 f   RealConsole.obj
 0001:000acedc       ?PostMacro@CRealConsole@@QEAAXPEB_W_N@Z 00000001400adedc f   RealConsole.obj
 0001:000ad43c       ?PostMacroThread@CRealConsole@@CAKPEAX@Z 00000001400ae43c f   RealConsole.obj
 0001:000ad56c       ?PostMouseEvent@CRealConsole@@AEAAXI_KU_COORD@@_N@Z 00000001400ae56c f   RealConsole.obj
 0001:000adb40       ?PostPromptCmd@CRealConsole@@QEAA_N_NPEB_W@Z 00000001400aeb40 f   RealConsole.obj
 0001:000adf34       ?PostString@CRealConsole@@IEAA_NPEA_W_K_N@Z 00000001400aef34 f   RealConsole.obj
 0001:000ae3c8       ?PostponeMacro@CRealConsole@@QEAAPEA_W$$QEAPEA_W@Z 00000001400af3c8 f   RealConsole.obj
 0001:000ae424       ?PreCreate@CRealConsole@@AEAA_NPEAURConStartArgsEx@@@Z 00000001400af424 f   RealConsole.obj
 0001:000ae6e4       ?PrepareConsoleRegistryKey@CRealConsole@@AEAAPEAUHKEY__@@PEB_W@Z 00000001400af6e4 f   RealConsole.obj
 0001:000aea70       ?PrepareDefaultColors@CRealConsole@@AEAAXAEAE000_NPEAUHKEY__@@@Z 00000001400afa70 f   RealConsole.obj
 0001:000aedb8       ?PrepareDefaultColors@CRealConsole@@QEAAXXZ 00000001400afdb8 f   RealConsole.obj
 0001:000aede8       ?PrepareNewConArgs@CRealConsole@@AEAAXXZ 00000001400afde8 f   RealConsole.obj
 0001:000aee1c       ?PrepareOutputFile@CRealConsole@@AEAA_N_NPEA_W@Z 00000001400afe1c f   RealConsole.obj
 0001:000af528       ?PrepareOutputFileCreate@CRealConsole@@AEAAPEAXPEA_W@Z 00000001400b0528 f   RealConsole.obj
 0001:000af5e4       ?ProcessCheckName@CRealConsole@@AEAAXAEAUConProcess@@PEA_W@Z 00000001400b05e4 f   RealConsole.obj
 0001:000af7ac       ?ProcessKeyboard@CRealConsole@@QEAAXI_K_JPEB_W@Z 00000001400b07ac f   RealConsole.obj
 0001:000af91c       ?ProcessPostponedMacro@CRealConsole@@AEAAXXZ 00000001400b091c f   RealConsole.obj
 0001:000af990       ?ProcessSelectionHotKey@CRealConsole@@QEAAPEBUConEmuHotKey@@AEBUConEmuChord@@_NPEB_W@Z 00000001400b0990 f   RealConsole.obj
 0001:000af9f4       ?ProcessUpdate@CRealConsole@@AEAA_NPEBKI@Z 00000001400b09f4 f   RealConsole.obj
 0001:000b0294       ?ProcessUpdateFlags@CRealConsole@@AEAA_N_N@Z 00000001400b1294 f   RealConsole.obj
 0001:000b0778       ?ProcessXtermSubst@CRealConsole@@QEAA_NAEBU_INPUT_RECORD@@@Z 00000001400b1778 f   RealConsole.obj
 0001:000b08fc       ?QueryCellInfo@CRealConsole@@QEAAXPEA_WH@Z 00000001400b18fc f   RealConsole.obj
 0001:000b092c       ?QueryPromptStart@CRealConsole@@QEAA_NPEAU_COORD@@@Z 00000001400b192c f   RealConsole.obj
 0001:000b0978       ?QueryRConModes@CRealConsole@@QEAAXPEA_WH_N@Z 00000001400b1978 f   RealConsole.obj
 0001:000b0a4c       ?QueryStartStopRet@CRealConsole@@QEAAXAEAUCESERVER_REQ_SRVSTARTSTOPRET@@@Z 00000001400b1a4c f   RealConsole.obj
 0001:000b0c00       ?QueryTermModes@CRealConsole@@QEAAXPEA_WH_N@Z 00000001400b1c00 f   RealConsole.obj
 0001:000b0e74       ?RecreateProcess@CRealConsole@@QEAA_NPEAURConStartArgsEx@@@Z 00000001400b1e74 f   RealConsole.obj
 0001:000b1234       ?RecreateProcessStart@CRealConsole@@AEAA_NXZ 00000001400b2234 f   RealConsole.obj
 0001:000b1350       ?RefreshAfterRestore@CRealConsole@@SA_NPEAVCVirtualConsole@@_J@Z 00000001400b2350 f   RealConsole.obj
 0001:000b1418       ?RefreshFarPID@_TabsInfo@CRealConsole@@QEAA_NK@Z 00000001400b2418 f   RealConsole.obj
 0001:000b14e0       ?ReleaseBuffer@?$MPipe@UCESERVER_REQ_HDR@@U1@@@UEAAXXZ 00000001400b24e0 f i RealConsole.obj
 0001:000b1524       ?ReloadFarWorkDir@CRealConsole@@IEAA_NXZ 00000001400b2524 f   RealConsole.obj
 0001:000b15dc       ?RenameTab@CRealConsole@@QEAAXPEB_W@Z 00000001400b25dc f   RealConsole.obj
 0001:000b16bc       ?RenameWindow@CRealConsole@@QEAAXPEB_W@Z 00000001400b26bc f   RealConsole.obj
 0001:000b17b0       ?ReopenServerPipes@CRealConsole@@IEAA_NXZ 00000001400b27b0 f   RealConsole.obj
 0001:000b1a8c       ?RepositionDialogWithTab@CRealConsole@@IEAAXPEAUHWND__@@@Z 00000001400b2a8c f   RealConsole.obj
 0001:000b1b80       ?RequestStartup@CRealConsole@@AEAAX_N@Z 00000001400b2b80 f   RealConsole.obj
 0001:000b1bcc       ?ResetActiveAppSettingsId@CRealConsole@@QEAAXXZ 00000001400b2bcc f   RealConsole.obj
 0001:000b1bd4       ?ResetTopLeft@CRealConsole@@QEAAXXZ 00000001400b2bd4 f   RealConsole.obj
 0001:000b1bf4       ?ResetVarsOnStart@CRealConsole@@AEAAXXZ 00000001400b2bf4 f   RealConsole.obj
 0001:000b1d7c       ?ScreenToBuffer@CRealConsole@@QEAA?AU_COORD@@U2@@Z 00000001400b2d7c f   RealConsole.obj
 0001:000b1da4       ?Set@?$MMap@KH$0A@@@QEAA_NAEBKAEBH@Z 00000001400b2da4 f i RealConsole.obj
 0001:000b1eec       ?SetActiveBuffer@CRealConsole@@AEAA_NPEAVCRealBuffer@@_N@Z 00000001400b2eec f   RealConsole.obj
 0001:000b1fa8       ?SetActiveBuffer@CRealConsole@@QEAA_NW4RealBufferType@@@Z 00000001400b2fa8 f   RealConsole.obj
 0001:000b1ffc       ?SetActivePID@CRealConsole@@AEAAXPEBUConProcess@@@Z 00000001400b2ffc f   RealConsole.obj
 0001:000b214c       ?SetAltSrvPID@CRealConsole@@IEAAXK@Z 00000001400b314c f   RealConsole.obj
 0001:000b21d0       ?SetAppDistinctPID@CRealConsole@@AEAAXPEBUConProcess@@@Z 00000001400b31d0 f   RealConsole.obj
 0001:000b237c       ?SetConStatus@CRealConsole@@QEAAXPEB_WK@Z 00000001400b337c f   RealConsole.obj
 0001:000b2558       ?SetConsoleSize@CRealConsole@@QEAA_NFFGK@Z 00000001400b3558 f   RealConsole.obj
 0001:000b2584       ?SetCursorShape@CRealConsole@@QEAAXW4TermCursorShapes@@@Z 00000001400b3584 f   RealConsole.obj
 0001:000b25b4       ?SetFarPID@CRealConsole@@QEAAXK@Z 00000001400b35b4 f   RealConsole.obj
 0001:000b26ac       ?SetFarPluginPID@CRealConsole@@QEAAXK@Z 00000001400b36ac f   RealConsole.obj
 0001:000b2784       ?SetFullScreen@CRealConsole@@QEAA_NXZ 00000001400b3784 f   RealConsole.obj
 0001:000b2828       ?SetGuiMode@CRealConsole@@QEAAXKPEAUHWND__@@KKPEB_WKHUtagRECT@@@Z 00000001400b3828 f   RealConsole.obj
 0001:000b2dc8       ?SetHwnd@CRealConsole@@AEAAXPEAUHWND__@@_N@Z 00000001400b3dc8 f   RealConsole.obj
 0001:000b2f24       ?SetInitEnvCommands@CRealConsole@@QEAAXAEAUCESERVER_REQ_SRVSTARTSTOPRET@@@Z 00000001400b3f24 f   RealConsole.obj
 0001:000b3148       ?SetMainSrvPID@CRealConsole@@IEAAXKPEAX@Z 00000001400b4148 f   RealConsole.obj
 0001:000b3258       ?SetMonitorThreadEvent@CRealConsole@@IEAAXXZ 00000001400b4258 f   RealConsole.obj
 0001:000b3274       ?SetMountRoot@CRealConsole@@IEAAXPEAUCESERVER_REQ@@@Z 00000001400b4274 f   RealConsole.obj
 0001:000b3318       ?SetOtherWindowParent@CRealConsole@@QEAAPEAUHWND__@@PEAU2@0@Z 00000001400b4318 f   RealConsole.obj
 0001:000b3440       ?SetOtherWindowPos@CRealConsole@@QEAA_NPEAUHWND__@@0HHHHI@Z 00000001400b4440 f   RealConsole.obj
 0001:000b368c       ?SetOtherWindowRgn@CRealConsole@@QEAA_NPEAUHWND__@@HPEAUtagRECT@@_N@Z 00000001400b468c f   RealConsole.obj
 0001:000b37c0       ?SetPaletteName@CRealConsole@@QEAAXPEB_W@Z 00000001400b47c0 f   RealConsole.obj
 0001:000b3824       ?SetProgress@CRealConsole@@QEAA_NFFPEB_W@Z 00000001400b4824 f   RealConsole.obj
 0001:000b390c       ?SetRootProcessName@CRealConsole@@IEAAXPEB_W@Z 00000001400b490c f   RealConsole.obj
 0001:000b39f0       ?SetSwitchActiveServer@CRealConsole@@IEAAX_NW4SwitchActiveServerEvt@1@1@Z 00000001400b49f0 f   RealConsole.obj
 0001:000b3aa0       ?SetTabs@CRealConsole@@QEAAXPEAUConEmuTab@@HK@Z 00000001400b4aa0 f   RealConsole.obj
 0001:000b3efc       ?SetTerminalPID@CRealConsole@@IEAAXK@Z 00000001400b4efc f   RealConsole.obj
 0001:000b3f58       ?ShowConsole@CRealConsole@@QEAAXH@Z 00000001400b4f58 f   RealConsole.obj
 0001:000b4094       ?ShowConsoleOrGuiClient@CRealConsole@@QEAAXH@Z 00000001400b5094 f   RealConsole.obj
 0001:000b40dc       ?ShowGuiClientExt@CRealConsole@@QEAAXH_N@Z 00000001400b50dc f   RealConsole.obj
 0001:000b4274       ?ShowGuiClientInt@CRealConsole@@QEAAX_N@Z 00000001400b5274 f   RealConsole.obj
 0001:000b4320       ?ShowKeyBarHint@CRealConsole@@QEAAXG@Z 00000001400b5320 f   RealConsole.obj
 0001:000b4340       ?ShowOtherWindow@CRealConsole@@QEAA_NPEAUHWND__@@H_N@Z 00000001400b5340 f   RealConsole.obj
 0001:000b446c       ?ShowPropertiesDialog@CRealConsole@@QEAAXXZ 00000001400b546c f   RealConsole.obj
 0001:000b4548       ?StartDebugger@CRealConsole@@QEAA_NW4StartDebugType@@@Z 00000001400b5548 f   RealConsole.obj
 0001:000b49b0       ?StartMonitorThread@CRealConsole@@IEAA_NXZ 00000001400b59b0 f   RealConsole.obj
 0001:000b4abc       ?StartProcess@CRealConsole@@IEAA_NXZ 00000001400b5abc f   RealConsole.obj
 0001:000b5518       ?StartProcessInt@CRealConsole@@AEAA_NAEAPEB_WAEAPEA_W0_NPEAUHWND__@@AEAK44EEEEAEAU_STARTUPINFOW@@AEAU_PROCESS_INFORMATION@@4@Z 00000001400b6518 f   RealConsole.obj
 0001:000b5d1c       ?StartSelection@CRealConsole@@QEAAX_NFF0K@Z 00000001400b6d1c f   RealConsole.obj
 0001:000b5d4c       ?StartStopAppCursorKeys@CRealConsole@@QEAAXK_N@Z 00000001400b6d4c f   RealConsole.obj
 0001:000b5e78       ?StartStopBracketedPaste@CRealConsole@@QEAAXK_N@Z 00000001400b6e78 f   RealConsole.obj
 0001:000b5f64       ?StartStopTermMode@CRealConsole@@QEAA_NW4TermModeCommand@@W4ChangeTermAction@@@Z 00000001400b6f64 f   RealConsole.obj
 0001:000b6048       ?StartStopXMouse@CRealConsole@@QEAAXKW4TermMouseMode@@@Z 00000001400b7048 f   RealConsole.obj
 0001:000b6120       ?StartStopXTerm@CRealConsole@@QEAAXK_N@Z 00000001400b7120 f   RealConsole.obj
 0001:000b6234       ?StopSignal@CRealConsole@@QEAAXXZ 00000001400b7234 f   RealConsole.obj
 0001:000b6328       ?StopThread@CRealConsole@@QEAAX_N@Z 00000001400b7328 f   RealConsole.obj
 0001:000b6568       ?StoreActiveTab@_TabsInfo@CRealConsole@@QEAAXHAEAVCTab@@@Z 00000001400b7568 f   RealConsole.obj
 0001:000b65ac       ?StoreCurWorkDir@CRealConsole@@IEAAXPEAUCESERVER_REQ_STORECURDIR@@@Z 00000001400b75ac f   RealConsole.obj
 0001:000b678c       ?StoreGuiChildRect@CRealConsole@@QEAAXPEAUtagRECT@@@Z 00000001400b778c f   RealConsole.obj
 0001:000b67ec       ?SwitchKeyboardLayout@CRealConsole@@QEAAX_K0@Z 00000001400b77ec f   RealConsole.obj
 0001:000b694c       ?SyncConsole2Window@CRealConsole@@QEAAX_NPEAUtagRECT@@@Z 00000001400b794c f   RealConsole.obj
 0001:000b6a78       ?SyncGui2Window@CRealConsole@@QEAAXUtagRECT@@@Z 00000001400b7a78 f   RealConsole.obj
 0001:000b6bec       ?TerminateActiveProcess@CRealConsole@@QEAA_N_NK@Z 00000001400b7bec f   RealConsole.obj
 0001:000b6d74       ?TerminateActiveProcessConfirm@CRealConsole@@QEAA_NK@Z 00000001400b7d74 f   RealConsole.obj
 0001:000b6e7c       ?TerminateAllButShell@CRealConsole@@QEAA_N_N@Z 00000001400b7e7c f   RealConsole.obj
 0001:000b715c       ?TextHeight@CRealConsole@@QEAAIXZ 00000001400b815c f   RealConsole.obj
 0001:000b7174       ?TextWidth@CRealConsole@@QEAAIXZ 00000001400b8174 f   RealConsole.obj
 0001:000b718c       ?Unfasten@CRealConsole@@QEAAXXZ 00000001400b818c f   RealConsole.obj
 0001:000b73b0       ?UpdateCursorInfo@CRealConsole@@QEAAXXZ 00000001400b83b0 f   RealConsole.obj
 0001:000b7428       ?UpdateFarSettings@CRealConsole@@QEAAXKPEAUFAR_REQ_FARSETCHANGED@@@Z 00000001400b8428 f   RealConsole.obj
 0001:000b7580       ?UpdateGuiInfoMapping@CRealConsole@@QEAAXPEBUConEmuGuiMapping@@@Z 00000001400b8580 f   RealConsole.obj
 0001:000b7658       ?UpdateRootInfo@CRealConsole@@IEAAXAEBUCESERVER_ROOT_INFO@@@Z 00000001400b8658 f   RealConsole.obj
 0001:000b779c       ?UpdateScrollInfo@CRealConsole@@QEAAXXZ 00000001400b879c f   RealConsole.obj
 0001:000b78e8       ?UpdateServerActive@CRealConsole@@QEAAX_N@Z 00000001400b88e8 f   RealConsole.obj
 0001:000b7a90       ?UpdateStartArgs@CRealConsole@@QEAAXW4SplitType@RConStartArgs@@II_N@Z 00000001400b8a90 f   RealConsole.obj
 0001:000b7ad0       ?UpdateStartState@CRealConsole@@IEAAXW4RConStartState@@_N@Z 00000001400b8ad0 f   RealConsole.obj
 0001:000b7b24       ?UpdateTextColorSettings@CRealConsole@@QEAAX_N0PEBUAppSettings@@@Z 00000001400b8b24 f   RealConsole.obj
 0001:000b7d44       ?VCon@CRealConsole@@QEAAPEAVCVirtualConsole@@XZ 00000001400b8d44 f   RealConsole.obj
 0001:000b7d50       ?Write@CRealConsole@@QEAA_NPEB_WHPEAK@Z 00000001400b8d50 f   RealConsole.obj
 0001:000b7e70       ?erase@?$MArray@UConProcess@@@@QEAAX_J0@Z 00000001400b8e70 f i RealConsole.obj
 0001:000b7f08       ?isActive@CRealConsole@@QEAA_N_N@Z 00000001400b8f08 f   RealConsole.obj
 0001:000b7f1c       ?isAdministrator@CRealConsole@@QEAA_NXZ 00000001400b8f1c f   RealConsole.obj
 0001:000b7f5c       ?isAlive@CRealConsole@@QEAA_NXZ 00000001400b8f5c f   RealConsole.obj
 0001:000b7fa8       ?isAlternative@CRealConsole@@QEAA_NXZ 00000001400b8fa8 f   RealConsole.obj
 0001:000b7fd0       ?isBufferHeight@CRealConsole@@QEAA_NXZ 00000001400b8fd0 f   RealConsole.obj
 0001:000b800c       ?isCloseTabConfirmed@CRealConsole@@QEAA_NIPEB_W_N@Z 00000001400b900c f   RealConsole.obj
 0001:000b817c       ?isConSelectMode@CRealConsole@@QEAA_NXZ 00000001400b917c f   RealConsole.obj
 0001:000b8194       ?isConsoleClosing@CRealConsole@@QEAA_NXZ 00000001400b9194 f   RealConsole.obj
 0001:000b8260       ?isConsoleReady@CRealConsole@@QEAA_NXZ 00000001400b9260 f   RealConsole.obj
 0001:000b8280       ?isDetached@CRealConsole@@QEAA_NXZ 00000001400b9280 f   RealConsole.obj
 0001:000b82a8       ?isEditor@CRealConsole@@QEAA_NXZ 00000001400b92a8 f   RealConsole.obj
 0001:000b82c4       ?isFar@CRealConsole@@QEAA_N_N@Z 00000001400b92c4 f   RealConsole.obj
 0001:000b82e0       ?isFarBufferSupported@CRealConsole@@QEAA_NXZ 00000001400b92e0 f   RealConsole.obj
 0001:000b8324       ?isFarInStack@CRealConsole@@QEAA_NXZ 00000001400b9324 f   RealConsole.obj
 0001:000b835c       ?isFarKeyBarShown@CRealConsole@@QEAA_NXZ 00000001400b935c f   RealConsole.obj
 0001:000b83d0       ?isFarPanelAllowed@CRealConsole@@QEAA_NXZ 00000001400b93d0 f   RealConsole.obj
 0001:000b8524       ?isFilePanel@CRealConsole@@QEAA_N_N00@Z 00000001400b9524 f   RealConsole.obj
 0001:000b86b4       ?isFixAndCenter@CRealConsole@@QEAA_NPEAU_COORD@@@Z 00000001400b96b4 f   RealConsole.obj
 0001:000b86ec       ?isGuiEagerFocus@CRealConsole@@QEAA_NXZ 00000001400b96ec f   RealConsole.obj
 0001:000b8710       ?isGuiForceConView@CRealConsole@@QEAA_NXZ 00000001400b9710 f   RealConsole.obj
 0001:000b8728       ?isGuiOverCon@CRealConsole@@QEAA_NXZ 00000001400b9728 f   RealConsole.obj
 0001:000b8744       ?isGuiVisible@CRealConsole@@QEAA_NXZ 00000001400b9744 f   RealConsole.obj
 0001:000b8790       ?isHighlighted@CRealConsole@@QEAA_NXZ 00000001400b9790 f   RealConsole.obj
 0001:000b87e4       ?isInFocus@CRealConsole@@QEAA_NXZ 00000001400b97e4 f   RealConsole.obj
 0001:000b8828       ?isInternalScroll@CRealConsole@@QEAA_NXZ 00000001400b9828 f   RealConsole.obj
 0001:000b8880       ?isLogging@CRealConsole@@QEAAII@Z 00000001400b9880 f   RealConsole.obj
 0001:000b88ac       ?isMouseButtonDown@CRealConsole@@QEAA_NXZ 00000001400b98ac f   RealConsole.obj
 0001:000b88bc       ?isMouseSelectionPresent@CRealConsole@@QEAA_NXZ 00000001400b98bc f   RealConsole.obj
 0001:000b88d0       ?isNeedCursorDraw@CRealConsole@@QEAA_NXZ 00000001400b98d0 f   RealConsole.obj
 0001:000b8918       ?isNtvdm@CRealConsole@@QEAA_NXZ 00000001400b9918 f   RealConsole.obj
 0001:000b8924       ?isPictureView@CRealConsole@@QEAAPEAUHWND__@@_N@Z 00000001400b9924 f   RealConsole.obj
 0001:000b8c28       ?isPosixConvertAllowed@CRealConsole@@QEAA_NXZ 00000001400b9c28 f   RealConsole.obj
 0001:000b8c60       ?isSelectionPresent@CRealConsole@@QEAA_NXZ 00000001400b9c60 f   RealConsole.obj
 0001:000b8c74       ?isSendMouseAllowed@CRealConsole@@QEAA_NXZ 00000001400b9c74 f   RealConsole.obj
 0001:000b8ca0       ?isServerAlive@CRealConsole@@QEAA_NXZ 00000001400b9ca0 f   RealConsole.obj
 0001:000b8cd4       ?isServerAvailable@CRealConsole@@QEAA_NXZ 00000001400b9cd4 f   RealConsole.obj
 0001:000b8cfc       ?isServerClosing@CRealConsole@@QEAA_N_N@Z 00000001400b9cfc f   RealConsole.obj
 0001:000b8d28       ?isServerCreated@CRealConsole@@QEAA_N_N@Z 00000001400b9d28 f   RealConsole.obj
 0001:000b8d44       ?isUnixFS@CRealConsole@@QEAA_NXZ 00000001400b9d44 f   RealConsole.obj
 0001:000b8d7c       ?isViewer@CRealConsole@@QEAA_NXZ 00000001400b9d7c f   RealConsole.obj
 0001:000b8d98       ?isVisible@CRealConsole@@QEAA_NXZ 00000001400b9d98 f   RealConsole.obj
 0001:000b8dac       ?logProgress@CRealConsole@@IEAAXPEB_WHH@Z 00000001400b9dac f   RealConsole.obj
 0001:000b8e28       ?priorityProc@CRealConsole@@KA_JPEAUHWND__@@I_K_J@Z 00000001400b9e28 f   RealConsole.obj
 0001:000b91c8       ?renameProc@CRealConsole@@CA_JPEAUHWND__@@I_K_J@Z 00000001400ba1c8 f   RealConsole.obj
 0001:000b9440       ?setAppProgress@CRealConsole@@IEAAXFF@Z 00000001400ba440 f   RealConsole.obj
 0001:000b949c       ?setConsoleProgress@CRealConsole@@IEAAXF@Z 00000001400ba49c f   RealConsole.obj
 0001:000b94dc       ?setGuiWnd@CRealConsole@@AEAAXPEAUHWND__@@@Z 00000001400ba4dc f   RealConsole.obj
 0001:000b94ec       ?setGuiWndPID@CRealConsole@@AEAAXPEAUHWND__@@KHPEB_W@Z 00000001400ba4ec f   RealConsole.obj
 0001:000b9608       ?setLastConsoleProgress@CRealConsole@@IEAAXF_N@Z 00000001400ba608 f   RealConsole.obj
 0001:000b966c       ?setLastShownProgress@CRealConsole@@IEAAXF@Z 00000001400ba66c f   RealConsole.obj
 0001:000b96ac       ?setPreWarningProgress@CRealConsole@@IEAAXF@Z 00000001400ba6ac f   RealConsole.obj
 0001:000b96ec       ?setProgress@CRealConsole@@IEAAXF@Z 00000001400ba6ec f   RealConsole.obj
 0001:000b9754       sprintf_s                  00000001400ba754 f i RealConsole.obj
 0001:000b97a8       ??0CRealServer@@QEAA@XZ    00000001400ba7a8 f   RealServer.obj
 0001:000b97bc       ??1CRealServer@@QEAA@XZ    00000001400ba7bc f   RealServer.obj
 0001:000b97d0       ?Init@CRealServer@@QEAAXPEAVCRealConsole@@@Z 00000001400ba7d0 f   RealServer.obj
 0001:000b9818       ?ServerCommand@CRealServer@@KAHPEAXPEAUCESERVER_REQ@@AEAPEAU2@AEAK3_J@Z 00000001400ba818 f   RealServer.obj
 0001:000b9cd0       ?ServerThreadReady@CRealServer@@KAHPEAX_J@Z 00000001400bacd0 f   RealServer.obj
 0001:000b9d14       ?Start@CRealServer@@QEAA_NXZ 00000001400bad14 f   RealServer.obj
 0001:000b9e28       ?Stop@CRealServer@@QEAAX_N@Z 00000001400bae28 f   RealServer.obj
 0001:000b9ea4       ?cmdActivateCon@CRealServer@@IEAAPEAUCESERVER_REQ@@PEAXPEAU2@I@Z 00000001400baea4 f   RealServer.obj
 0001:000b9ef4       ?cmdActivateTab@CRealServer@@IEAAPEAUCESERVER_REQ@@PEAXPEAU2@I@Z 00000001400baef4 f   RealServer.obj
 0001:000b9fd4       ?cmdExportEnvVarAll@CRealServer@@IEAAPEAUCESERVER_REQ@@PEAXPEAU2@I@Z 00000001400bafd4 f   RealServer.obj
 0001:000ba030       ?cmdFlashWindow@CRealServer@@IEAAPEAUCESERVER_REQ@@PEAXPEAU2@I@Z 00000001400bb030 f   RealServer.obj
 0001:000ba0a4       ?cmdGetAllPanels@CRealServer@@IEAAPEAUCESERVER_REQ@@PEAXPEAU2@I@Z 00000001400bb0a4 f   RealServer.obj
 0001:000ba148       ?cmdGetAllTabs@CRealServer@@IEAAPEAUCESERVER_REQ@@PEAXPEAU2@I@Z 00000001400bb148 f   RealServer.obj
 0001:000ba1dc       ?cmdGetOutputFile@CRealServer@@IEAAPEAUCESERVER_REQ@@PEAXPEAU2@I@Z 00000001400bb1dc f   RealServer.obj
 0001:000ba258       ?cmdGetTaskCmd@CRealServer@@IEAAPEAUCESERVER_REQ@@PEAXPEAU2@I@Z 00000001400bb258 f   RealServer.obj
 0001:000ba404       ?cmdGuiMacro@CRealServer@@IEAAPEAUCESERVER_REQ@@PEAXPEAU2@I@Z 00000001400bb404 f   RealServer.obj
 0001:000ba4b0       ?cmdIsAnsiExecAllowed@CRealServer@@IEAAPEAUCESERVER_REQ@@PEAXPEAU2@I@Z 00000001400bb4b0 f   RealServer.obj
 0001:000ba5d0       ?cmdLockDc@CRealServer@@IEAAPEAUCESERVER_REQ@@PEAXPEAU2@I@Z 00000001400bb5d0 f   RealServer.obj
 0001:000ba608       ?cmdOnCreateProc@CRealServer@@IEAAPEAUCESERVER_REQ@@PEAXPEAU2@I@Z 00000001400bb608 f   RealServer.obj
 0001:000ba674       ?cmdOnPeekReadInput@CRealServer@@IEAAPEAUCESERVER_REQ@@PEAXPEAU2@I@Z 00000001400bb674 f   RealServer.obj
 0001:000ba704       ?cmdOnSetConsoleKeyShortcuts@CRealServer@@IEAAPEAUCESERVER_REQ@@PEAXPEAU2@I@Z 00000001400bb704 f   RealServer.obj
 0001:000ba740       ?cmdQueryPalette@CRealServer@@IEAAPEAUCESERVER_REQ@@PEAXPEAU2@I@Z 00000001400bb740 f   RealServer.obj
 0001:000ba824       ?cmdRegPanelView@CRealServer@@IEAAPEAUCESERVER_REQ@@PEAXPEAU2@I@Z 00000001400bb824 f   RealServer.obj
 0001:000ba89c       ?cmdRenameTab@CRealServer@@IEAAPEAUCESERVER_REQ@@PEAXPEAU2@I@Z 00000001400bb89c f   RealServer.obj
 0001:000ba8e4       ?cmdResources@CRealServer@@IEAAPEAUCESERVER_REQ@@PEAXPEAU2@I@Z 00000001400bb8e4 f   RealServer.obj
 0001:000baaac       ?cmdSetBackground@CRealServer@@IEAAPEAUCESERVER_REQ@@PEAXPEAU2@I@Z 00000001400bbaac f   RealServer.obj
 0001:000bab1c       ?cmdSetForeground@CRealServer@@IEAAPEAUCESERVER_REQ@@PEAXPEAU2@I@Z 00000001400bbb1c f   RealServer.obj
 0001:000baba4       ?cmdSetProgress@CRealServer@@IEAAPEAUCESERVER_REQ@@PEAXPEAU2@I@Z 00000001400bbba4 f   RealServer.obj
 0001:000babf8       ?cmdStartStop@CRealServer@@IEAAPEAUCESERVER_REQ@@PEAXPEAU2@I@Z 00000001400bbbf8 f   RealServer.obj
 0001:000bb588       ?cmdStartXTerm@CRealServer@@IEAAPEAUCESERVER_REQ@@PEAXPEAU2@I@Z 00000001400bc588 f   RealServer.obj
 0001:000bb6b0       ?cmdTabsChanged@CRealServer@@IEAAPEAUCESERVER_REQ@@PEAXPEAU2@I@Z 00000001400bc6b0 f   RealServer.obj
 0001:000bb850       ??0CRecreateDlg@@QEAA@XZ   00000001400bc850 f   Recreate.obj
 0001:000bb8b0       ??1CRecreateDlg@@QEAA@XZ   00000001400bc8b0 f   Recreate.obj
 0001:000bb8d8       ?AddCommandList@CRecreateDlg@@IEAAXPEB_W_J@Z 00000001400bc8d8 f   Recreate.obj
 0001:000bb970       ?AddDirectoryList@CRecreateDlg@@IEAAXPEB_W_J@Z 00000001400bc970 f   Recreate.obj
 0001:000bb9f0       ?BrowseCallbackProc@CRecreateDlg@@SAHPEAUHWND__@@I_J1@Z 00000001400bc9f0 f   Recreate.obj
 0001:000bba20       ?Close@CRecreateDlg@@QEAAXXZ 00000001400bca20 f   Recreate.obj
 0001:000bba60       ?FreeVars@CRecreateDlg@@IEAAXXZ 00000001400bca60 f   Recreate.obj
 0001:000bbacc       ?InitVars@CRecreateDlg@@IEAAXXZ 00000001400bcacc f   Recreate.obj
 0001:000bbd14       ?OnButtonClicked@CRecreateDlg@@IEAA_JPEAUHWND__@@I_K_J@Z 00000001400bcd14 f   Recreate.obj
 0001:000bc33c       ?OnComboSetFocus@CRecreateDlg@@IEAA_JPEAUHWND__@@I_K_J@Z 00000001400bd33c f   Recreate.obj
 0001:000bc378       ?OnCtlColorStatic@CRecreateDlg@@IEAA_JPEAUHWND__@@I_K_J@Z 00000001400bd378 f   Recreate.obj
 0001:000bc3d8       ?OnEditSetFocus@CRecreateDlg@@IEAA_JPEAUHWND__@@I_K_J@Z 00000001400bd3d8 f   Recreate.obj
 0001:000bc424       ?OnFillCmdList@CRecreateDlg@@IEAA_JPEAUHWND__@@I_K_J@Z 00000001400bd424 f   Recreate.obj
 0001:000bc500       ?OnInitDialog@CRecreateDlg@@IEAA_JPEAUHWND__@@I_K_J@Z 00000001400bd500 f   Recreate.obj
 0001:000bd25c       ?OnSysCommand@CRecreateDlg@@IEAA_JPEAUHWND__@@I_K_J@Z 00000001400be25c f   Recreate.obj
 0001:000bd3a4       ?OnUserControls@CRecreateDlg@@IEAA_JPEAUHWND__@@I_K_J@Z 00000001400be3a4 f   Recreate.obj
 0001:000bd724       ?RecreateDlg@CRecreateDlg@@QEAAHPEAURConStartArgsEx@@_N@Z 00000001400be724 f   Recreate.obj
 0001:000bd844       ?RecreateDlgProc@CRecreateDlg@@SA_JPEAUHWND__@@I_K_J@Z 00000001400be844 f   Recreate.obj
 0001:000bda84       ??0CRunQueue@@QEAA@XZ      00000001400bea84 f   RunQueue.obj
 0001:000bdb30       ??1CRunQueue@@QEAA@XZ      00000001400beb30 f   RunQueue.obj
 0001:000bdbc4       ?AdvanceQueue@CRunQueue@@QEAAXXZ 00000001400bebc4 f   RunQueue.obj
 0001:000bdc18       ?ProcessRunQueue@CRunQueue@@AEAAXXZ 00000001400bec18 f   RunQueue.obj
 0001:000bddb8       ?RequestRConStartup@CRunQueue@@QEAAXPEAVCRealConsole@@@Z 00000001400bedb8 f   RunQueue.obj
 0001:000bde64       ?RunQueueThread@CRunQueue@@AEAAKXZ 00000001400bee64 f   RunQueue.obj
 0001:000bdee4       ?RunQueueThreadHelper@CRunQueue@@CAKPEAX@Z 00000001400beee4 f   RunQueue.obj
 0001:000bdef4       ?StartQueue@CRunQueue@@QEAAXXZ 00000001400beef4 f   RunQueue.obj
 0001:000bdf34       ?Terminate@CRunQueue@@QEAAXXZ 00000001400bef34 f   RunQueue.obj
 0001:000bdf98       ??$swprintf_c@$0BAF@@@YAHAEAY0BAF@_WPEB_WZZ 00000001400bef98 f i ScreenDump.obj
 0001:000bdfc4       ?DumpImage@@YAHPEAUHDC__@@PEAUHBITMAP__@@HHHHPEB_W_N@Z 00000001400befc4 f   ScreenDump.obj
 0001:000be2b4       ?DumpImage@@YAHPEAUHDC__@@PEAUHBITMAP__@@HHPEB_W@Z 00000001400bf2b4 f   ScreenDump.obj
 0001:000be2e4       ?LoadScreen@@YAHPEAUHDC__@@HHHHPEAPEAEPEAK_N@Z 00000001400bf2e4 f   ScreenDump.obj
 0001:000bf238       ?EditIconHint_Process@@YA_NPEAUHWND__@@I_K_JAEA_J@Z 00000001400c0238 f   SearchCtrl.obj
 0001:000bf4a4       ?EditIconHint_ResChanged@@YAXPEAUHWND__@@@Z 00000001400c04a4 f   SearchCtrl.obj
 0001:000bf530       ?EditIconHint_Set@@YAXPEAUHWND__@@0_NPEB_W1IG@Z 00000001400c0530 f   SearchCtrl.obj
 0001:000bf75c       ?EditIconHint_SetTimer@@YAXPEAUHWND__@@@Z 00000001400c075c f   SearchCtrl.obj
 0001:000bf774       ?EditIconHint_Subclass@@YAXPEAUHWND__@@0@Z 00000001400c0774 f   SearchCtrl.obj
 0001:000bf78c       ?Get@?$MMap@PEAUHWND__@@UCEIconHintInfo@@$0A@@@QEAA_NAEBQEAUHWND__@@PEAUCEIconHintInfo@@_N@Z 00000001400c078c f i SearchCtrl.obj
 0001:000bf898       ?Get@?$MMap@PEAUHWND__@@UCEIconHintOthers@@$0A@@@QEAA_NAEBQEAUHWND__@@PEAUCEIconHintOthers@@_N@Z 00000001400c0898 f i SearchCtrl.obj
 0001:000bf898       ?Get@?$MMap@PEAUHWND__@@UTabPanelWinMap@@$0A@@@QEAA_NAEBQEAUHWND__@@PEAUTabPanelWinMap@@_N@Z 00000001400c0898 f i WinObjBase.obj
 0001:000bf92c       ?GetNext@?$MMap@PEAUHWND__@@UCEIconHintInfo@@$0A@@@QEAA_NPEBQEAUHWND__@@PEAPEAU2@PEAUCEIconHintInfo@@@Z 00000001400c092c f i SearchCtrl.obj
 0001:000bfa90       ?Init@?$MMap@PEAUHWND__@@UCEIconHintInfo@@$0A@@@QEAA_N_K_N@Z 00000001400c0a90 f i SearchCtrl.obj
 0001:000bfb04       ?Init@?$MMap@PEAUHWND__@@UCEIconHintOthers@@$0A@@@QEAA_N_K_N@Z 00000001400c0b04 f i SearchCtrl.obj
 0001:000bfb7c       ?Set@?$MMap@HUCEIconDrawHandles@@$0A@@@QEAA_NAEBHAEBUCEIconDrawHandles@@@Z 00000001400c0b7c f i SearchCtrl.obj
 0001:000bfcd8       ?Set@?$MMap@PEAUHWND__@@UCEIconHintInfo@@$0A@@@QEAA_NAEBQEAUHWND__@@AEBUCEIconHintInfo@@@Z 00000001400c0cd8 f i SearchCtrl.obj
 0001:000bff8c       ?Set@?$MMap@PEAUHWND__@@UTabPanelWinMap@@$0A@@@QEAA_NAEBQEAUHWND__@@AEBUTabPanelWinMap@@@Z 00000001400c0f8c f i WinObjBase.obj
 0001:000bff8c       ?Set@?$MMap@PEAUHWND__@@UCEIconHintOthers@@$0A@@@QEAA_NAEBQEAUHWND__@@AEBUCEIconHintOthers@@@Z 00000001400c0f8c f i SearchCtrl.obj
 0001:000c00f0       ?BackColorIdx@AppSettings@@QEBAEXZ 00000001400c10f0 f   SetAppSettings.obj
 0001:000c0114       ?CTSBashMargin@AppSettings@@QEBA_NXZ 00000001400c1114 f   SetAppSettings.obj
 0001:000c013c       ?CTSClickPromptPosition@AppSettings@@QEBAEXZ 00000001400c113c f   SetAppSettings.obj
 0001:000c0164       ?CTSDeleteLeftWord@AppSettings@@QEBAEXZ 00000001400c1164 f   SetAppSettings.obj
 0001:000c018c       ?CTSDetectLineEnd@AppSettings@@QEBA_NXZ 00000001400c118c f   SetAppSettings.obj
 0001:000c01b4       ?CTSEOL@AppSettings@@QEBAEXZ 00000001400c11b4 f   SetAppSettings.obj
 0001:000c01dc       ?CTSShiftArrowStart@AppSettings@@QEBA_NXZ 00000001400c11dc f   SetAppSettings.obj
 0001:000c0204       ?CTSTrimTrailing@AppSettings@@QEBAEXZ 00000001400c1204 f   SetAppSettings.obj
 0001:000c022c       ?Cursor@AppSettings@@QEBA?ATCECursorType@@_N@Z 00000001400c122c f   SetAppSettings.obj
 0001:000c0284       ?CursorBlink@AppSettings@@QEBA_N_N@Z 00000001400c1284 f   SetAppSettings.obj
 0001:000c02a4       ?CursorFixedSize@AppSettings@@QEBAE_N@Z 00000001400c12a4 f   SetAppSettings.obj
 0001:000c02c4       ?CursorIgnoreSize@AppSettings@@QEBA_N_N@Z 00000001400c12c4 f   SetAppSettings.obj
 0001:000c02e4       ?ExtendFonts@AppSettings@@QEBA_NXZ 00000001400c12e4 f   SetAppSettings.obj
 0001:000c030c       ?FontBoldColor@AppSettings@@QEBAEXZ 00000001400c130c f   SetAppSettings.obj
 0001:000c0334       ?FontItalicColor@AppSettings@@QEBAEXZ 00000001400c1334 f   SetAppSettings.obj
 0001:000c035c       ?FontNormalColor@AppSettings@@QEBAEXZ 00000001400c135c f   SetAppSettings.obj
 0001:000c0384       ?FreeApps@AppSettings@@QEAAXXZ 00000001400c1384 f   SetAppSettings.obj
 0001:000c03c0       ?PasteAllLines@AppSettings@@QEBAEXZ 00000001400c13c0 f   SetAppSettings.obj
 0001:000c03e8       ?PasteFirstLine@AppSettings@@QEBAEXZ 00000001400c13e8 f   SetAppSettings.obj
 0001:000c0410       ?PopBackColorIdx@AppSettings@@QEBAEXZ 00000001400c1410 f   SetAppSettings.obj
 0001:000c0434       ?PopTextColorIdx@AppSettings@@QEBAEXZ 00000001400c1434 f   SetAppSettings.obj
 0001:000c0458       ?PosixAllLines@AppSettings@@QEBAEXZ 00000001400c1458 f   SetAppSettings.obj
 0001:000c0480       ?PosixFirstLine@AppSettings@@QEBAEXZ 00000001400c1480 f   SetAppSettings.obj
 0001:000c04a8       ?SetNames@AppSettings@@QEAAXPEB_W@Z 00000001400c14a8 f   SetAppSettings.obj
 0001:000c0578       ?TextColorIdx@AppSettings@@QEBAEXZ 00000001400c1578 f   SetAppSettings.obj
 0001:000c059c       ?FreePtr@CommandTasks@@QEAAXXZ 00000001400c159c f   SetCmdTask.obj
 0001:000c05fc       ?LoadCmdTask@CommandTasks@@QEAA_NPEAUSettingsBase@@H@Z 00000001400c15fc f   SetCmdTask.obj
 0001:000c093c       ?ParseGuiArgs@CommandTasks@@QEBAXPEAURConStartArgsEx@@@Z 00000001400c193c f   SetCmdTask.obj
 0001:000c0cbc       ?SaveCmdTask@CommandTasks@@QEAA_NPEAUSettingsBase@@_N@Z 00000001400c1cbc f   SetCmdTask.obj
 0001:000c0f44       ?SetCommands@CommandTasks@@QEAA_NPEB_W@Z 00000001400c1f44 f   SetCmdTask.obj
 0001:000c1010       ?SetGuiArg@CommandTasks@@QEAA_NPEB_W@Z 00000001400c2010 f   SetCmdTask.obj
 0001:000c10dc       ?SetName@CommandTasks@@QEAAXPEB_WH@Z 00000001400c20dc f   SetCmdTask.obj
 0001:000c11e4       ?FreePtr@ColorPalette@@QEAAXXZ 00000001400c21e4 f   SetColorPalette.obj
 0001:000c120c       ?GetColors@ColorPalette@@QEAAAEBV?$array@K$0BA@@std@@_N@Z 00000001400c220c f   SetColorPalette.obj
 0001:000c1238       ??$swprintf_c@$0BMM@@@YAHAEAY0BMM@_WPEB_WZZ 00000001400c2238 f i SetDlgButtons.obj
 0001:000c1264       ?CheckButtonMacro@CSetDlgButtons@@SAPEA_WGE@Z 00000001400c2264 f   SetDlgButtons.obj
 0001:000c1350       ?OnBtn_ActivateSplitMouseOver@CSetDlgButtons@@KAXPEAUHWND__@@GE@Z 00000001400c2350 f   SetDlgButtons.obj
 0001:000c138c       ?OnBtn_ActivityReset@CSetDlgButtons@@KAXPEAUHWND__@@GE@Z 00000001400c238c f   SetDlgButtons.obj
 0001:000c13e4       ?OnBtn_AddDefaults@CSetDlgButtons@@KAXPEAUHWND__@@GE@Z 00000001400c23e4 f   SetDlgButtons.obj
 0001:000c14d0       ?OnBtn_AdminSuffixOrShield@CSetDlgButtons@@KAXPEAUHWND__@@GE@Z 00000001400c24d0 f   SetDlgButtons.obj
 0001:000c1600       ?OnBtn_AnsiSecureRadio@CSetDlgButtons@@KAXPEAUHWND__@@GE@Z 00000001400c2600 f   SetDlgButtons.obj
 0001:000c1658       ?OnBtn_AntiAliasing2@CSetDlgButtons@@KAXPEAUHWND__@@GE@Z 00000001400c2658 f   SetDlgButtons.obj
 0001:000c1688       ?OnBtn_ApplyPos@CSetDlgButtons@@KAXPEAUHWND__@@GE@Z 00000001400c2688 f   SetDlgButtons.obj
 0001:000c1910       ?OnBtn_BgAllowPlugin@CSetDlgButtons@@KAXPEAUHWND__@@GE@Z 00000001400c2910 f   SetDlgButtons.obj
 0001:000c1940       ?OnBtn_BgImageChoose@CSetDlgButtons@@KAXPEAUHWND__@@GE@Z 00000001400c2940 f   SetDlgButtons.obj
 0001:000c1b84       ?OnBtn_BgImageEnable@CSetDlgButtons@@KAXPEAUHWND__@@GE@Z 00000001400c2b84 f   SetDlgButtons.obj
 0001:000c1cc8       ?OnBtn_CTSAutoCopy@CSetDlgButtons@@KAXPEAUHWND__@@GE@Z 00000001400c2cc8 f   SetDlgButtons.obj
 0001:000c1d34       ?OnBtn_CTSEndCopyAuto@CSetDlgButtons@@KAXPEAUHWND__@@GE@Z 00000001400c2d34 f   SetDlgButtons.obj
 0001:000c1e24       ?OnBtn_CascadeFixed@CSetDlgButtons@@KAXPEAUHWND__@@GE@Z 00000001400c2e24 f   SetDlgButtons.obj
 0001:000c1eb0       ?OnBtn_ClinkWebPage@CSetDlgButtons@@KAXPEAUHWND__@@GE@Z 00000001400c2eb0 f   SetDlgButtons.obj
 0001:000c1ee0       ?OnBtn_CloseConEmuOptions@CSetDlgButtons@@KAXPEAUHWND__@@GE@Z 00000001400c2ee0 f   SetDlgButtons.obj
 0001:000c20f8       ?OnBtn_CloseConfirmFlags@CSetDlgButtons@@KAXPEAUHWND__@@GE@Z 00000001400c30f8 f   SetDlgButtons.obj
 0001:000c2144       ?OnBtn_CmdAutoActions@CSetDlgButtons@@KAXPEAUHWND__@@GE@Z 00000001400c3144 f   SetDlgButtons.obj
 0001:000c21bc       ?OnBtn_CmdGroupApp@CSetDlgButtons@@KAXPEAUHWND__@@GE@Z 00000001400c31bc f   SetDlgButtons.obj
 0001:000c23e0       ?OnBtn_CmdGroupKey@CSetDlgButtons@@KAXPEAUHWND__@@GE@Z 00000001400c33e0 f   SetDlgButtons.obj
 0001:000c24cc       ?OnBtn_CmdTaskbarUpdate@CSetDlgButtons@@KAXPEAUHWND__@@GE@Z 00000001400c34cc f   SetDlgButtons.obj
 0001:000c2524       ?OnBtn_CmdTasksActive@CSetDlgButtons@@KAXPEAUHWND__@@GE@Z 00000001400c3524 f   SetDlgButtons.obj
 0001:000c2570       ?OnBtn_CmdTasksAdd@CSetDlgButtons@@KAXPEAUHWND__@@GE@Z 00000001400c3570 f   SetDlgButtons.obj
 0001:000c2668       ?OnBtn_CmdTasksDel@CSetDlgButtons@@KAXPEAUHWND__@@GE@Z 00000001400c3668 f   SetDlgButtons.obj
 0001:000c294c       ?OnBtn_CmdTasksDir@CSetDlgButtons@@KAXPEAUHWND__@@GE@Z 00000001400c394c f   SetDlgButtons.obj
 0001:000c2adc       ?OnBtn_CmdTasksDup@CSetDlgButtons@@KAXPEAUHWND__@@GE@Z 00000001400c3adc f   SetDlgButtons.obj
 0001:000c2c5c       ?OnBtn_CmdTasksFlags@CSetDlgButtons@@KAXPEAUHWND__@@GE@Z 00000001400c3c5c f   SetDlgButtons.obj
 0001:000c2dfc       ?OnBtn_CmdTasksParm@CSetDlgButtons@@KAXPEAUHWND__@@GE@Z 00000001400c3dfc f   SetDlgButtons.obj
 0001:000c2f2c       ?OnBtn_CmdTasksReload@CSetDlgButtons@@KAXPEAUHWND__@@GE@Z 00000001400c3f2c f   SetDlgButtons.obj
 0001:000c3004       ?OnBtn_CmdTasksUpDown@CSetDlgButtons@@KAXPEAUHWND__@@GE@Z 00000001400c4004 f   SetDlgButtons.obj
 0001:000c3118       ?OnBtn_ColorField@CSetDlgButtons@@KAXPEAUHWND__@@GE@Z 00000001400c4118 f   SetDlgButtons.obj
 0001:000c3298       ?OnBtn_ColorFormat@CSetDlgButtons@@KAXPEAUHWND__@@GE@Z 00000001400c4298 f   SetDlgButtons.obj
 0001:000c3308       ?OnBtn_ColorSchemeSaveDelete@CSetDlgButtons@@KAXPEAUHWND__@@GE@Z 00000001400c4308 f   SetDlgButtons.obj
 0001:000c336c       ?OnBtn_ComspecBitsRadio@CSetDlgButtons@@KAXPEAUHWND__@@GE@Z 00000001400c436c f   SetDlgButtons.obj
 0001:000c33c0       ?OnBtn_ComspecExplicit@CSetDlgButtons@@KAXPEAUHWND__@@GE@Z 00000001400c43c0 f   SetDlgButtons.obj
 0001:000c3534       ?OnBtn_ComspecRadio@CSetDlgButtons@@KAXPEAUHWND__@@GE@Z 00000001400c4534 f   SetDlgButtons.obj
 0001:000c35d4       ?OnBtn_ComspecTest@CSetDlgButtons@@KAXPEAUHWND__@@GE@Z 00000001400c45d4 f   SetDlgButtons.obj
 0001:000c3634       ?OnBtn_CursorOptions@CSetDlgButtons@@KAXPEAUHWND__@@GE@Z 00000001400c4634 f   SetDlgButtons.obj
 0001:000c3664       ?OnBtn_DebugActivityRadio@CSetDlgButtons@@KAXPEAUHWND__@@GE@Z 00000001400c4664 f   SetDlgButtons.obj
 0001:000c36d4       ?OnBtn_DebugLog@CSetDlgButtons@@KAXPEAUHWND__@@GE@Z 00000001400c46d4 f   SetDlgButtons.obj
 0001:000c3780       ?OnBtn_DefTerm@CSetDlgButtons@@KAXPEAUHWND__@@GE@Z 00000001400c4780 f   SetDlgButtons.obj
 0001:000c3a6c       ?OnBtn_DosBox@CSetDlgButtons@@KAXPEAUHWND__@@GE@Z 00000001400c4a6c f   SetDlgButtons.obj
 0001:000c3b40       ?OnBtn_ExtendFonts@CSetDlgButtons@@KAXPEAUHWND__@@GE@Z 00000001400c4b40 f   SetDlgButtons.obj
 0001:000c3b78       ?OnBtn_FixFarBorders@CSetDlgButtons@@KAXPEAUHWND__@@GE@Z 00000001400c4b78 f   SetDlgButtons.obj
 0001:000c3bb0       ?OnBtn_FontAuto@CSetDlgButtons@@KAXPEAUHWND__@@GE@Z 00000001400c4bb0 f   SetDlgButtons.obj
 0001:000c3c50       ?OnBtn_GotoEditorCmd@CSetDlgButtons@@KAXPEAUHWND__@@GE@Z 00000001400c4c50 f   SetDlgButtons.obj
 0001:000c3df8       ?OnBtn_HideCaption@CSetDlgButtons@@KAXPEAUHWND__@@GE@Z 00000001400c4df8 f   SetDlgButtons.obj
 0001:000c3e54       ?OnBtn_HideCaptionAlways@CSetDlgButtons@@KAXPEAUHWND__@@GE@Z 00000001400c4e54 f   SetDlgButtons.obj
 0001:000c3ee4       ?OnBtn_HideChildCaption@CSetDlgButtons@@KAXPEAUHWND__@@GE@Z 00000001400c4ee4 f   SetDlgButtons.obj
 0001:000c3f10       ?OnBtn_HideInactiveConTabs@CSetDlgButtons@@KAXPEAUHWND__@@GE@Z 00000001400c4f10 f   SetDlgButtons.obj
 0001:000c3f3c       ?OnBtn_HideOrMinOnLastTabClose@CSetDlgButtons@@KAXPEAUHWND__@@GE@Z 00000001400c4f3c f   SetDlgButtons.obj
 0001:000c407c       ?OnBtn_InstallKeybHooks@CSetDlgButtons@@KAXPEAUHWND__@@GE@Z 00000001400c507c f   SetDlgButtons.obj
 0001:000c40e8       ?OnBtn_LongOutput@CSetDlgButtons@@KAXPEAUHWND__@@GE@Z 00000001400c50e8 f   SetDlgButtons.obj
 0001:000c413c       ?OnBtn_MinByEscRadio@CSetDlgButtons@@KAXPEAUHWND__@@GE@Z 00000001400c513c f   SetDlgButtons.obj
 0001:000c419c       ?OnBtn_MinMaxKey@CSetDlgButtons@@KAXPEAUHWND__@@GE@Z 00000001400c519c f   SetDlgButtons.obj
 0001:000c4268       ?OnBtn_Monospace@CSetDlgButtons@@KAXPEAUHWND__@@GE@Z 00000001400c5268 f   SetDlgButtons.obj
 0001:000c42b8       ?OnBtn_MultiShowPanes@CSetDlgButtons@@KAXPEAUHWND__@@GE@Z 00000001400c52b8 f   SetDlgButtons.obj
 0001:000c4308       ?OnBtn_NormalFullscreenMaximized@CSetDlgButtons@@KAXPEAUHWND__@@GE@Z 00000001400c5308 f   SetDlgButtons.obj
 0001:000c4354       ?OnBtn_OneTabPerGroup@CSetDlgButtons@@KAXPEAUHWND__@@GE@Z 00000001400c5354 f   SetDlgButtons.obj
 0001:000c4380       ?OnBtn_QuakeStyles@CSetDlgButtons@@KAXPEAUHWND__@@GE@Z 00000001400c5380 f   SetDlgButtons.obj
 0001:000c43f4       ?OnBtn_RConVisible@CSetDlgButtons@@KAXPEAUHWND__@@GE@Z 00000001400c53f4 f   SetDlgButtons.obj
 0001:000c4460       ?OnBtn_ScrollbarStyle@CSetDlgButtons@@KAXPEAUHWND__@@GE@Z 00000001400c5460 f   SetDlgButtons.obj
 0001:000c4568       ?OnBtn_SendConsoleSpecials@CSetDlgButtons@@KAXPEAUHWND__@@GE@Z 00000001400c5568 f   SetDlgButtons.obj
 0001:000c45fc       ?OnBtn_ShowFarWindows@CSetDlgButtons@@KAXPEAUHWND__@@GE@Z 00000001400c55fc f   SetDlgButtons.obj
 0001:000c4628       ?OnBtn_SnapToDesktopEdges@CSetDlgButtons@@KAXPEAUHWND__@@GE@Z 00000001400c5628 f   SetDlgButtons.obj
 0001:000c4660       ?OnBtn_StatusAddDel@CSetDlgButtons@@KAXPEAUHWND__@@GE@Z 00000001400c5660 f   SetDlgButtons.obj
 0001:000c4830       ?OnBtn_StatusHorzSep@CSetDlgButtons@@KAXPEAUHWND__@@GE@Z 00000001400c5830 f   SetDlgButtons.obj
 0001:000c4878       ?OnBtn_StatusSystemColors@CSetDlgButtons@@KAXPEAUHWND__@@GE@Z 00000001400c5878 f   SetDlgButtons.obj
 0001:000c48d8       ?OnBtn_StatusVertPad@CSetDlgButtons@@KAXPEAUHWND__@@GE@Z 00000001400c58d8 f   SetDlgButtons.obj
 0001:000c4920       ?OnBtn_StatusVertSep@CSetDlgButtons@@KAXPEAUHWND__@@GE@Z 00000001400c5920 f   SetDlgButtons.obj
 0001:000c4954       ?OnBtn_TabsLocationBottom@CSetDlgButtons@@KAXPEAUHWND__@@GE@Z 00000001400c5954 f   SetDlgButtons.obj
 0001:000c4998       ?OnBtn_TabsRadioAuto@CSetDlgButtons@@KAXPEAUHWND__@@GE@Z 00000001400c5998 f   SetDlgButtons.obj
 0001:000c4a30       ?OnBtn_TaskbarBtnRadio@CSetDlgButtons@@KAXPEAUHWND__@@GE@Z 00000001400c5a30 f   SetDlgButtons.obj
 0001:000c4abc       ?OnBtn_ThumbBackColors@CSetDlgButtons@@KAXPEAUHWND__@@GE@Z 00000001400c5abc f   SetDlgButtons.obj
 0001:000c4b14       ?OnBtn_ThumbLoadFiles@CSetDlgButtons@@KAXPEAUHWND__@@GE@Z 00000001400c5b14 f   SetDlgButtons.obj
 0001:000c4b44       ?OnBtn_ThumbPreviewBoxColors@CSetDlgButtons@@KAXPEAUHWND__@@GE@Z 00000001400c5b44 f   SetDlgButtons.obj
 0001:000c4b9c       ?OnBtn_ThumbSelectionBoxColors@CSetDlgButtons@@KAXPEAUHWND__@@GE@Z 00000001400c5b9c f   SetDlgButtons.obj
 0001:000c4bf4       ?OnBtn_Transparent@CSetDlgButtons@@KAXPEAUHWND__@@GE@Z 00000001400c5bf4 f   SetDlgButtons.obj
 0001:000c4ca8       ?OnBtn_TransparentSeparate@CSetDlgButtons@@KAXPEAUHWND__@@GE@Z 00000001400c5ca8 f   SetDlgButtons.obj
 0001:000c4d94       ?OnBtn_TrueColorer@CSetDlgButtons@@KAXPEAUHWND__@@GE@Z 00000001400c5d94 f   SetDlgButtons.obj
 0001:000c4dc4       ?OnBtn_TryToCenter@CSetDlgButtons@@KAXPEAUHWND__@@GE@Z 00000001400c5dc4 f   SetDlgButtons.obj
 0001:000c4e04       ?OnBtn_UnicodeRangesApply@CSetDlgButtons@@KAXPEAUHWND__@@GE@Z 00000001400c5e04 f   SetDlgButtons.obj
 0001:000c4ec4       ?OnBtn_UpdateApplyAndCheck@CSetDlgButtons@@KAXPEAUHWND__@@GE@Z 00000001400c5ec4 f   SetDlgButtons.obj
 0001:000c4f7c       ?OnBtn_UpdateArcCmdLine@CSetDlgButtons@@KAXPEAUHWND__@@GE@Z 00000001400c5f7c f   SetDlgButtons.obj
 0001:000c50c0       ?OnBtn_UpdateCheckFast@CSetDlgButtons@@KAXPEAUHWND__@@GE@Z 00000001400c60c0 f   SetDlgButtons.obj
 0001:000c510c       ?OnBtn_UpdateDownloadPath@CSetDlgButtons@@KAXPEAUHWND__@@GE@Z 00000001400c610c f   SetDlgButtons.obj
 0001:000c524c       ?OnBtn_UpdateInetTool@CSetDlgButtons@@KAXPEAUHWND__@@GE@Z 00000001400c624c f   SetDlgButtons.obj
 0001:000c52d4       ?OnBtn_UpdateInetToolCmd@CSetDlgButtons@@KAXPEAUHWND__@@GE@Z 00000001400c62d4 f   SetDlgButtons.obj
 0001:000c546c       ?OnBtn_UpdateTypeRadio@CSetDlgButtons@@KAXPEAUHWND__@@GE@Z 00000001400c646c f   SetDlgButtons.obj
 0001:000c54fc       ?OnBtn_UpdateUseProxy@CSetDlgButtons@@KAXPEAUHWND__@@GE@Z 00000001400c64fc f   SetDlgButtons.obj
 0001:000c5594       ?OnBtn_UseClink@CSetDlgButtons@@KAXPEAUHWND__@@GE@Z 00000001400c6594 f   SetDlgButtons.obj
 0001:000c564c       ?OnBtn_UseCurrentSizePos@CSetDlgButtons@@KAXPEAUHWND__@@GE@Z 00000001400c664c f   SetDlgButtons.obj
 0001:000c5714       ?OnBtn_UseWinArrowNumTab@CSetDlgButtons@@KAXPEAUHWND__@@GE@Z 00000001400c6714 f   SetDlgButtons.obj
 0001:000c5774       ?OnBtn_UserScreenTransparent@CSetDlgButtons@@KAXPEAUHWND__@@GE@Z 00000001400c6774 f   SetDlgButtons.obj
 0001:000c57b0       ?OnButtonClicked@CSetDlgButtons@@KA_JPEAUHWND__@@_K_J@Z 00000001400c67b0 f   SetDlgButtons.obj
 0001:000c57fc       ?OnButtonClicked_Cursor@CSetDlgButtons@@KAXPEAUHWND__@@GEPEAUAppSettings@@@Z 00000001400c67fc f   SetDlgButtons.obj
 0001:000c5940       ?ProcessButtonClick@CSetDlgButtons@@KA_NPEAUHWND__@@GE@Z 00000001400c6940 f   SetDlgButtons.obj
 0001:000c773c       ?ColorBoxProc@CSetDlgColors@@KA_JPEAUHWND__@@I_K_J@Z 00000001400c873c f   SetDlgColors.obj
 0001:000c7a00       ?ColorCtlStatic@CSetDlgColors@@SA_JPEAUHWND__@@G0@Z 00000001400c8a00 f   SetDlgColors.obj
 0001:000c7b4c       ?ColorEditDialog@CSetDlgColors@@SA_NPEAUHWND__@@G@Z 00000001400c8b4c f   SetDlgColors.obj
 0001:000c7be0       ?ColorSetEdit@CSetDlgColors@@SAXPEAUHWND__@@G@Z 00000001400c8be0 f   SetDlgColors.obj
 0001:000c7db0       ?FillBgImageColors@CSetDlgColors@@SAXPEAUHWND__@@@Z 00000001400c8db0 f   SetDlgColors.obj
 0001:000c7ebc       ?GetColorById@CSetDlgColors@@SA_NGPEAK@Z 00000001400c8ebc f   SetDlgColors.obj
 0001:000c7f8c       ?GetColorRef@CSetDlgColors@@SA_NPEAUHWND__@@GPEAK@Z 00000001400c8f8c f   SetDlgColors.obj
 0001:000c7ff8       ?OnSettingsLoaded@CSetDlgColors@@SAXAEBV?$array@K$0BA@@std@@@Z 00000001400c8ff8 f   SetDlgColors.obj
 0001:000c8038       ?ReleaseHandles@CSetDlgColors@@SAXXZ 00000001400c9038 f   SetDlgColors.obj
 0001:000c808c       ?SetColorById@CSetDlgColors@@SA_NGK@Z 00000001400c908c f   SetDlgColors.obj
 0001:000c81d0       ?ShowColorDialog@CSetDlgColors@@SA_NPEAUHWND__@@PEAK@Z 00000001400c91d0 f   SetDlgColors.obj
 0001:000c8240       ?EnumFamCallBack@CSetDlgFonts@@KAHPEAUtagLOGFONTW@@PEAUtagNEWTEXTMETRICW@@KPEAX@Z 00000001400c9240 f   SetDlgFonts.obj
 0001:000c8350       ?EnumFontCallBackEx@CSetDlgFonts@@KAHPEAUtagENUMLOGFONTEXW@@PEAUtagNEWTEXTMETRICEXW@@K_J@Z 00000001400c9350 f   SetDlgFonts.obj
 0001:000c839c       ?EnumFontsFinished@CSetDlgFonts@@SA_NXZ 00000001400c939c f   SetDlgFonts.obj
 0001:000c83a4       ?EnumFontsThread@CSetDlgFonts@@CAKPEAX@Z 00000001400c93a4 f   SetDlgFonts.obj
 0001:000c86a0       ?StartEnumFontsThread@CSetDlgFonts@@KA_NXZ 00000001400c96a0 f   SetDlgFonts.obj
 0001:000c86e0       ?EnableDlgItems@CSetDlgLists@@SAXPEAUHWND__@@PEBK_K_N@Z 00000001400c96e0 f   SetDlgLists.obj
 0001:000c873c       ?EnableDlgItems@CSetDlgLists@@SAXPEAUHWND__@@W4eWordItems@1@_N@Z 00000001400c973c f   SetDlgLists.obj
 0001:000c8778       ?FillCBList@CSetDlgLists@@SAXPEAUHWND__@@_NPEAPEB_WPEB_W@Z 00000001400c9778 f   SetDlgLists.obj
 0001:000c8844       ?FillListBox@CSetDlgLists@@SAXPEAUHWND__@@GW4eFillListBoxItems@1@@Z 00000001400c9844 f   SetDlgLists.obj
 0001:000c88b4       ?FillListBoxItems@CSetDlgLists@@SAXPEAUHWND__@@W4eFillListBoxItems@1@AEAE_N@Z 00000001400c98b4 f   SetDlgLists.obj
 0001:000c88f4       ?FillListBoxItems@CSetDlgLists@@SAXPEAUHWND__@@W4eFillListBoxItems@1@AEAI_N@Z 00000001400c98f4 f   SetDlgLists.obj
 0001:000c89f8       ?FillListBoxItems@CSetDlgLists@@SAXPEAUHWND__@@W4eFillListBoxItems@1@AEBI@Z 00000001400c99f8 f   SetDlgLists.obj
 0001:000c8a18       ?FillListBoxItems@CSetDlgLists@@SAXPEAUHWND__@@W4eWordItems@1@AEAI_N@Z 00000001400c9a18 f   SetDlgLists.obj
 0001:000c8b2c       ?GetListBoxItem@CSetDlgLists@@SA_NPEAUHWND__@@GW4eFillListBoxItems@1@AEAE@Z 00000001400c9b2c f   SetDlgLists.obj
 0001:000c8b54       ?GetListBoxItem@CSetDlgLists@@SA_NPEAUHWND__@@GW4eFillListBoxItems@1@AEAI@Z 00000001400c9b54 f   SetDlgLists.obj
 0001:000c8c0c       ?GetListBoxItem@CSetDlgLists@@SA_NPEAUHWND__@@GW4eWordItems@1@AEAI@Z 00000001400c9c0c f   SetDlgLists.obj
 0001:000c8cc4       ?GetListItems@CSetDlgLists@@SAIW4eFillListBoxItems@1@AEAPEBUListBoxItem@@@Z 00000001400c9cc4 f   SetDlgLists.obj
 0001:000c8e54       ?GetListItems@CSetDlgLists@@SAIW4eWordItems@1@AEAPEBK@Z 00000001400c9e54 f   SetDlgLists.obj
 0001:000c8f04       ?GetListboxCurSel@CSetDlgLists@@SAHPEAUHWND__@@I_N@Z 00000001400c9f04 f   SetDlgLists.obj
 0001:000c8fac       ?GetListboxSelection@CSetDlgLists@@SAHPEAUHWND__@@IAEAPEAH@Z 00000001400c9fac f   SetDlgLists.obj
 0001:000c9090       ?GetSelectedString@CSetDlgLists@@SA_JPEAUHWND__@@GAEAUCEStr@@@Z 00000001400ca090 f   SetDlgLists.obj
 0001:000c91c8       ?ListBoxMultiSel@CSetDlgLists@@SAXPEAUHWND__@@IH@Z 00000001400ca1c8 f   SetDlgLists.obj
 0001:000c9238       ?SelectString@CSetDlgLists@@SAHPEAUHWND__@@GPEB_W@Z 00000001400ca238 f   SetDlgLists.obj
 0001:000c9264       ?SelectStringExact@CSetDlgLists@@SAHPEAUHWND__@@GPEB_W@Z 00000001400ca264 f   SetDlgLists.obj
 0001:000c940c       ??0CSetPgANSI@@QEAA@XZ     00000001400ca40c f   SetPgANSI.obj
 0001:000c9430       ??_GCSetPgANSI@@UEAAPEAXI@Z 00000001400ca430 f i SetPgANSI.obj
 0001:000c9430       ??_ECSetPgANSI@@UEAAPEAXI@Z 00000001400ca430 f i SetPgANSI.obj
 0001:000c9470       ?GetPageType@CSetPgANSI@@UEAA?AW4TabHwndIndex@@XZ 00000001400ca470 f i SetPgANSI.obj
 0001:000c9478       ?OnEditChanged@CSetPgANSI@@UEAA_JPEAUHWND__@@G@Z 00000001400ca478 f   SetPgANSI.obj
 0001:000c94d4       ?OnInitDialog@CSetPgANSI@@UEAA_JPEAUHWND__@@_N@Z 00000001400ca4d4 f   SetPgANSI.obj
 0001:000c9550       ??0CSetPgAppear@@QEAA@XZ   00000001400ca550 f   SetPgAppear.obj
 0001:000c9574       ??_ECSetPgAppear@@UEAAPEAXI@Z 00000001400ca574 f i SetPgAppear.obj
 0001:000c9574       ??_GCSetPgAppear@@UEAAPEAXI@Z 00000001400ca574 f i SetPgAppear.obj
 0001:000c95b4       ?GetPageType@CSetPgAppear@@UEAA?AW4TabHwndIndex@@XZ 00000001400ca5b4 f i SetPgAppear.obj
 0001:000c95bc       ?OnEditChanged@CSetPgAppear@@UEAA_JPEAUHWND__@@G@Z 00000001400ca5bc f   SetPgAppear.obj
 0001:000c9754       ?OnInitDialog@CSetPgAppear@@UEAA_JPEAUHWND__@@_N@Z 00000001400ca754 f   SetPgAppear.obj
 0001:000c99c4       ??0CSetPgApps@@QEAA@XZ     00000001400ca9c4 f   SetPgApps.obj
 0001:000c99fc       ??1CSetPgApps@@UEAA@XZ     00000001400ca9fc f   SetPgApps.obj
 0001:000c9a48       ??_GCSetPgApps@@UEAAPEAXI@Z 00000001400caa48 f i SetPgApps.obj
 0001:000c9a48       ??_ECSetPgApps@@UEAAPEAXI@Z 00000001400caa48 f i SetPgApps.obj
 0001:000c9a7c       ?CreateChildDlg@CSetPgApps@@IEAA_NXZ 00000001400caa7c f   SetPgApps.obj
 0001:000c9ca0       ?DoAppAdd@CSetPgApps@@IEAAXXZ 00000001400caca0 f   SetPgApps.obj
 0001:000c9d48       ?DoAppDel@CSetPgApps@@IEAAXXZ 00000001400cad48 f   SetPgApps.obj
 0001:000c9e5c       ?DoAppMove@CSetPgApps@@IEAAX_N@Z 00000001400cae5c f   SetPgApps.obj
 0001:000c9f58       ?DoEnableControls@CSetPgApps@@QEAAXG@Z 00000001400caf58 f   SetPgApps.obj
 0001:000ca090       ?DoFillControls@CSetPgApps@@QEAAXPEBUAppSettings@@@Z 00000001400cb090 f   SetPgApps.obj
 0001:000ca37c       ?DoReloadApps@CSetPgApps@@IEAAXXZ 00000001400cb37c f   SetPgApps.obj
 0001:000ca3e0       ?GetPageType@CSetPgApps@@UEAA?AW4TabHwndIndex@@XZ 00000001400cb3e0 f i SetPgApps.obj
 0001:000ca3e8       ?NotifyVCon@CSetPgApps@@IEAAXXZ 00000001400cb3e8 f   SetPgApps.obj
 0001:000ca430       ?OnAppSelectionChanged@CSetPgApps@@IEAAXXZ 00000001400cb430 f   SetPgApps.obj
 0001:000ca500       ?OnButtonClicked@CSetPgApps@@UEAA_JPEAUHWND__@@0G@Z 00000001400cb500 f   SetPgApps.obj
 0001:000ca9a4       ?OnComboBox@CSetPgApps@@UEAA_JPEAUHWND__@@GG@Z 00000001400cb9a4 f   SetPgApps.obj
 0001:000cac5c       ?OnEditChanged@CSetPgApps@@UEAA_JPEAUHWND__@@G@Z 00000001400cbc5c f   SetPgApps.obj
 0001:000cad98       ?OnInitDialog@CSetPgApps@@UEAA_JPEAUHWND__@@_N@Z 00000001400cbd98 f   SetPgApps.obj
 0001:000cafb8       ?PageDlgProc@CSetPgApps@@UEAA_JPEAUHWND__@@I_K_J@Z 00000001400cbfb8 f   SetPgApps.obj
 0001:000cb1a4       ?ProcessDpiChange@CSetPgApps@@UEAAXPEBVCDpiForDialog@@@Z 00000001400cc1a4 f   SetPgApps.obj
 0001:000cb270       ?SetListAppName@CSetPgApps@@IEAA_JPEBUAppSettings@@H_J@Z 00000001400cc270 f   SetPgApps.obj
 0001:000cb3ac       ?pageOpProc_AppsChild@CSetPgApps@@SA_JPEAUHWND__@@I_K_J@Z 00000001400cc3ac f   SetPgApps.obj
 0001:000cb618       ??0CSetPgBackgr@@QEAA@XZ   00000001400cc618 f   SetPgBackgr.obj
 0001:000cb63c       ??_GCSetPgBackgr@@UEAAPEAXI@Z 00000001400cc63c f i SetPgBackgr.obj
 0001:000cb63c       ??_ECSetPgBackgr@@UEAAPEAXI@Z 00000001400cc63c f i SetPgBackgr.obj
 0001:000cb67c       ?GetPageType@CSetPgBackgr@@UEAA?AW4TabHwndIndex@@XZ 00000001400cc67c f i SetPgBackgr.obj
 0001:000cb684       ?OnComboBox@CSetPgBackgr@@UEAA_JPEAUHWND__@@GG@Z 00000001400cc684 f   SetPgBackgr.obj
 0001:000cb6fc       ?OnEditChanged@CSetPgBackgr@@UEAA_JPEAUHWND__@@G@Z 00000001400cc6fc f   SetPgBackgr.obj
 0001:000cb914       ?OnInitDialog@CSetPgBackgr@@UEAA_JPEAUHWND__@@_N@Z 00000001400cc914 f   SetPgBackgr.obj
 0001:000cbaa8       ??0CSetPgBase@@QEAA@XZ     00000001400ccaa8 f   SetPgBase.obj
 0001:000cbae4       ??1CSetPgBase@@UEAA@XZ     00000001400ccae4 f   SetPgBase.obj
 0001:000cbb28       ??_GCSetPgBase@@UEAAPEAXI@Z 00000001400ccb28 f i SetPgBase.obj
 0001:000cbb28       ??_ECSetPgBase@@UEAAPEAXI@Z 00000001400ccb28 f i SetPgBase.obj
 0001:000cbb5c       ?CreatePage@CSetPgBase@@SAPEAUHWND__@@PEAUConEmuSetupPages@@PEAU2@IPEBVCDpiForDialog@@@Z 00000001400ccb5c f   SetPgBase.obj
 0001:000cbc20       ?InitObject@CSetPgBase@@UEAAXPEAUHWND__@@IPEBVCDpiForDialog@@PEAUConEmuSetupPages@@@Z 00000001400ccc20 f   SetPgBase.obj
 0001:000cbc60       ?OnButtonClicked@CSetPgBase@@UEAA_JPEAUHWND__@@0G@Z 00000001400ccc60 f   SetPgBase.obj
 0001:000cbc6c       ?OnCtlColorStatic@CSetPgBase@@UEAA_JPEAUHWND__@@PEAUHDC__@@0G@Z 00000001400ccc6c f   SetPgBase.obj
 0001:000cbd28       ?OnDpiChanged@CSetPgBase@@UEAAXPEBVCDpiForDialog@@@Z 00000001400ccd28 f   SetPgBase.obj
 0001:000cbd78       ?OnSetCursor@CSetPgBase@@UEAA_JPEAUHWND__@@0GGG@Z 00000001400ccd78 f   SetPgBase.obj
 0001:000cbdd4       ?ProcessDpiChange@CSetPgBase@@UEAAXPEBVCDpiForDialog@@@Z 00000001400ccdd4 f   SetPgBase.obj
 0001:000cbe78       ?pageOpProc@CSetPgBase@@SA_JPEAUHWND__@@I_K_J@Z 00000001400cce78 f   SetPgBase.obj
 0001:000cc6e0       ?setCtrlTitleByHotkey@CSetPgBase@@SAXPEAUHWND__@@GHPEB_W1@Z 00000001400cd6e0 f   SetPgBase.obj
 0001:000cc944       ?setHotkeyCheckbox@CSetPgBase@@SAXPEAUHWND__@@GHPEB_W1I@Z 00000001400cd944 f   SetPgBase.obj
 0001:000ccae0       ??0CSetPgChildGui@@QEAA@XZ 00000001400cdae0 f   SetPgChildGui.obj
 0001:000ccb04       ??_GCSetPgChildGui@@UEAAPEAXI@Z 00000001400cdb04 f i SetPgChildGui.obj
 0001:000ccb04       ??_ECSetPgChildGui@@UEAAPEAXI@Z 00000001400cdb04 f i SetPgChildGui.obj
 0001:000ccb44       ?GetPageType@CSetPgChildGui@@UEAA?AW4TabHwndIndex@@XZ 00000001400cdb44 f i SetPgChildGui.obj
 0001:000ccb4c       ?OnInitDialog@CSetPgChildGui@@UEAA_JPEAUHWND__@@_N@Z 00000001400cdb4c f   SetPgChildGui.obj
 0001:000ccb98       ??0CSetPgColors@@QEAA@XZ   00000001400cdb98 f   SetPgColors.obj
 0001:000ccbbc       ??_ECSetPgColors@@UEAAPEAXI@Z 00000001400cdbbc f i SetPgColors.obj
 0001:000ccbbc       ??_GCSetPgColors@@UEAAPEAXI@Z 00000001400cdbbc f i SetPgColors.obj
 0001:000ccbfc       ?ColorSchemeSaveDelete@CSetPgColors@@QEAAXGE@Z 00000001400cdbfc f   SetPgColors.obj
 0001:000ccd04       ?GetPageType@CSetPgColors@@UEAA?AW4TabHwndIndex@@XZ 00000001400cdd04 f i SetPgColors.obj
 0001:000ccd0c       ?OnComboBox@CSetPgColors@@UEAA_JPEAUHWND__@@GG@Z 00000001400cdd0c f   SetPgColors.obj
 0001:000cd004       ?OnEditChanged@CSetPgColors@@UEAA_JPEAUHWND__@@G@Z 00000001400ce004 f   SetPgColors.obj
 0001:000cd13c       ?OnInitDialog@CSetPgColors@@UEAA_JPEAUHWND__@@_N@Z 00000001400ce13c f   SetPgColors.obj
 0001:000cd48c       ??$swprintf_c@$0BIE@@@YAHAEAY0BIE@_WPEB_WZZ 00000001400ce48c f i SetPgComspec.obj
 0001:000cd4b8       ??0CSetPgComspec@@QEAA@XZ  00000001400ce4b8 f   SetPgComspec.obj
 0001:000cd4dc       ??_ECSetPgComspec@@UEAAPEAXI@Z 00000001400ce4dc f i SetPgComspec.obj
 0001:000cd4dc       ??_GCSetPgComspec@@UEAAPEAXI@Z 00000001400ce4dc f i SetPgComspec.obj
 0001:000cd51c       ?GetPageType@CSetPgComspec@@UEAA?AW4TabHwndIndex@@XZ 00000001400ce51c f i SetPgComspec.obj
 0001:000cd524       ?LoadAutorunValue@CSetPgComspec@@QEAAPEA_WPEAUHKEY__@@_N@Z 00000001400ce524 f   SetPgComspec.obj
 0001:000cd6cc       ?OnEditChanged@CSetPgComspec@@UEAA_JPEAUHWND__@@G@Z 00000001400ce6cc f   SetPgComspec.obj
 0001:000cd700       ?OnInitDialog@CSetPgComspec@@UEAA_JPEAUHWND__@@_N@Z 00000001400ce700 f   SetPgComspec.obj
 0001:000cd7fc       ?RegisterCmdAutorun@CSetPgComspec@@QEAAX_N0@Z 00000001400ce7fc f   SetPgComspec.obj
 0001:000cda78       ?ReloadAutorun@CSetPgComspec@@QEAAXXZ 00000001400cea78 f   SetPgComspec.obj
 0001:000cdb68       ??0CSetPgConfirm@@QEAA@XZ  00000001400ceb68 f   SetPgConfirm.obj
 0001:000cdb8c       ??_GCSetPgConfirm@@UEAAPEAXI@Z 00000001400ceb8c f i SetPgConfirm.obj
 0001:000cdb8c       ??_ECSetPgConfirm@@UEAAPEAXI@Z 00000001400ceb8c f i SetPgConfirm.obj
 0001:000cdbcc       ?GetPageType@CSetPgConfirm@@UEAA?AW4TabHwndIndex@@XZ 00000001400cebcc f i SetPgConfirm.obj
 0001:000cdbd4       ?OnInitDialog@CSetPgConfirm@@UEAA_JPEAUHWND__@@_N@Z 00000001400cebd4 f   SetPgConfirm.obj
 0001:000cdd10       ??0CSetPgCursor@@QEAA@XZ   00000001400ced10 f   SetPgCursor.obj
 0001:000cdd34       ??_ECSetPgCursor@@UEAAPEAXI@Z 00000001400ced34 f i SetPgCursor.obj
 0001:000cdd34       ??_GCSetPgCursor@@UEAAPEAXI@Z 00000001400ced34 f i SetPgCursor.obj
 0001:000cdd74       ?GetPageType@CSetPgCursor@@UEAA?AW4TabHwndIndex@@XZ 00000001400ced74 f i SetPgCursor.obj
 0001:000cdd7c       ?InitCursorCtrls@CSetPgCursor@@SAXPEAUHWND__@@PEBUAppSettings@@@Z 00000001400ced7c f   SetPgCursor.obj
 0001:000cdf30       ?OnEditChanged@CSetPgCursor@@UEAA_JPEAUHWND__@@G@Z 00000001400cef30 f   SetPgCursor.obj
 0001:000cdf8c       ?OnEditChangedCursor@CSetPgCursor@@SA_NPEAUHWND__@@GPEAUAppSettings@@@Z 00000001400cef8c f   SetPgCursor.obj
 0001:000ce0b0       ?OnInitDialog@CSetPgCursor@@UEAA_JPEAUHWND__@@_N@Z 00000001400cf0b0 f   SetPgCursor.obj
 0001:000ce0d4       ??0CSetPgDebug@@QEAA@XZ    00000001400cf0d4 f   SetPgDebug.obj
 0001:000ce100       ??_ECSetPgDebug@@UEAAPEAXI@Z 00000001400cf100 f i SetPgDebug.obj
 0001:000ce100       ??_GCSetPgDebug@@UEAAPEAXI@Z 00000001400cf100 f i SetPgDebug.obj
 0001:000ce140       ?GetActivityLoggingType@CSetPgDebug@@SA?AW4GuiLoggingType@@XZ 00000001400cf140 f   SetPgDebug.obj
 0001:000ce164       ?GetPageType@CSetPgDebug@@UEAA?AW4TabHwndIndex@@XZ 00000001400cf164 f i SetPgDebug.obj
 0001:000ce16c       ?OnActivityLogNotify@CSetPgDebug@@QEAA_J_K_J@Z 00000001400cf16c f   SetPgDebug.obj
 0001:000ce37c       ?OnInitDialog@CSetPgDebug@@UEAA_JPEAUHWND__@@_N@Z 00000001400cf37c f   SetPgDebug.obj
 0001:000ce4b8       ?OnSaveActivityLogFile@CSetPgDebug@@QEAAXXZ 00000001400cf4b8 f   SetPgDebug.obj
 0001:000ce7c0       ?SetLoggingType@CSetPgDebug@@QEAAXW4GuiLoggingType@@@Z 00000001400cf7c0 f   SetPgDebug.obj
 0001:000cef70       ?debugLog@CSetPgDebug@@QEAAX_K_J@Z 00000001400cff70 f   SetPgDebug.obj
 0001:000cefc0       ?debugLogCommand@CSetPgDebug@@QEAAXPEAULogCommandsData@1@@Z 00000001400cffc0 f   SetPgDebug.obj
 0001:000cf244       ?debugLogCommand@CSetPgDebug@@SAXPEAUCESERVER_REQ@@HKKPEB_W0@Z 00000001400d0244 f   SetPgDebug.obj
 0001:000cf430       ?debugLogInfo@CSetPgDebug@@QEAAXPEAUCESERVER_REQ_PEEKREADINFO@@@Z 00000001400d0430 f   SetPgDebug.obj
 0001:000cfc3c       ?debugLogShell@CSetPgDebug@@QEAAXPEAUDebugLogShellActivity@1@@Z 00000001400d0c3c f   SetPgDebug.obj
 0001:000d00b8       ?debugLogShell@CSetPgDebug@@SAXKPEAUCESERVER_REQ_ONCREATEPROCESS@@@Z 00000001400d10b8 f   SetPgDebug.obj
 0001:000d0648       ?debugLogShellText@CSetPgDebug@@KAXAEAPEA_WPEB_W@Z 00000001400d1648 f   SetPgDebug.obj
 0001:000d0758       ?debugLogString@CSetPgDebug@@QEAAXPEAULogRConString@1@@Z 00000001400d1758 f   SetPgDebug.obj
 0001:000d08ec       ??0CSetPgDefTerm@@QEAA@XZ  00000001400d18ec f   SetPgDefTerm.obj
 0001:000d0910       ??_GCSetPgDefTerm@@UEAAPEAXI@Z 00000001400d1910 f i SetPgDefTerm.obj
 0001:000d0910       ??_ECSetPgDefTerm@@UEAAPEAXI@Z 00000001400d1910 f i SetPgDefTerm.obj
 0001:000d0950       ?GetPageType@CSetPgDefTerm@@UEAA?AW4TabHwndIndex@@XZ 00000001400d1950 f i SetPgDefTerm.obj
 0001:000d0958       ?OnEditChanged@CSetPgDefTerm@@UEAA_JPEAUHWND__@@G@Z 00000001400d1958 f   SetPgDefTerm.obj
 0001:000d09f0       ?OnInitDialog@CSetPgDefTerm@@UEAA_JPEAUHWND__@@_N@Z 00000001400d19f0 f   SetPgDefTerm.obj
 0001:000d0bb0       ??0CSetPgEnvironment@@QEAA@XZ 00000001400d1bb0 f   SetPgEnvironment.obj
 0001:000d0bd4       ??_ECSetPgEnvironment@@UEAAPEAXI@Z 00000001400d1bd4 f i SetPgEnvironment.obj
 0001:000d0bd4       ??_GCSetPgEnvironment@@UEAAPEAXI@Z 00000001400d1bd4 f i SetPgEnvironment.obj
 0001:000d0c14       ?GetPageType@CSetPgEnvironment@@UEAA?AW4TabHwndIndex@@XZ 00000001400d1c14 f i SetPgEnvironment.obj
 0001:000d0c1c       ?OnEditChanged@CSetPgEnvironment@@UEAA_JPEAUHWND__@@G@Z 00000001400d1c1c f   SetPgEnvironment.obj
 0001:000d0c78       ?OnInitDialog@CSetPgEnvironment@@UEAA_JPEAUHWND__@@_N@Z 00000001400d1c78 f   SetPgEnvironment.obj
 0001:000d0d10       ??0CSetPgFar@@QEAA@XZ      00000001400d1d10 f   SetPgFar.obj
 0001:000d0d34       ??_ECSetPgFar@@UEAAPEAXI@Z 00000001400d1d34 f i SetPgFar.obj
 0001:000d0d34       ??_GCSetPgFar@@UEAAPEAXI@Z 00000001400d1d34 f i SetPgFar.obj
 0001:000d0d74       ?GetPageType@CSetPgFar@@UEAA?AW4TabHwndIndex@@XZ 00000001400d1d74 f i SetPgFar.obj
 0001:000d0d7c       ?OnComboBox@CSetPgFar@@UEAA_JPEAUHWND__@@GG@Z 00000001400d1d7c f   SetPgFar.obj
 0001:000d0dd4       ?OnEditChanged@CSetPgFar@@UEAA_JPEAUHWND__@@G@Z 00000001400d1dd4 f   SetPgFar.obj
 0001:000d0ef8       ?OnInitDialog@CSetPgFar@@UEAA_JPEAUHWND__@@_N@Z 00000001400d1ef8 f   SetPgFar.obj
 0001:000d11dc       ??0CSetPgFarMacro@@QEAA@XZ 00000001400d21dc f   SetPgFarMacro.obj
 0001:000d1200       ??_GCSetPgFarMacro@@UEAAPEAXI@Z 00000001400d2200 f i SetPgFarMacro.obj
 0001:000d1200       ??_ECSetPgFarMacro@@UEAAPEAXI@Z 00000001400d2200 f i SetPgFarMacro.obj
 0001:000d1240       ?GetPageType@CSetPgFarMacro@@UEAA?AW4TabHwndIndex@@XZ 00000001400d2240 f i SetPgFarMacro.obj
 0001:000d1248       ?OnComboBox@CSetPgFarMacro@@UEAA_JPEAUHWND__@@GG@Z 00000001400d2248 f   SetPgFarMacro.obj
 0001:000d1320       ?OnInitDialog@CSetPgFarMacro@@UEAA_JPEAUHWND__@@_N@Z 00000001400d2320 f   SetPgFarMacro.obj
 0001:000d14e8       ??0CSetPgFeatures@@QEAA@XZ 00000001400d24e8 f   SetPgFeatures.obj
 0001:000d150c       ??_GCSetPgFeatures@@UEAAPEAXI@Z 00000001400d250c f i SetPgFeatures.obj
 0001:000d150c       ??_ECSetPgFeatures@@UEAAPEAXI@Z 00000001400d250c f i SetPgFeatures.obj
 0001:000d154c       ?GetPageType@CSetPgFeatures@@UEAA?AW4TabHwndIndex@@XZ 00000001400d254c f i SetPgFeatures.obj
 0001:000d1554       ?OnEditChanged@CSetPgFeatures@@UEAA_JPEAUHWND__@@G@Z 00000001400d2554 f   SetPgFeatures.obj
 0001:000d15b8       ?OnInitDialog@CSetPgFeatures@@UEAA_JPEAUHWND__@@_N@Z 00000001400d25b8 f   SetPgFeatures.obj
 0001:000d18ac       ?UpdateLogLocation@CSetPgFeatures@@IEAAXXZ 00000001400d28ac f   SetPgFeatures.obj
 0001:000d1954       ??0CSetPgFonts@@QEAA@XZ    00000001400d2954 f   SetPgFonts.obj
 0001:000d1978       ??_GCSetPgFonts@@UEAAPEAXI@Z 00000001400d2978 f i SetPgFonts.obj
 0001:000d1978       ??_ECSetPgFonts@@UEAAPEAXI@Z 00000001400d2978 f i SetPgFonts.obj
 0001:000d19b8       ?CopyFontsTo@CSetPgFonts@@QEAAXPEAUHWND__@@HZZ 00000001400d29b8 f   SetPgFonts.obj
 0001:000d1be0       ?OnComboBox@CSetPgFonts@@UEAA_JPEAUHWND__@@GG@Z 00000001400d2be0 f   SetPgFonts.obj
 0001:000d1db8       ?OnInitDialog@CSetPgFonts@@UEAA_JPEAUHWND__@@_N@Z 00000001400d2db8 f   SetPgFonts.obj
 0001:000d23c8       ??0CSetPgGeneral@@QEAA@XZ  00000001400d33c8 f   SetPgGeneral.obj
 0001:000d23fc       ??_GCSetPgGeneral@@UEAAPEAXI@Z 00000001400d33fc f i SetPgGeneral.obj
 0001:000d23fc       ??_ECSetPgGeneral@@UEAAPEAXI@Z 00000001400d33fc f i SetPgGeneral.obj
 0001:000d244c       ?ColorBoxProc@CSetPgGeneral@@KA_JPEAUHWND__@@I_K_J@Z 00000001400d344c f   SetPgGeneral.obj
 0001:000d2554       ?OnComboBox@CSetPgGeneral@@UEAA_JPEAUHWND__@@GG@Z 00000001400d3554 f   SetPgGeneral.obj
 0001:000d2718       ?OnInitDialog@CSetPgGeneral@@UEAA_JPEAUHWND__@@_N@Z 00000001400d3718 f   SetPgGeneral.obj
 0001:000d2ce0       ??0CSetPgHilight@@QEAA@XZ  00000001400d3ce0 f   SetPgHilight.obj
 0001:000d2d04       ??_ECSetPgHilight@@UEAAPEAXI@Z 00000001400d3d04 f i SetPgHilight.obj
 0001:000d2d04       ??_GCSetPgHilight@@UEAAPEAXI@Z 00000001400d3d04 f i SetPgHilight.obj
 0001:000d2d44       ?GetPageType@CSetPgHilight@@UEAA?AW4TabHwndIndex@@XZ 00000001400d3d44 f i SetPgHilight.obj
 0001:000d2d4c       ?OnComboBox@CSetPgHilight@@UEAA_JPEAUHWND__@@GG@Z 00000001400d3d4c f   SetPgHilight.obj
 0001:000d2ddc       ?OnInitDialog@CSetPgHilight@@UEAA_JPEAUHWND__@@_N@Z 00000001400d3ddc f   SetPgHilight.obj
 0001:000d2f34       ??0CSetPgInfo@@QEAA@XZ     00000001400d3f34 f   SetPgInfo.obj
 0001:000d2f58       ??_ECSetPgInfo@@UEAAPEAXI@Z 00000001400d3f58 f i SetPgInfo.obj
 0001:000d2f58       ??_GCSetPgInfo@@UEAAPEAXI@Z 00000001400d3f58 f i SetPgInfo.obj
 0001:000d2f98       ?FillConsoleMode@CSetPgInfo@@QEAAXPEAUHWND__@@PEAVCRealConsole@@@Z 00000001400d3f98 f   SetPgInfo.obj
 0001:000d30d0       ?FillCursorInfo@CSetPgInfo@@QEAAXPEAUHWND__@@PEBUConsoleInfoArg@@@Z 00000001400d40d0 f   SetPgInfo.obj
 0001:000d315c       ?FillFontInfo@CSetPgInfo@@QEAAXPEAUHWND__@@@Z 00000001400d415c f   SetPgInfo.obj
 0001:000d3290       ?GetPageType@CSetPgInfo@@UEAA?AW4TabHwndIndex@@XZ 00000001400d4290 f i SetPgInfo.obj
 0001:000d3298       ?OnInitDialog@CSetPgInfo@@UEAA_JPEAUHWND__@@_N@Z 00000001400d4298 f   SetPgInfo.obj
 0001:000d3390       ?OnPostLocalize@CSetPgInfo@@UEAAXPEAUHWND__@@@Z 00000001400d4390 f   SetPgInfo.obj
 0001:000d3414       ??$SafeDelete@USwitch@@@@YAXAEAPEAUSwitch@@@Z 00000001400d4414 f i SetPgIntegr.obj
 0001:000d3468       ??$wcscpy_c@$0IC@@@YAHAEAY0IC@_WPEB_W@Z 00000001400d4468 f i SetPgIntegr.obj
 0001:000d34b4       ??0CSetPgIntegr@@QEAA@XZ   00000001400d44b4 f   SetPgIntegr.obj
 0001:000d34d8       ??0SwitchParser@@QEAA@XZ   00000001400d44d8 f i SetPgIntegr.obj
 0001:000d3548       ??1SwitchParser@@QEAA@XZ   00000001400d4548 f i SetPgIntegr.obj
 0001:000d35b0       ??_GCSetPgIntegr@@UEAAPEAXI@Z 00000001400d45b0 f i SetPgIntegr.obj
 0001:000d35b0       ??_ECSetPgIntegr@@UEAAPEAXI@Z 00000001400d45b0 f i SetPgIntegr.obj
 0001:000d35f0       ?CreateCommand@SwitchParser@@QEAAPEB_WAEAUCEStr@@@Z 00000001400d45f0 f i SetPgIntegr.obj
 0001:000d37b8       ?FillHereValues@CSetPgIntegr@@IEAAXG@Z 00000001400d47b8 f   SetPgIntegr.obj
 0001:000d3ae8       ?GetNextPair@SwitchParser@@QEAAPEAUSwitch@@AEAPEB_W@Z 00000001400d4ae8 f i SetPgIntegr.obj
 0001:000d3b70       ?GetNextSwitch@SwitchParser@@QEAAPEAUSwitch@@AEAPEB_WAEAUCEStr@@@Z 00000001400d4b70 f i SetPgIntegr.obj
 0001:000d3c4c       ?GetPageType@CSetPgIntegr@@UEAA?AW4TabHwndIndex@@XZ 00000001400d4c4c f i SetPgIntegr.obj
 0001:000d3c54       ?IsIgnored@SwitchParser@@QEAA_NPEAUSwitch@@AEAV?$MArray@PEAUSwitch@@@@@Z 00000001400d4c54 f i SetPgIntegr.obj
 0001:000d3cd8       ?LoadCommand@SwitchParser@@QEAAXPEB_W@Z 00000001400d4cd8 f i SetPgIntegr.obj
 0001:000d4090       ?OnInitDialog@CSetPgIntegr@@UEAA_JPEAUHWND__@@_N@Z 00000001400d5090 f   SetPgIntegr.obj
 0001:000d42b0       ?PageDlgProc@CSetPgIntegr@@UEAA_JPEAUHWND__@@I_K_J@Z 00000001400d52b0 f   SetPgIntegr.obj
 0001:000d44c4       ?ParseStdSwitches@SwitchParser@@QEAAXXZ 00000001400d54c4 f i SetPgIntegr.obj
 0001:000d45c8       ?RegisterShell@CSetPgIntegr@@SAXPEB_W0000@Z 00000001400d55c8 f   SetPgIntegr.obj
 0001:000d4aa4       ?ReleaseVectors@SwitchParser@@QEAAXXZ 00000001400d5aa4 f i SetPgIntegr.obj
 0001:000d4b1c       ?ReloadHereList@CSetPgIntegr@@IEAA_NPEAH0@Z 00000001400d5b1c f   SetPgIntegr.obj
 0001:000d4f54       ?ShellIntegration@CSetPgIntegr@@QEAAXPEAUHWND__@@W4ShellIntegrType@1@_N2@Z 00000001400d5f54 f   SetPgIntegr.obj
 0001:000d5244       ?UnregisterShell@CSetPgIntegr@@SAXPEB_W@Z 00000001400d6244 f   SetPgIntegr.obj
 0001:000d52d0       ?UnregisterShellInvalids@CSetPgIntegr@@SAXXZ 00000001400d62d0 f   SetPgIntegr.obj
 0001:000d55b0       ??0CSetPgKeyboard@@QEAA@XZ 00000001400d65b0 f   SetPgKeyboard.obj
 0001:000d55d4       ??_GCSetPgKeyboard@@UEAAPEAXI@Z 00000001400d65d4 f i SetPgKeyboard.obj
 0001:000d55d4       ??_ECSetPgKeyboard@@UEAAPEAXI@Z 00000001400d65d4 f i SetPgKeyboard.obj
 0001:000d5614       ?GetPageType@CSetPgKeyboard@@UEAA?AW4TabHwndIndex@@XZ 00000001400d6614 f i SetPgKeyboard.obj
 0001:000d561c       ?OnInitDialog@CSetPgKeyboard@@UEAA_JPEAUHWND__@@_N@Z 00000001400d661c f   SetPgKeyboard.obj
 0001:000d57ec       ??0CSetPgKeys@@QEAA@XZ     00000001400d67ec f   SetPgKeys.obj
 0001:000d5828       ??1CSetPgKeys@@UEAA@XZ     00000001400d6828 f   SetPgKeys.obj
 0001:000d5854       ??_GCSetPgKeys@@UEAAPEAXI@Z 00000001400d6854 f i SetPgKeys.obj
 0001:000d5854       ??_ECSetPgKeys@@UEAAPEAXI@Z 00000001400d6854 f i SetPgKeys.obj
 0001:000d5888       ?FillHotKeysList@CSetPgKeys@@QEAAXPEAUHWND__@@_N@Z 00000001400d6888 f   SetPgKeys.obj
 0001:000d5d9c       ?GetPageType@CSetPgKeys@@UEAA?AW4TabHwndIndex@@XZ 00000001400d6d9c f i SetPgKeys.obj
 0001:000d5da4       ?HotkeysCompare@CSetPgKeys@@SAH_J00@Z 00000001400d6da4 f   SetPgKeys.obj
 0001:000d5f34       ?OnButtonClicked@CSetPgKeys@@UEAA_JPEAUHWND__@@0G@Z 00000001400d6f34 f   SetPgKeys.obj
 0001:000d5f5c       ?OnComboBox@CSetPgKeys@@UEAA_JPEAUHWND__@@GG@Z 00000001400d6f5c f   SetPgKeys.obj
 0001:000d6284       ?OnEditChanged@CSetPgKeys@@UEAA_JPEAUHWND__@@G@Z 00000001400d7284 f   SetPgKeys.obj
 0001:000d63d8       ?OnHotkeysNotify@CSetPgKeys@@QEAA_JPEAUHWND__@@_K_J@Z 00000001400d73d8 f   SetPgKeys.obj
 0001:000d68fc       ?OnInitDialog@CSetPgKeys@@UEAA_JPEAUHWND__@@_N@Z 00000001400d78fc f   SetPgKeys.obj
 0001:000d6c30       ?PageDlgProc@CSetPgKeys@@UEAA_JPEAUHWND__@@I_K_J@Z 00000001400d7c30 f   SetPgKeys.obj
 0001:000d6d24       ?QueryDialogCancel@CSetPgKeys@@UEAA_NXZ 00000001400d7d24 f   SetPgKeys.obj
 0001:000d6d98       ?ReInitHotkeys@CSetPgKeys@@SAXXZ 00000001400d7d98 f   SetPgKeys.obj
 0001:000d6df4       ?RefilterHotkeys@CSetPgKeys@@QEAAX_N@Z 00000001400d7df4 f   SetPgKeys.obj
 0001:000d6e24       ??0CSetPgMarkCopy@@QEAA@XZ 00000001400d7e24 f   SetPgMarkCopy.obj
 0001:000d6e4c       ??_ECSetPgMarkCopy@@UEAAPEAXI@Z 00000001400d7e4c f i SetPgMarkCopy.obj
 0001:000d6e4c       ??_GCSetPgMarkCopy@@UEAAPEAXI@Z 00000001400d7e4c f i SetPgMarkCopy.obj
 0001:000d6e8c       ?GetPageType@CSetPgMarkCopy@@UEAA?AW4TabHwndIndex@@XZ 00000001400d7e8c f i SetPgMarkCopy.obj
 0001:000d6e94       ?MarkCopyPreviewProc@CSetPgMarkCopy@@KA_JPEAUHWND__@@I_K_J@Z 00000001400d7e94 f   SetPgMarkCopy.obj
 0001:000d7184       ?OnComboBox@CSetPgMarkCopy@@UEAA_JPEAUHWND__@@GG@Z 00000001400d8184 f   SetPgMarkCopy.obj
 0001:000d7344       ?OnEditChanged@CSetPgMarkCopy@@UEAA_JPEAUHWND__@@G@Z 00000001400d8344 f   SetPgMarkCopy.obj
 0001:000d7388       ?OnInitDialog@CSetPgMarkCopy@@UEAA_JPEAUHWND__@@_N@Z 00000001400d8388 f   SetPgMarkCopy.obj
 0001:000d77b8       ??0CSetPgMouse@@QEAA@XZ    00000001400d87b8 f   SetPgMouse.obj
 0001:000d77dc       ??_GCSetPgMouse@@UEAAPEAXI@Z 00000001400d87dc f i SetPgMouse.obj
 0001:000d77dc       ??_ECSetPgMouse@@UEAAPEAXI@Z 00000001400d87dc f i SetPgMouse.obj
 0001:000d781c       ?GetPageType@CSetPgMouse@@UEAA?AW4TabHwndIndex@@XZ 00000001400d881c f i SetPgMouse.obj
 0001:000d7824       ?OnComboBox@CSetPgMouse@@UEAA_JPEAUHWND__@@GG@Z 00000001400d8824 f   SetPgMouse.obj
 0001:000d7904       ?OnInitDialog@CSetPgMouse@@UEAA_JPEAUHWND__@@_N@Z 00000001400d8904 f   SetPgMouse.obj
 0001:000d7aa8       ?OnPostLocalize@CSetPgMouse@@UEAAXPEAUHWND__@@@Z 00000001400d8aa8 f   SetPgMouse.obj
 0001:000d7ad8       ??0CSetPgPaste@@QEAA@XZ    00000001400d8ad8 f   SetPgPaste.obj
 0001:000d7afc       ??_ECSetPgPaste@@UEAAPEAXI@Z 00000001400d8afc f i SetPgPaste.obj
 0001:000d7afc       ??_GCSetPgPaste@@UEAAPEAXI@Z 00000001400d8afc f i SetPgPaste.obj
 0001:000d7b3c       ?GetPageType@CSetPgPaste@@UEAA?AW4TabHwndIndex@@XZ 00000001400d8b3c f i SetPgPaste.obj
 0001:000d7b44       ?OnBtn_AutoTrimSingleLine@CSetPgPaste@@SAXPEAUHWND__@@GE@Z 00000001400d8b44 f   SetPgPaste.obj
 0001:000d7b58       ?OnBtn_ClipConfirmEnter@CSetPgPaste@@SAXPEAUHWND__@@GE@Z 00000001400d8b58 f   SetPgPaste.obj
 0001:000d7b6c       ?OnBtn_ClipConfirmLimit@CSetPgPaste@@SAXPEAUHWND__@@GE@Z 00000001400d8b6c f   SetPgPaste.obj
 0001:000d7bec       ?OnBtn_ClipCtrlV@CSetPgPaste@@SAXPEAUHWND__@@GE@Z 00000001400d8bec f   SetPgPaste.obj
 0001:000d7c44       ?OnBtn_ClipPosixCvt@CSetPgPaste@@SAXPEAUHWND__@@GE@Z 00000001400d8c44 f   SetPgPaste.obj
 0001:000d7c84       ?OnBtn_ClipShiftIns@CSetPgPaste@@SAXPEAUHWND__@@GE@Z 00000001400d8c84 f   SetPgPaste.obj
 0001:000d7cdc       ?OnEditChanged@CSetPgPaste@@UEAA_JPEAUHWND__@@G@Z 00000001400d8cdc f   SetPgPaste.obj
 0001:000d7d98       ?OnInitDialog@CSetPgPaste@@UEAA_JPEAUHWND__@@_N@Z 00000001400d8d98 f   SetPgPaste.obj
 0001:000d7ef0       ?OnPostLocalize@CSetPgPaste@@UEAAXPEAUHWND__@@@Z 00000001400d8ef0 f   SetPgPaste.obj
 0001:000d7f50       ??0CSetPgQuake@@QEAA@XZ    00000001400d8f50 f   SetPgQuake.obj
 0001:000d7f74       ??_GCSetPgQuake@@UEAAPEAXI@Z 00000001400d8f74 f i SetPgQuake.obj
 0001:000d7f74       ??_ECSetPgQuake@@UEAAPEAXI@Z 00000001400d8f74 f i SetPgQuake.obj
 0001:000d7fb4       ?GetPageType@CSetPgQuake@@UEAA?AW4TabHwndIndex@@XZ 00000001400d8fb4 f i SetPgQuake.obj
 0001:000d7fbc       ?OnEditChanged@CSetPgQuake@@UEAA_JPEAUHWND__@@G@Z 00000001400d8fbc f   SetPgQuake.obj
 0001:000d8100       ?OnInitDialog@CSetPgQuake@@UEAA_JPEAUHWND__@@_N@Z 00000001400d9100 f   SetPgQuake.obj
 0001:000d825c       ??0CSetPgSizePos@@QEAA@XZ  00000001400d925c f   SetPgSizePos.obj
 0001:000d8280       ??_ECSetPgSizePos@@UEAAPEAXI@Z 00000001400d9280 f i SetPgSizePos.obj
 0001:000d8280       ??_GCSetPgSizePos@@UEAAPEAXI@Z 00000001400d9280 f i SetPgSizePos.obj
 0001:000d82c0       ?EnablePosSizeControls@CSetPgSizePos@@QEAAXPEAUHWND__@@@Z 00000001400d92c0 f   SetPgSizePos.obj
 0001:000d838c       ?FillSizeControls@CSetPgSizePos@@QEAAXPEAUHWND__@@@Z 00000001400d938c f   SetPgSizePos.obj
 0001:000d84cc       ?GetPageType@CSetPgSizePos@@UEAA?AW4TabHwndIndex@@XZ 00000001400d94cc f i SetPgSizePos.obj
 0001:000d84d4       ?OnComboBox@CSetPgSizePos@@UEAA_JPEAUHWND__@@GG@Z 00000001400d94d4 f   SetPgSizePos.obj
 0001:000d8544       ?OnEditChanged@CSetPgSizePos@@UEAA_JPEAUHWND__@@G@Z 00000001400d9544 f   SetPgSizePos.obj
 0001:000d87f8       ?OnInitDialog@CSetPgSizePos@@UEAA_JPEAUHWND__@@_N@Z 00000001400d97f8 f   SetPgSizePos.obj
 0001:000d8c54       ?OnPostLocalize@CSetPgSizePos@@UEAAXPEAUHWND__@@@Z 00000001400d9c54 f   SetPgSizePos.obj
 0001:000d8d00       ??0CSetPgStartup@@QEAA@XZ  00000001400d9d00 f   SetPgStartup.obj
 0001:000d8d24       ??_ECSetPgStartup@@UEAAPEAXI@Z 00000001400d9d24 f i SetPgStartup.obj
 0001:000d8d24       ??_GCSetPgStartup@@UEAAPEAXI@Z 00000001400d9d24 f i SetPgStartup.obj
 0001:000d8d64       ?GetPageType@CSetPgStartup@@UEAA?AW4TabHwndIndex@@XZ 00000001400d9d64 f i SetPgStartup.obj
 0001:000d8d6c       ?OnInitDialog@CSetPgStartup@@UEAA_JPEAUHWND__@@_N@Z 00000001400d9d6c f   SetPgStartup.obj
 0001:000d8d90       ?PageDlgProc@CSetPgStartup@@UEAA_JPEAUHWND__@@I_K_J@Z 00000001400d9d90 f   SetPgStartup.obj
 0001:000d95c8       ??0CSetPgStatus@@QEAA@XZ   00000001400da5c8 f   SetPgStatus.obj
 0001:000d95ec       ??_GCSetPgStatus@@UEAAPEAXI@Z 00000001400da5ec f i SetPgStatus.obj
 0001:000d95ec       ??_ECSetPgStatus@@UEAAPEAXI@Z 00000001400da5ec f i SetPgStatus.obj
 0001:000d962c       ?GetPageType@CSetPgStatus@@UEAA?AW4TabHwndIndex@@XZ 00000001400da62c f i SetPgStatus.obj
 0001:000d9634       ?OnComboBox@CSetPgStatus@@UEAA_JPEAUHWND__@@GG@Z 00000001400da634 f   SetPgStatus.obj
 0001:000d97c4       ?OnEditChanged@CSetPgStatus@@UEAA_JPEAUHWND__@@G@Z 00000001400da7c4 f   SetPgStatus.obj
 0001:000d9870       ?OnInitDialog@CSetPgStatus@@UEAA_JPEAUHWND__@@_N@Z 00000001400da870 f   SetPgStatus.obj
 0001:000d9a54       ?UpdateStatusItems@CSetPgStatus@@QEAAXPEAUHWND__@@@Z 00000001400daa54 f   SetPgStatus.obj
 0001:000d9bf8       ??0CSetPgTabs@@QEAA@XZ     00000001400dabf8 f   SetPgTabs.obj
 0001:000d9c1c       ??_GCSetPgTabs@@UEAAPEAXI@Z 00000001400dac1c f i SetPgTabs.obj
 0001:000d9c1c       ??_ECSetPgTabs@@UEAAPEAXI@Z 00000001400dac1c f i SetPgTabs.obj
 0001:000d9c5c       ?GetPageType@CSetPgTabs@@UEAA?AW4TabHwndIndex@@XZ 00000001400dac5c f i SetPgTabs.obj
 0001:000d9c64       ?OnComboBox@CSetPgTabs@@UEAA_JPEAUHWND__@@GG@Z 00000001400dac64 f   SetPgTabs.obj
 0001:000d9eb0       ?OnEditChanged@CSetPgTabs@@UEAA_JPEAUHWND__@@G@Z 00000001400daeb0 f   SetPgTabs.obj
 0001:000da0ec       ?OnInitDialog@CSetPgTabs@@UEAA_JPEAUHWND__@@_N@Z 00000001400db0ec f   SetPgTabs.obj
 0001:000da454       ??0CSetPgTaskbar@@QEAA@XZ  00000001400db454 f   SetPgTaskbar.obj
 0001:000da478       ??_GCSetPgTaskbar@@UEAAPEAXI@Z 00000001400db478 f i SetPgTaskbar.obj
 0001:000da478       ??_ECSetPgTaskbar@@UEAAPEAXI@Z 00000001400db478 f i SetPgTaskbar.obj
 0001:000da4b8       ?GetPageType@CSetPgTaskbar@@UEAA?AW4TabHwndIndex@@XZ 00000001400db4b8 f i SetPgTaskbar.obj
 0001:000da4c0       ?OnInitDialog@CSetPgTaskbar@@UEAA_JPEAUHWND__@@_N@Z 00000001400db4c0 f   SetPgTaskbar.obj
 0001:000da824       ??0CSetPgTasks@@QEAA@XZ    00000001400db824 f   SetPgTasks.obj
 0001:000da84c       ??_GCSetPgTasks@@UEAAPEAXI@Z 00000001400db84c f i SetPgTasks.obj
 0001:000da84c       ??_ECSetPgTasks@@UEAAPEAXI@Z 00000001400db84c f i SetPgTasks.obj
 0001:000da88c       ?GetPageType@CSetPgTasks@@UEAA?AW4TabHwndIndex@@XZ 00000001400db88c f i SetPgTasks.obj
 0001:000da894       ?OnComboBox@CSetPgTasks@@UEAA_JPEAUHWND__@@GG@Z 00000001400db894 f   SetPgTasks.obj
 0001:000dab0c       ?OnEditChanged@CSetPgTasks@@UEAA_JPEAUHWND__@@G@Z 00000001400dbb0c f   SetPgTasks.obj
 0001:000dacf8       ?OnInitDialog@CSetPgTasks@@UEAA_JPEAUHWND__@@_N@Z 00000001400dbcf8 f   SetPgTasks.obj
 0001:000daf5c       ?SelectNextItem@CSetPgTasks@@UEAA_N_N0@Z 00000001400dbf5c f   SetPgTasks.obj
 0001:000db000       ??0CSetPgTransparent@@QEAA@XZ 00000001400dc000 f   SetPgTransparent.obj
 0001:000db024       ??_ECSetPgTransparent@@UEAAPEAXI@Z 00000001400dc024 f i SetPgTransparent.obj
 0001:000db024       ??_GCSetPgTransparent@@UEAAPEAXI@Z 00000001400dc024 f i SetPgTransparent.obj
 0001:000db064       ?GetPageType@CSetPgTransparent@@UEAA?AW4TabHwndIndex@@XZ 00000001400dc064 f i SetPgTransparent.obj
 0001:000db06c       ?OnInitDialog@CSetPgTransparent@@UEAA_JPEAUHWND__@@_N@Z 00000001400dc06c f   SetPgTransparent.obj
 0001:000db24c       ??0CSetPgUpdate@@QEAA@XZ   00000001400dc24c f   SetPgUpdate.obj
 0001:000db270       ??_GCSetPgUpdate@@UEAAPEAXI@Z 00000001400dc270 f i SetPgUpdate.obj
 0001:000db270       ??_ECSetPgUpdate@@UEAAPEAXI@Z 00000001400dc270 f i SetPgUpdate.obj
 0001:000db2b0       ?GetPageType@CSetPgUpdate@@UEAA?AW4TabHwndIndex@@XZ 00000001400dc2b0 f i SetPgUpdate.obj
 0001:000db2b8       ?OnEditChanged@CSetPgUpdate@@UEAA_JPEAUHWND__@@G@Z 00000001400dc2b8 f   SetPgUpdate.obj
 0001:000db3bc       ?OnInitDialog@CSetPgUpdate@@UEAA_JPEAUHWND__@@_N@Z 00000001400dc3bc f   SetPgUpdate.obj
 0001:000db68c       ??0CSetPgViews@@QEAA@XZ    00000001400dc68c f   SetPgViews.obj
 0001:000db6b0       ??_ECSetPgViews@@UEAAPEAXI@Z 00000001400dc6b0 f i SetPgViews.obj
 0001:000db6b0       ??_GCSetPgViews@@UEAAPEAXI@Z 00000001400dc6b0 f i SetPgViews.obj
 0001:000db6f0       ?GetPageType@CSetPgViews@@UEAA?AW4TabHwndIndex@@XZ 00000001400dc6f0 f i SetPgViews.obj
 0001:000db6f8       ?OnComboBox@CSetPgViews@@UEAA_JPEAUHWND__@@GG@Z 00000001400dc6f8 f   SetPgViews.obj
 0001:000db978       ?OnEditChanged@CSetPgViews@@UEAA_JPEAUHWND__@@G@Z 00000001400dc978 f   SetPgViews.obj
 0001:000dbba8       ?OnInitDialog@CSetPgViews@@UEAA_JPEAUHWND__@@_N@Z 00000001400dcba8 f   SetPgViews.obj
 0001:000dc124       ??$SafeDelete@V?$xml_document@D@rapidxml@@@@YAXAEAPEAV?$xml_document@D@rapidxml@@@Z 00000001400dd124 f i SettingsStorage.obj
 0001:000dc170       ??$_Emplace_reallocate@D@?$vector@DV?$MArrayAllocator@D@@@std@@QEAAPEADQEAD$$QEAD@Z 00000001400dd170 f i SettingsStorage.obj
 0001:000dcbfc       ??$insert_coded_character@$0GA@@?$xml_document@D@rapidxml@@CAXAEAPEADK@Z 00000001400ddbfc f i SettingsStorage.obj
 0001:000dccdc       ??$parse@$0GA@@?$xml_document@D@rapidxml@@QEAAXPEAD@Z 00000001400ddcdc f i SettingsStorage.obj
 0001:000dcdf4       ??$parse_and_append_data@$0GA@@?$xml_document@D@rapidxml@@AEAADPEAV?$xml_node@D@1@AEAPEADPEAD@Z 00000001400dddf4 f i SettingsStorage.obj
 0001:000dcecc       ??$parse_cdata@$0GA@@?$xml_document@D@rapidxml@@AEAAPEAV?$xml_node@D@1@AEAPEAD@Z 00000001400ddecc f i SettingsStorage.obj
 0001:000dcf74       ??$parse_comment@$0GA@@?$xml_document@D@rapidxml@@AEAAPEAV?$xml_node@D@1@AEAPEAD@Z 00000001400ddf74 f i SettingsStorage.obj
 0001:000dd01c       ??$parse_doctype@$0GA@@?$xml_document@D@rapidxml@@AEAAPEAV?$xml_node@D@1@AEAPEAD@Z 00000001400de01c f i SettingsStorage.obj
 0001:000dd0b8       ??$parse_element@$0GA@@?$xml_document@D@rapidxml@@AEAAPEAV?$xml_node@D@1@AEAPEAD@Z 00000001400de0b8 f i SettingsStorage.obj
 0001:000dd23c       ??$parse_node@$0GA@@?$xml_document@D@rapidxml@@AEAAPEAV?$xml_node@D@1@AEAPEAD@Z 00000001400de23c f i SettingsStorage.obj
 0001:000dd418       ??$parse_node_attributes@$0GA@@?$xml_document@D@rapidxml@@AEAAXAEAPEADPEAV?$xml_node@D@1@@Z 00000001400de418 f i SettingsStorage.obj
 0001:000dd668       ??$parse_node_contents@$0GA@@?$xml_document@D@rapidxml@@AEAAXAEAPEADPEAV?$xml_node@D@1@@Z 00000001400de668 f i SettingsStorage.obj
 0001:000dd7cc       ??$parse_xml_declaration@$0GA@@?$xml_document@D@rapidxml@@AEAAPEAV?$xml_node@D@1@AEAPEAD@Z 00000001400de7cc f i SettingsStorage.obj
 0001:000def48       ??$skip_and_expand_character_refs@U?$attribute_value_pred@$0CC@@?$xml_document@D@rapidxml@@U?$attribute_value_pure_pred@$0CC@@23@$0GA@@?$xml_document@D@rapidxml@@CAPEADAEAPEAD@Z 00000001400dff48 f i SettingsStorage.obj
 0001:000df148       ??$skip_and_expand_character_refs@U?$attribute_value_pred@$0CH@@?$xml_document@D@rapidxml@@U?$attribute_value_pure_pred@$0CH@@23@$0GA@@?$xml_document@D@rapidxml@@CAPEADAEAPEAD@Z 00000001400e0148 f i SettingsStorage.obj
 0001:000df348       ??$skip_and_expand_character_refs@Utext_pred@?$xml_document@D@rapidxml@@Utext_pure_no_ws_pred@23@$0GA@@?$xml_document@D@rapidxml@@CAPEADAEAPEAD@Z 00000001400e0348 f i SettingsStorage.obj
 0001:000df548       ??$sprintf_c@$03@@YAHAEAY03DPEBDZZ 00000001400e0548 f i SettingsStorage.obj
 0001:000df5d8       ??0SettingsINI@@QEAA@AEBUSettingsStorage@@@Z 00000001400e05d8 f   SettingsStorage.obj
 0001:000df624       ??0SettingsRegistry@@QEAA@XZ 00000001400e0624 f   SettingsStorage.obj
 0001:000df668       ??0SettingsXML@@QEAA@AEBUSettingsStorage@@@Z 00000001400e0668 f   SettingsStorage.obj
 0001:000df6c4       ??0parse_error@rapidxml@@QEAA@AEBV01@@Z 00000001400e06c4 f i SettingsStorage.obj
 0001:000df71c       ??0parse_error@rapidxml@@QEAA@PEBDPEAX@Z 00000001400e071c f i SettingsStorage.obj
 0001:000df77c       ??1SettingsINI@@UEAA@XZ    00000001400e077c f   SettingsStorage.obj
 0001:000df7a4       ??1SettingsRegistry@@UEAA@XZ 00000001400e07a4 f   SettingsStorage.obj
 0001:000df7cc       ??1SettingsXML@@UEAA@XZ    00000001400e07cc f   SettingsStorage.obj
 0001:000df838       ??_ESettingsBase@@UEAAPEAXI@Z 00000001400e0838 f i SettingsStorage.obj
 0001:000df838       ??_GSettingsBase@@UEAAPEAXI@Z 00000001400e0838 f i SettingsStorage.obj
 0001:000df864       ??_GSettingsINI@@UEAAPEAXI@Z 00000001400e0864 f i SettingsStorage.obj
 0001:000df864       ??_ESettingsINI@@UEAAPEAXI@Z 00000001400e0864 f i SettingsStorage.obj
 0001:000df898       ??_GSettingsRegistry@@UEAAPEAXI@Z 00000001400e0898 f i SettingsStorage.obj
 0001:000df898       ??_ESettingsRegistry@@UEAAPEAXI@Z 00000001400e0898 f i SettingsStorage.obj
 0001:000df8cc       ??_ESettingsXML@@UEAAPEAXI@Z 00000001400e08cc f i SettingsStorage.obj
 0001:000df8cc       ??_GSettingsXML@@UEAAPEAXI@Z 00000001400e08cc f i SettingsStorage.obj
 0001:000df900       ??_E_System_error@std@@UEAAPEAXI@Z 00000001400e0900 f i libcpmt:thread0.obj
 0001:000df900       ??_Gparse_error@rapidxml@@UEAAPEAXI@Z 00000001400e0900 f i SettingsStorage.obj
 0001:000df900       ??_G_System_error@std@@UEAAPEAXI@Z 00000001400e0900 f i libcpmt:thread0.obj
 0001:000df900       ??_Esystem_error@std@@UEAAPEAXI@Z 00000001400e0900 f i libcpmt:thread0.obj
 0001:000df900       ??_Eparse_error@rapidxml@@UEAAPEAXI@Z 00000001400e0900 f i SettingsStorage.obj
 0001:000df900       ??_Gsystem_error@std@@UEAAPEAXI@Z 00000001400e0900 f i libcpmt:thread0.obj
 0001:000df944       ?ClearChildrenTail@SettingsXML@@IEAAXPEAV?$xml_node@D@rapidxml@@0PEBD@Z 00000001400e0944 f   SettingsStorage.obj
 0001:000df9b8       ?CloseKey@SettingsINI@@UEAAXXZ 00000001400e09b8 f   SettingsStorage.obj
 0001:000df9dc       ?CloseKey@SettingsRegistry@@UEAAXXZ 00000001400e09dc f   SettingsStorage.obj
 0001:000dfa00       ?CloseKey@SettingsXML@@UEAAXXZ 00000001400e0a00 f   SettingsStorage.obj
 0001:000dfa2c       ?CloseStorage@SettingsXML@@IEAAXXZ 00000001400e0a2c f   SettingsStorage.obj
 0001:000dfce0       ?ConvertData@SettingsXML@@SA_NPEBD0PEAEK@Z 00000001400e0ce0 f   SettingsStorage.obj
 0001:000dff18       ?Delete@SettingsINI@@UEAAXPEB_W@Z 00000001400e0f18 f   SettingsStorage.obj
 0001:000dff54       ?Delete@SettingsRegistry@@UEAAXPEB_W@Z 00000001400e0f54 f   SettingsStorage.obj
 0001:000dff60       ?Delete@SettingsXML@@UEAAXPEB_W@Z 00000001400e0f60 f   SettingsStorage.obj
 0001:000dff6c       ?DeleteImpl@SettingsXML@@IEAAXPEB_W0@Z 00000001400e0f6c f   SettingsStorage.obj
 0001:000dffac       ?DeleteKey@SettingsRegistry@@UEAAXPEB_W@Z 00000001400e0fac f   SettingsStorage.obj
 0001:000dffb8       ?DeleteKey@SettingsXML@@UEAAXPEB_W@Z 00000001400e0fb8 f   SettingsStorage.obj
 0001:000dffc4       ?FindItem@SettingsXML@@IEAAPEAV?$xml_node@D@rapidxml@@PEAV23@PEB_W1_N@Z 00000001400e0fc4 f   SettingsStorage.obj
 0001:000e01b0       ?GetAttr@SettingsXML@@IEAAPEBDPEAV?$xml_node@D@rapidxml@@PEBD@Z 00000001400e11b0 f   SettingsStorage.obj
 0001:000e0200       ?Load@SettingsBase@@QEAA_NPEB_WAEAD@Z 00000001400e1200 f   SettingsStorage.obj
 0001:000e0200       ?Load@SettingsBase@@QEAA_NPEB_WAEAE@Z 00000001400e1200 f   SettingsStorage.obj
 0001:000e0210       ?Load@SettingsBase@@QEAA_NPEB_WAEAK@Z 00000001400e1210 f   SettingsStorage.obj
 0001:000e0210       ?Load@SettingsBase@@QEAA_NPEB_WAEAJ@Z 00000001400e1210 f   SettingsStorage.obj
 0001:000e0210       ?Load@SettingsBase@@QEAA_NPEB_WAEAI@Z 00000001400e1210 f   SettingsStorage.obj
 0001:000e0210       ?Load@SettingsBase@@QEAA_NPEB_WAEAH@Z 00000001400e1210 f   SettingsStorage.obj
 0001:000e0220       ?Load@SettingsBase@@QEAA_NPEB_WAEAUtagRECT@@@Z 00000001400e1220 f   SettingsStorage.obj
 0001:000e0320       ?Load@SettingsBase@@QEAA_NPEB_WAEA_N@Z 00000001400e1320 f   SettingsStorage.obj
 0001:000e0354       ?Load@SettingsRegistry@@UEAA_NPEB_WPEAEK@Z 00000001400e1354 f   SettingsStorage.obj
 0001:000e03f0       ?Load@SettingsRegistry@@UEAA_NPEB_WPEAPEA_W@Z 00000001400e13f0 f   SettingsStorage.obj
 0001:000e04b8       ?Load@SettingsRegistry@@UEAA_NPEB_WPEA_WH@Z 00000001400e14b8 f   SettingsStorage.obj
 0001:000e055c       ?Load@SettingsXML@@UEAA_NPEB_WPEAEK@Z 00000001400e155c f   SettingsStorage.obj
 0001:000e0648       ?Load@SettingsXML@@UEAA_NPEB_WPEAPEA_W@Z 00000001400e1648 f   SettingsStorage.obj
 0001:000e0904       ?Load@SettingsXML@@UEAA_NPEB_WPEA_WH@Z 00000001400e1904 f   SettingsStorage.obj
 0001:000e097c       ?OpenKey@SettingsINI@@UEAA_NPEB_WIH@Z 00000001400e197c f   SettingsStorage.obj
 0001:000e0b98       ?OpenKey@SettingsRegistry@@QEAA_NPEAUHKEY__@@PEB_WIH@Z 00000001400e1b98 f   SettingsStorage.obj
 0001:000e0bfc       ?OpenKey@SettingsRegistry@@UEAA_NPEB_WIH@Z 00000001400e1bfc f   SettingsStorage.obj
 0001:000e0c1c       ?OpenKey@SettingsXML@@UEAA_NPEB_WIH@Z 00000001400e1c1c f   SettingsStorage.obj
 0001:000e0e6c       ?OpenStorage@SettingsXML@@IEAA_NIAEAPEA_W@Z 00000001400e1e6c f   SettingsStorage.obj
 0001:000e125c       ?Save@SettingsBase@@QEAAXPEB_W0@Z 00000001400e225c f   SettingsStorage.obj
 0001:000e12a0       ?Save@SettingsBase@@QEAAXPEB_WAEBD@Z 00000001400e22a0 f   SettingsStorage.obj
 0001:000e12a0       ?Save@SettingsBase@@QEAAXPEB_WAEB_N@Z 00000001400e22a0 f   SettingsStorage.obj
 0001:000e12a0       ?Save@SettingsBase@@QEAAXPEB_WAEBE@Z 00000001400e22a0 f   SettingsStorage.obj
 0001:000e12cc       ?Save@SettingsBase@@QEAAXPEB_WAEBJ@Z 00000001400e22cc f   SettingsStorage.obj
 0001:000e12cc       ?Save@SettingsBase@@QEAAXPEB_WAEBH@Z 00000001400e22cc f   SettingsStorage.obj
 0001:000e12ec       ?Save@SettingsBase@@QEAAXPEB_WAEBI@Z 00000001400e22ec f   SettingsStorage.obj
 0001:000e130c       ?Save@SettingsBase@@QEAAXPEB_WAEBK@Z 00000001400e230c f   SettingsStorage.obj
 0001:000e1328       ?Save@SettingsBase@@QEAAXPEB_WAEBUtagRECT@@@Z 00000001400e2328 f   SettingsStorage.obj
 0001:000e13a8       ?Save@SettingsRegistry@@UEAAXPEB_WPEBEKK@Z 00000001400e23a8 f   SettingsStorage.obj
 0001:000e13e4       ?Save@SettingsXML@@UEAAXPEB_WPEBEKK@Z 00000001400e23e4 f   SettingsStorage.obj
 0001:000e18c8       ?SaveMSZ@SettingsBase@@QEAAXPEB_W0K@Z 00000001400e28c8 f   SettingsStorage.obj
 0001:000e18fc       ?SetAttr@SettingsXML@@IEAA_NPEAV?$xml_node@D@rapidxml@@PEBD1@Z 00000001400e28fc f   SettingsStorage.obj
 0001:000e1a4c       ?SetAttr@SettingsXML@@IEAA_NPEAV?$xml_node@D@rapidxml@@PEBDPEB_W@Z 00000001400e2a4c f   SettingsStorage.obj
 0001:000e1aa0       ?SetMultiLine@SettingsXML@@IEAA_NPEAV?$xml_node@D@rapidxml@@PEB_WJ@Z 00000001400e2aa0 f   SettingsStorage.obj
 0001:000e1c48       ?TouchKey@SettingsXML@@IEAAXPEAV?$xml_node@D@rapidxml@@@Z 00000001400e2c48 f   SettingsStorage.obj
 0001:000e1d64       ?_Reallocate_exactly@?$vector@DV?$MArrayAllocator@D@@@std@@AEAAX_K@Z 00000001400e2d64 f i SettingsStorage.obj
 0001:000e1dfc       ?allocate_aligned@?$memory_pool@D@rapidxml@@AEAAPEAX_K@Z 00000001400e2dfc f i SettingsStorage.obj
 0001:000e1ea8       ?clear@?$memory_pool@D@rapidxml@@QEAAXXZ 00000001400e2ea8 f i SettingsStorage.obj
 0001:000e1f24       ?first_attribute@?$xml_node@D@rapidxml@@QEBAPEAV?$xml_attribute@D@2@PEBD_K_N@Z 00000001400e2f24 f i SettingsStorage.obj
 0001:000e1ff0       ?first_node@?$xml_node@D@rapidxml@@QEBAPEAV12@PEBD_K_N@Z 00000001400e2ff0 f i SettingsStorage.obj
 0001:000e20bc       ?next_sibling@?$xml_node@D@rapidxml@@QEBAPEAV12@PEBD_K_N@Z 00000001400e30bc f i SettingsStorage.obj
 0001:000e2188       ?remove_attribute@?$xml_node@D@rapidxml@@QEAAXPEAV?$xml_attribute@D@2@@Z 00000001400e3188 f i SettingsStorage.obj
 0001:000e2200       ?remove_node@?$xml_node@D@rapidxml@@QEAAXPEAV12@@Z 00000001400e3200 f i SettingsStorage.obj
 0001:000e2278       ?utf2wcs@SettingsXML@@KAPEB_WPEBDAEAUCEStr@@@Z 00000001400e3278 f   SettingsStorage.obj
 0001:000e2320       ?wcs2utf@SettingsXML@@IEAAPEBDPEB_W@Z 00000001400e3320 f   SettingsStorage.obj
 0001:000e23d8       ?wcs2utf@SettingsXML@@IEBAPEBDPEB_WAEAUCEStrA@@@Z 00000001400e33d8 f   SettingsStorage.obj
 0001:000e2494       ?what@parse_error@rapidxml@@UEBAPEBDXZ 00000001400e3494 f i SettingsStorage.obj
 0001:000e249c       ??0SizeInfo@@QEAA@AEBV0@@Z 00000001400e349c f   SizeInfo.obj
 0001:000e2554       ??0SizeInfo@@QEAA@PEAVCConEmuMain@@@Z 00000001400e3554 f   SizeInfo.obj
 0001:000e25b0       ??1SizeInfo@@UEAA@XZ       00000001400e35b0 f   SizeInfo.obj
 0001:000e25c4       ??_ESizeInfo@@UEAAPEAXI@Z  00000001400e35c4 f i SizeInfo.obj
 0001:000e25c4       ??_GSizeInfo@@UEAAPEAXI@Z  00000001400e35c4 f i SizeInfo.obj
 0001:000e2608       ?ClientRect@SizeInfo@@QEAA?AUtagRECT@@XZ 00000001400e3608 f   SizeInfo.obj
 0001:000e2638       ?CreateSelfFrameRgn@SizeInfo@@QEAAPEAUHRGN__@@XZ 00000001400e3638 f   SizeInfo.obj
 0001:000e2710       ?DoCalculate@SizeInfo@@IEAAXXZ 00000001400e3710 f   SizeInfo.obj
 0001:000e2b88       ?FrameMargins@SizeInfo@@QEAA?AUtagRECT@@XZ 00000001400e3b88 f   SizeInfo.obj
 0001:000e2bb8       ?GetDefaultTabbarHeight@SizeInfo@@QEBAHXZ 00000001400e3bb8 f   SizeInfo.obj
 0001:000e2c5c       ?GetRectState@SizeInfo@@QEBAAEBUWindowRectangles@1@XZ 00000001400e3c5c f   SizeInfo.obj
 0001:000e2c64       ?IsRectMinimized@SizeInfo@@SA_NAEBUtagRECT@@@Z 00000001400e3c64 f   SizeInfo.obj
 0001:000e2c8c       ?IsRectMinimized@SizeInfo@@SA_NHH@Z 00000001400e3c8c f   SizeInfo.obj
 0001:000e2ca0       ?LogRequest@SizeInfo@@IEAAXAEBUtagRECT@@PEB_W@Z 00000001400e3ca0 f   SizeInfo.obj
 0001:000e2d88       ?LogRequest@SizeInfo@@IEAAXHPEB_W@Z 00000001400e3d88 f   SizeInfo.obj
 0001:000e2dfc       ?LogRequest@SizeInfo@@IEAAXPEB_W0@Z 00000001400e3dfc f   SizeInfo.obj
 0001:000e2ea4       ?RealClientRect@SizeInfo@@QEAA?AUtagRECT@@XZ 00000001400e3ea4 f   SizeInfo.obj
 0001:000e2ed4       ?RebarRect@SizeInfo@@QEAA?AUtagRECT@@XZ 00000001400e3ed4 f   SizeInfo.obj
 0001:000e2f04       ?RequestDpi@SizeInfo@@QEAAXAEBUDpiValue@@@Z 00000001400e3f04 f   SizeInfo.obj
 0001:000e2f64       ?RequestPos@SizeInfo@@QEAAXHH@Z 00000001400e3f64 f   SizeInfo.obj
 0001:000e2ff8       ?RequestRecalc@SizeInfo@@QEAAXXZ 00000001400e3ff8 f   SizeInfo.obj
 0001:000e3000       ?RequestRect@SizeInfo@@QEAAXAEBUtagRECT@@@Z 00000001400e4000 f   SizeInfo.obj
 0001:000e300c       ?RequestRectInt@SizeInfo@@IEAAXAEBUtagRECT@@PEB_W@Z 00000001400e400c f   SizeInfo.obj
 0001:000e3258       ?RequestSize@SizeInfo@@QEAAXHH@Z 00000001400e4258 f   SizeInfo.obj
 0001:000e32b4       ?StatusRect@SizeInfo@@QEAA?AUtagRECT@@XZ 00000001400e42b4 f   SizeInfo.obj
 0001:000e32e4       ?WindowRect@SizeInfo@@QEAA?AUtagRECT@@XZ 00000001400e42e4 f   SizeInfo.obj
 0001:000e3310       ?WorkspaceRect@SizeInfo@@QEAA?AUtagRECT@@XZ 00000001400e4310 f   SizeInfo.obj
 0001:000e3340       ?isCalculated@SizeInfo@@QEBA_NXZ 00000001400e4340 f   SizeInfo.obj
 0001:000e3344       ?Transparent_IsMenuChecked@CStatus@@SAHHPEAH@Z 00000001400e4344 f   Status.obj
 0001:000e3408       ?Zoom_IsMenuChecked@CStatus@@SAHHPEAH@Z 00000001400e4408 f   Status.obj
 0001:000e3458       ?TermMode_IsMenuChecked@CStatus@@SAHHPEAH@Z 00000001400e4458 f   Status.obj
 0001:000e34ec       ??0CStatus@@QEAA@PEAVCConEmuMain@@@Z 00000001400e44ec f   Status.obj
 0001:000e3778       ??1CStatus@@UEAA@XZ        00000001400e4778 f   Status.obj
 0001:000e37c4       ??_ECStatus@@UEAAPEAXI@Z   00000001400e47c4 f i Status.obj
 0001:000e37c4       ??_GCStatus@@UEAAPEAXI@Z   00000001400e47c4 f i Status.obj
 0001:000e37f8       ?CreateStatusMenu@CStatus@@IEAAPEAUHMENU__@@PEAUStatusMenuOptions@1@_K@Z 00000001400e47f8 f   Status.obj
 0001:000e3910       ?GetAllStatusCols@CStatus@@SA_KPEAPEAUStatusColInfo@@@Z 00000001400e4910 f   Status.obj
 0001:000e3928       ?GetSettingName@CStatus@@QEAAPEB_WW4CEStatusItems@@@Z 00000001400e4928 f   Status.obj
 0001:000e394c       ?GetStatusBarClientRect@CStatus@@QEAA_NAEAUtagRECT@@@Z 00000001400e494c f   Status.obj
 0001:000e39ac       ?GetStatusBarItemRect@CStatus@@QEAA_NW4CEStatusItems@@PEAUtagRECT@@@Z 00000001400e49ac f   Status.obj
 0001:000e3a18       ?InvalidateStatusBar@CStatus@@QEAAXPEAUtagRECT@@@Z 00000001400e4a18 f   Status.obj
 0001:000e3aa4       ?IsCursorOverResizeMark@CStatus@@QEAA_NAEBUtagPOINT@@@Z 00000001400e4aa4 f   Status.obj
 0001:000e3ae4       ?IsKeyboardChanged@CStatus@@AEAA_NXZ 00000001400e4ae4 f   Status.obj
 0001:000e3ca4       ?IsResizeAllowed@CStatus@@QEAA_NXZ 00000001400e4ca4 f   Status.obj
 0001:000e3cf0       ?IsTimeChanged@CStatus@@AEAA_NXZ 00000001400e4cf0 f   Status.obj
 0001:000e3d98       ?IsWindowChanged@CStatus@@AEAA_NXZ 00000001400e4d98 f   Status.obj
 0001:000e3fb0       ?LoadActiveProcess@CStatus@@AEAA_NPEAVCRealConsole@@PEA_WH@Z 00000001400e4fb0 f   Status.obj
 0001:000e4034       ?OnActiveVConChanged@CStatus@@QEAAXHPEAVCRealConsole@@@Z 00000001400e5034 f   Status.obj
 0001:000e4220       ?OnConsoleBufferChanged@CStatus@@QEAAXPEAVCRealConsole@@@Z 00000001400e5220 f   Status.obj
 0001:000e4328       ?OnConsoleChanged@CStatus@@QEAAXPEBU_CONSOLE_SCREEN_BUFFER_INFO@@PEBU_CONSOLE_CURSOR_INFO@@PEBUTOPLEFTCOORD@@_N@Z 00000001400e5328 f   Status.obj
 0001:000e464c       ?OnCursorChanged@CStatus@@QEAAXPEBU_COORD@@PEBU_CONSOLE_CURSOR_INFO@@HH@Z 00000001400e564c f   Status.obj
 0001:000e4894       ?OnDataChanged@CStatus@@AEAA_NPEAW4CEStatusItems@@_K_N@Z 00000001400e5894 f   Status.obj
 0001:000e4944       ?OnKeyboardChanged@CStatus@@QEAAXXZ 00000001400e5944 f   Status.obj
 0001:000e496c       ?OnServerChanged@CStatus@@QEAAXKK@Z 00000001400e596c f   Status.obj
 0001:000e4a08       ?OnTimer@CStatus@@QEAAXXZ  00000001400e5a08 f   Status.obj
 0001:000e4b34       ?OnTransparency@CStatus@@QEAAXXZ 00000001400e5b34 f   Status.obj
 0001:000e4bdc       ?OnWindowReposition@CStatus@@QEAAXPEBUtagRECT@@@Z 00000001400e5bdc f   Status.obj
 0001:000e4f2c       ?PaintStatus@CStatus@@QEAAXPEAUHDC__@@PEAUtagRECT@@@Z 00000001400e5f2c f   Status.obj
 0001:000e5fa4       ?ProcessMenuHighlight@CStatus@@QEAAXPEAUHMENU__@@GG@Z 00000001400e6fa4 f   Status.obj
 0001:000e6024       ?ProcessStatusMessage@CStatus@@QEAA_NPEAUHWND__@@I_K_JUtagPOINT@@AEA_J@Z 00000001400e7024 f   Status.obj
 0001:000e6500       ?ProcessTermModeMenuId@CStatus@@AEAA_NG@Z 00000001400e7500 f   Status.obj
 0001:000e6590       ?ProcessTransparentMenuId@CStatus@@AEAA_NG_N@Z 00000001400e7590 f   Status.obj
 0001:000e66a0       ?ProcessZoomMenuId@CStatus@@AEAA_NG@Z 00000001400e76a0 f   Status.obj
 0001:000e66f0       ?SetClickedItemDesc@CStatus@@AEAAXW4CEStatusItems@@@Z 00000001400e76f0 f   Status.obj
 0001:000e6730       ?SetStatus@CStatus@@QEAAXPEB_W@Z 00000001400e7730 f   Status.obj
 0001:000e67d4       ?ShowStatusBarMenu@CStatus@@IEAAHUtagPOINT@@PEAUHMENU__@@W4CEStatusItems@@@Z 00000001400e77d4 f   Status.obj
 0001:000e68a8       ?ShowStatusSetupMenu@CStatus@@AEAAXXZ 00000001400e78a8 f   Status.obj
 0001:000e6c64       ?ShowTermModeMenu@CStatus@@AEAAXUtagPOINT@@@Z 00000001400e7c64 f   Status.obj
 0001:000e6cd8       ?ShowTransparencyMenu@CStatus@@AEAAXUtagPOINT@@@Z 00000001400e7cd8 f   Status.obj
 0001:000e6dd0       ?ShowVConMenu@CStatus@@AEAAXUtagPOINT@@@Z 00000001400e7dd0 f   Status.obj
 0001:000e6e04       ?ShowZoomMenu@CStatus@@AEAAXUtagPOINT@@@Z 00000001400e7e04 f   Status.obj
 0001:000e6ec0       ?UpdateStatusBar@CStatus@@QEAAX_N0@Z 00000001400e7ec0 f   Status.obj
 0001:000e6f6c       ?isSettingsOpened@CStatus@@AEAA_NI@Z 00000001400e7f6c f   Status.obj
 0001:000e6fcc       ??$?0AEBV?$basic_string@_WU?$char_traits@_W@std@@V?$allocator@_W@2@@std@@$$Z$$V@?$pair@$$CBV?$basic_string@_WU?$char_traits@_W@std@@V?$allocator@_W@2@@std@@UVariableData@SystemEnvironment@@@std@@QEAA@Upiecewise_construct_t@1@V?$tuple@AEBV?$basic_string@_WU?$char_traits@_W@std@@V?$allocator@_W@2@@std@@@1@V?$tuple@$$V@1@@Z 00000001400e7fcc f i SystemEnvironment.obj
 0001:000e7000       ??$?0AEBV?$basic_string@_WU?$char_traits@_W@std@@V?$allocator@_W@2@@std@@@?$_Tree_temp_node@V?$allocator@U?$_Tree_node@V?$basic_string@_WU?$char_traits@_W@std@@V?$allocator@_W@2@@std@@PEAX@std@@@std@@@std@@QEAA@AEAV?$allocator@U?$_Tree_node@V?$basic_string@_WU?$char_traits@_W@std@@V?$allocator@_W@2@@std@@PEAX@std@@@1@PEAU?$_Tree_node@V?$basic_string@_WU?$char_traits@_W@std@@V?$allocator@_W@2@@std@@PEAX@1@AEBV?$basic_string@_WU?$char_traits@_W@std@@V?$allocator@_W@2@@1@@Z 00000001400e8000 f i SystemEnvironment.obj
 0001:000e708c       ??$?0V?$tuple@AEBV?$basic_string@_WU?$char_traits@_W@std@@V?$allocator@_W@2@@std@@@std@@V?$tuple@$$V@1@$0A@$$Z$S@?$pair@$$CBV?$basic_string@_WU?$char_traits@_W@std@@V?$allocator@_W@2@@std@@UVariableData@SystemEnvironment@@@std@@QEAA@AEAV?$tuple@AEBV?$basic_string@_WU?$char_traits@_W@std@@V?$allocator@_W@2@@std@@@1@AEAV?$tuple@$$V@1@U?$integer_sequence@_K$0A@@1@U?$integer_sequence@_K$S@1@@Z 00000001400e808c f i SystemEnvironment.obj
 0001:000e70f0       ??$?8_WU?$char_traits@_W@std@@V?$allocator@_W@1@@std@@YA_NAEBV?$basic_string@_WU?$char_traits@_W@std@@V?$allocator@_W@2@@0@QEB_W@Z 00000001400e80f0 f i SystemEnvironment.obj
 0001:000e7140       ??$_Find_lower_bound@V?$basic_string@_WU?$char_traits@_W@std@@V?$allocator@_W@2@@std@@@?$_Tree@V?$_Tset_traits@V?$basic_string@_WU?$char_traits@_W@std@@V?$allocator@_W@2@@std@@U?$less@V?$basic_string@_WU?$char_traits@_W@std@@V?$allocator@_W@2@@std@@@2@V?$allocator@V?$basic_string@_WU?$char_traits@_W@std@@V?$allocator@_W@2@@std@@@2@$0A@@std@@@std@@IEBA?AU?$_Tree_find_result@PEAU?$_Tree_node@V?$basic_string@_WU?$char_traits@_W@std@@V?$allocator@_W@2@@std@@PEAX@std@@@1@AEBV?$basic_string@_WU?$char_traits@_W@std@@V?$allocator@_W@2@@1@@Z 00000001400e8140 f i SystemEnvironment.obj
 0001:000e71ac       ??$_Reallocate_grow_by@V<lambda_19662282d61fd793232134d409f2e084>@@$$V@?$basic_string@_WU?$char_traits@_W@std@@V?$allocator@_W@2@@std@@AEAAAEAV01@_KV<lambda_19662282d61fd793232134d409f2e084>@@@Z 00000001400e81ac f i SystemEnvironment.obj
 0001:000e72a0       ??$_Reallocate_grow_by@V<lambda_25953b27f3c43b57ba59f021c7f225c5>@@_W@?$basic_string@_WU?$char_traits@_W@std@@V?$allocator@_W@2@@std@@AEAAAEAV01@_KV<lambda_25953b27f3c43b57ba59f021c7f225c5>@@_W@Z 00000001400e82a0 f i SystemEnvironment.obj
 0001:000e73c0       ??$_Try_emplace@AEBV?$basic_string@_WU?$char_traits@_W@std@@V?$allocator@_W@2@@std@@$$V@?$_Hash@V?$_Umap_traits@V?$basic_string@_WU?$char_traits@_W@std@@V?$allocator@_W@2@@std@@UVariableData@SystemEnvironment@@V?$_Uhash_compare@V?$basic_string@_WU?$char_traits@_W@std@@V?$allocator@_W@2@@std@@U?$hash@V?$basic_string@_WU?$char_traits@_W@std@@V?$allocator@_W@2@@std@@@2@U?$equal_to@V?$basic_string@_WU?$char_traits@_W@std@@V?$allocator@_W@2@@std@@@2@@2@V?$allocator@U?$pair@$$CBV?$basic_string@_WU?$char_traits@_W@std@@V?$allocator@_W@2@@std@@UVariableData@SystemEnvironment@@@std@@@2@$0A@@std@@@std@@IEAA?AU?$pair@PEAU?$_List_node@U?$pair@$$CBV?$basic_string@_WU?$char_traits@_W@std@@V?$allocator@_W@2@@std@@UVariableData@SystemEnvironment@@@std@@PEAX@std@@_N@1@AEBV?$basic_string@_WU?$char_traits@_W@std@@V?$allocator@_W@2@@1@@Z 00000001400e83c0 f i SystemEnvironment.obj
 0001:000e758c       ??1?$_Alloc_construct_ptr@V?$allocator@U?$_List_node@U?$pair@$$CBV?$basic_string@_WU?$char_traits@_W@std@@V?$allocator@_W@2@@std@@UVariableData@SystemEnvironment@@@std@@PEAX@std@@@std@@@std@@QEAA@XZ 00000001400e858c f i SystemEnvironment.obj
 0001:000e75a8       ??1?$_Tree_temp_node_alloc@V?$allocator@U?$_Tree_node@V?$basic_string@_WU?$char_traits@_W@std@@V?$allocator@_W@2@@std@@PEAX@std@@@std@@@std@@QEAA@XZ 00000001400e85a8 f i SystemEnvironment.obj
 0001:000e75a8       ??1?$_Alloc_construct_ptr@V?$allocator@U?$_Tree_node@V?$basic_string@_WU?$char_traits@_W@std@@V?$allocator@_W@2@@std@@PEAX@std@@@std@@@std@@QEAA@XZ 00000001400e85a8 f i SystemEnvironment.obj
 0001:000e75c4       ??1?$_List_node_emplace_op2@V?$allocator@U?$_List_node@U?$pair@$$CBV?$basic_string@_WU?$char_traits@_W@std@@V?$allocator@_W@2@@std@@UVariableData@SystemEnvironment@@@std@@PEAX@std@@@std@@@std@@QEAA@XZ 00000001400e85c4 f i SystemEnvironment.obj
 0001:000e763c       ??1?$_Tree_temp_node@V?$allocator@U?$_Tree_node@V?$basic_string@_WU?$char_traits@_W@std@@V?$allocator@_W@2@@std@@PEAX@std@@@std@@@std@@QEAA@XZ 00000001400e863c f i SystemEnvironment.obj
 0001:000e76a8       ?GetKeys@SystemEnvironment@@QEBA?AV?$set@V?$basic_string@_WU?$char_traits@_W@std@@V?$allocator@_W@2@@std@@U?$less@V?$basic_string@_WU?$char_traits@_W@std@@V?$allocator@_W@2@@std@@@2@V?$allocator@V?$basic_string@_WU?$char_traits@_W@std@@V?$allocator@_W@2@@std@@@2@@std@@XZ 00000001400e86a8 f   SystemEnvironment.obj
 0001:000e77d0       ?LoadFromRegistry@SystemEnvironment@@QEAAXXZ 00000001400e87d0 f   SystemEnvironment.obj
 0001:000e7828       ?MakeEnvName@SystemEnvironment@@SA?AV?$basic_string@_WU?$char_traits@_W@std@@V?$allocator@_W@2@@std@@AEBV23@@Z 00000001400e8828 f   SystemEnvironment.obj
 0001:000e78ec       ?SysEnvValueCallback@SystemEnvironment@@SA_NPEAUHKEY__@@PEB_WK_J@Z 00000001400e88ec f   SystemEnvironment.obj
 0001:000e7bac       ?_Bump_erased@_Range_eraser@?$_Hash@V?$_Umap_traits@V?$basic_string@_WU?$char_traits@_W@std@@V?$allocator@_W@2@@std@@UVariableData@SystemEnvironment@@V?$_Uhash_compare@V?$basic_string@_WU?$char_traits@_W@std@@V?$allocator@_W@2@@std@@U?$hash@V?$basic_string@_WU?$char_traits@_W@std@@V?$allocator@_W@2@@std@@@2@U?$equal_to@V?$basic_string@_WU?$char_traits@_W@std@@V?$allocator@_W@2@@std@@@2@@2@V?$allocator@U?$pair@$$CBV?$basic_string@_WU?$char_traits@_W@std@@V?$allocator@_W@2@@std@@UVariableData@SystemEnvironment@@@std@@@2@$0A@@std@@@std@@QEAAXXZ 00000001400e8bac f i SystemEnvironment.obj
 0001:000e7c18       ?_Construct_lv_contents@?$basic_string@_WU?$char_traits@_W@std@@V?$allocator@_W@2@@std@@AEAAXAEBV12@@Z 00000001400e8c18 f i SystemEnvironment.obj
 0001:000e7cbc       ?_Desired_grow_bucket_count@?$_Hash@V?$_Umap_traits@HGV?$_Uhash_compare@HU?$hash@H@std@@U?$equal_to@H@2@@std@@V?$allocator@U?$pair@$$CBHG@std@@@2@$0A@@std@@@std@@IEBA_K_K@Z 00000001400e8cbc f i VirtualConsole.obj
 0001:000e7cbc       ?_Desired_grow_bucket_count@?$_Hash@V?$_Umap_traits@V?$basic_string@_WU?$char_traits@_W@std@@V?$allocator@_W@2@@std@@UVariableData@SystemEnvironment@@V?$_Uhash_compare@V?$basic_string@_WU?$char_traits@_W@std@@V?$allocator@_W@2@@std@@U?$hash@V?$basic_string@_WU?$char_traits@_W@std@@V?$allocator@_W@2@@std@@@2@U?$equal_to@V?$basic_string@_WU?$char_traits@_W@std@@V?$allocator@_W@2@@std@@@2@@2@V?$allocator@U?$pair@$$CBV?$basic_string@_WU?$char_traits@_W@std@@V?$allocator@_W@2@@std@@UVariableData@SystemEnvironment@@@std@@@2@$0A@@std@@@std@@IEBA_K_K@Z 00000001400e8cbc f i SystemEnvironment.obj
 0001:000e7d54       ?_Forced_rehash@?$_Hash@V?$_Umap_traits@V?$basic_string@_WU?$char_traits@_W@std@@V?$allocator@_W@2@@std@@UVariableData@SystemEnvironment@@V?$_Uhash_compare@V?$basic_string@_WU?$char_traits@_W@std@@V?$allocator@_W@2@@std@@U?$hash@V?$basic_string@_WU?$char_traits@_W@std@@V?$allocator@_W@2@@std@@@2@U?$equal_to@V?$basic_string@_WU?$char_traits@_W@std@@V?$allocator@_W@2@@std@@@2@@2@V?$allocator@U?$pair@$$CBV?$basic_string@_WU?$char_traits@_W@std@@V?$allocator@_W@2@@std@@UVariableData@SystemEnvironment@@@std@@@2@$0A@@std@@@std@@IEAAX_K@Z 00000001400e8d54 f i SystemEnvironment.obj
 0001:000e7efc       ?_Unchecked_erase@?$_Hash@V?$_Umap_traits@V?$basic_string@_WU?$char_traits@_W@std@@V?$allocator@_W@2@@std@@UVariableData@SystemEnvironment@@V?$_Uhash_compare@V?$basic_string@_WU?$char_traits@_W@std@@V?$allocator@_W@2@@std@@U?$hash@V?$basic_string@_WU?$char_traits@_W@std@@V?$allocator@_W@2@@std@@@2@U?$equal_to@V?$basic_string@_WU?$char_traits@_W@std@@V?$allocator@_W@2@@std@@@2@@2@V?$allocator@U?$pair@$$CBV?$basic_string@_WU?$char_traits@_W@std@@V?$allocator@_W@2@@std@@UVariableData@SystemEnvironment@@@std@@@2@$0A@@std@@@std@@AEAAPEAU?$_List_node@U?$pair@$$CBV?$basic_string@_WU?$char_traits@_W@std@@V?$allocator@_W@2@@std@@UVariableData@SystemEnvironment@@@std@@PEAX@2@PEAU32@QEAU32@@Z 00000001400e8efc f i SystemEnvironment.obj
 0001:000e806c       ?clear@?$_Hash@V?$_Umap_traits@V?$basic_string@_WU?$char_traits@_W@std@@V?$allocator@_W@2@@std@@UVariableData@SystemEnvironment@@V?$_Uhash_compare@V?$basic_string@_WU?$char_traits@_W@std@@V?$allocator@_W@2@@std@@U?$hash@V?$basic_string@_WU?$char_traits@_W@std@@V?$allocator@_W@2@@std@@@2@U?$equal_to@V?$basic_string@_WU?$char_traits@_W@std@@V?$allocator@_W@2@@std@@@2@@2@V?$allocator@U?$pair@$$CBV?$basic_string@_WU?$char_traits@_W@std@@V?$allocator@_W@2@@std@@UVariableData@SystemEnvironment@@@std@@@2@$0A@@std@@@std@@QEAAXXZ 00000001400e906c f i SystemEnvironment.obj
 0001:000e80e4       ?compare@?$basic_string@_WU?$char_traits@_W@std@@V?$allocator@_W@2@@std@@QEBAHAEBV12@@Z 00000001400e90e4 f i SystemEnvironment.obj
 0001:000e8150       ?reserve@?$basic_string@_WU?$char_traits@_W@std@@V?$allocator@_W@2@@std@@QEAAX_K@Z 00000001400e9150 f i SystemEnvironment.obj
 0001:000e81d0       ??0CTabBarClass@@QEAA@XZ   00000001400e91d0 f   TabBar.obj
 0001:000e82f8       ??1CTabBarClass@@UEAA@XZ   00000001400e92f8 f   TabBar.obj
 0001:000e8420       ??_GCTabBarClass@@UEAAPEAXI@Z 00000001400e9420 f i TabBar.obj
 0001:000e8420       ??_ECTabBarClass@@UEAAPEAXI@Z 00000001400e9420 f i TabBar.obj
 0001:000e8454       ?Activate@CTabBarClass@@QEAAXH@Z 00000001400e9454 f   TabBar.obj
 0001:000e8554       ?ActivateSearchPane@CTabBarClass@@QEAAPEAUHWND__@@_N@Z 00000001400e9554 f   TabBar.obj
 0001:000e85a8       ?ActivateTabByPoint@CTabBarClass@@QEAAHPEAUtagPOINT@@_N1@Z 00000001400e95a8 f   TabBar.obj
 0001:000e8620       ?ActiveTabByName@CTabBarClass@@QEAAHHPEB_WPEAVCVConGuard@@@Z 00000001400e9620 f   TabBar.obj
 0001:000e87ec       ?AddStack@CTabBarClass@@IEAA_NAEAVCTab@@@Z 00000001400e97ec f   TabBar.obj
 0001:000e8948       ?CanActivateTab@CTabBarClass@@AEAA_NH@Z 00000001400e9948 f   TabBar.obj
 0001:000e89c0       ?CheckRebarCreated@CTabBarClass@@QEAAXXZ 00000001400e99c0 f   TabBar.obj
 0001:000e8a48       ?CheckStack@CTabBarClass@@IEAA_NXZ 00000001400e9a48 f   TabBar.obj
 0001:000e8c74       ?CountActiveTabs@CTabBarClass@@AEAAHH@Z 00000001400e9c74 f   TabBar.obj
 0001:000e8d2c       ?CreateTabIcon@CTabBarClass@@QEAAHPEB_W_N0@Z 00000001400e9d2c f   TabBar.obj
 0001:000e8d4c       ?Deactivate@CTabBarClass@@QEAAXH@Z 00000001400e9d4c f   TabBar.obj
 0001:000e8d94       ?DeleteItem@CTabBarClass@@AEAAXH@Z 00000001400e9d94 f   TabBar.obj
 0001:000e8e00       ?GetActiveTabRect@CTabBarClass@@QEAA_NPEAUtagRECT@@@Z 00000001400e9e00 f   TabBar.obj
 0001:000e8e28       ?GetCurSel@CTabBarClass@@QEAAHXZ 00000001400e9e28 f   TabBar.obj
 0001:000e8e58       ?GetFirstLastVConTab@CTabBarClass@@IEAAHPEAVCVirtualConsole@@_NH@Z 00000001400e9e58 f   TabBar.obj
 0001:000e8f28       ?GetItemCount@CTabBarClass@@AEAAHXZ 00000001400e9f28 f   TabBar.obj
 0001:000e8f60       ?GetNextTab@CTabBarClass@@AEAAH_N0@Z 00000001400e9f60 f   TabBar.obj
 0001:000e90a8       ?GetNextTabHelper@CTabBarClass@@AEAAHH_N0@Z 00000001400ea0a8 f   TabBar.obj
 0001:000e92a8       ?GetTabFromPoint@CTabBarClass@@QEAAHPEAUtagPOINT@@_N1@Z 00000001400ea2a8 f   TabBar.obj
 0001:000e930c       ?GetTabIcon@CTabBarClass@@QEAAH_N@Z 00000001400ea30c f   TabBar.obj
 0001:000e9318       ?GetTabIconByIndex@CTabBarClass@@QEAAPEAUHICON__@@H@Z 00000001400ea318 f   TabBar.obj
 0001:000e9324       ?GetTabIcons@CTabBarClass@@QEAAPEAU_IMAGELIST@@H@Z 00000001400ea324 f   TabBar.obj
 0001:000e9358       ?GetVConFromTab@CTabBarClass@@QEAA_NHPEAVCVConGuard@@PEAK@Z 00000001400ea358 f   TabBar.obj
 0001:000e944c       ?HighlightTab@CTabBarClass@@QEAAXPEBVCTabID@@_N@Z 00000001400ea44c f   TabBar.obj
 0001:000e949c       ?Invalidate@CTabBarClass@@QEAAXXZ 00000001400ea49c f   TabBar.obj
 0001:000e94cc       ?IsInSwitch@CTabBarClass@@QEAA_NXZ 00000001400ea4cc f   TabBar.obj
 0001:000e94d4       ?IsSearchShown@CTabBarClass@@QEAA_N_N@Z 00000001400ea4d4 f   TabBar.obj
 0001:000e94f8       ?IsTabsActive@CTabBarClass@@QEBA_NXZ 00000001400ea4f8 f   TabBar.obj
 0001:000e9504       ?NeedPostUpdate@CTabBarClass@@QEAA_NXZ 00000001400ea504 f   TabBar.obj
 0001:000e951c       ?OnAlternative@CTabBarClass@@QEAAXH@Z 00000001400ea51c f   TabBar.obj
 0001:000e955c       ?OnBufferHeight@CTabBarClass@@QEAAXH@Z 00000001400ea55c f   TabBar.obj
 0001:000e959c       ?OnCaptionHidden@CTabBarClass@@QEAAXXZ 00000001400ea59c f   TabBar.obj
 0001:000e95e4       ?OnChooseTabPopup@CTabBarClass@@QEAAXXZ 00000001400ea5e4 f   TabBar.obj
 0001:000e964c       ?OnCommand@CTabBarClass@@QEAAX_K_J@Z 00000001400ea64c f   TabBar.obj
 0001:000e99f0       ?OnConsoleActivated@CTabBarClass@@QEAAXH@Z 00000001400ea9f0 f   TabBar.obj
 0001:000e9a28       ?OnKeyboard@CTabBarClass@@QEAA_NI_K_J@Z 00000001400eaa28 f   TabBar.obj
 0001:000e9ae8       ?OnNotify@CTabBarClass@@QEAA_NPEAUtagNMHDR@@AEA_J@Z 00000001400eaae8 f   TabBar.obj
 0001:000e9e4c       ?OnShowButtonsChanged@CTabBarClass@@QEAAXXZ 00000001400eae4c f   TabBar.obj
 0001:000e9e9c       ?OnTimer@CTabBarClass@@QEAA_N_K@Z 00000001400eae9c f   TabBar.obj
 0001:000e9eb4       ?OnWindowStateChanged@CTabBarClass@@QEAAXXZ 00000001400eaeb4 f   TabBar.obj
 0001:000e9ef8       ?PrepareTab@CTabBarClass@@AEAAHAEAVCTab@@PEAVCVirtualConsole@@@Z 00000001400eaef8 f   TabBar.obj
 0001:000ea6dc       ?RePaint@CTabBarClass@@QEAAXXZ 00000001400eb6dc f   TabBar.obj
 0001:000ea6ec       ?Recreate@CTabBarClass@@QEAAXXZ 00000001400eb6ec f   TabBar.obj
 0001:000ea770       ?Reposition@CTabBarClass@@QEAAXXZ 00000001400eb770 f   TabBar.obj
 0001:000ea798       ?RequestPostUpdate@CTabBarClass@@AEAAXXZ 00000001400eb798 f   TabBar.obj
 0001:000ea7f4       ?Retrieve@CTabBarClass@@QEAAXXZ 00000001400eb7f4 f   TabBar.obj
 0001:000ea830       ?SelectTab@CTabBarClass@@AEAAXH@Z 00000001400eb830 f   TabBar.obj
 0001:000ea8e4       ?SetRedraw@CTabBarClass@@QEAAX_N@Z 00000001400eb8e4 f   TabBar.obj
 0001:000ea8f0       ?ShowSearchPane@CTabBarClass@@QEAA_N_N0@Z 00000001400eb8f0 f   TabBar.obj
 0001:000ea900       ?ShowTabError@CTabBarClass@@QEAAXPEB_WH@Z 00000001400eb900 f   TabBar.obj
 0001:000ea90c       ?Switch@CTabBarClass@@QEAAX_N0@Z 00000001400eb90c f   TabBar.obj
 0001:000ea9a8       ?SwitchCommit@CTabBarClass@@QEAAXXZ 00000001400eb9a8 f   TabBar.obj
 0001:000eaa00       ?SwitchNext@CTabBarClass@@QEAAX_N@Z 00000001400eba00 f   TabBar.obj
 0001:000eaa0c       ?SwitchPrev@CTabBarClass@@QEAAX_N@Z 00000001400eba0c f   TabBar.obj
 0001:000eaa18       ?SwitchRollback@CTabBarClass@@QEAAXXZ 00000001400eba18 f   TabBar.obj
 0001:000eaa38       ?Toolbar_GetBtnRect@CTabBarClass@@QEAA_NHPEAUtagRECT@@@Z 00000001400eba38 f   TabBar.obj
 0001:000eaa54       ?Update@CTabBarClass@@QEAAXH@Z 00000001400eba54 f   TabBar.obj
 0001:000eaf78       ?UpdateAddTab@CTabBarClass@@AEAAHPEAXAEAH1AEA_NPEAVCVirtualConsole@@K@Z 00000001400ebf78 f   TabBar.obj
 0001:000eb170       ?UpdatePosition@CTabBarClass@@QEAAXXZ 00000001400ec170 f   TabBar.obj
 0001:000eb214       ?UpdateToolConsoles@CTabBarClass@@QEAAX_N@Z 00000001400ec214 f   TabBar.obj
 0001:000eb248       ??$wcscpy_c@$0HI@@@YAHAEAY0HI@_WPEB_W@Z 00000001400ec248 f i TabCtrlBase.obj
 0001:000eb294       ??0CTabPanelBase@@QEAA@PEAVCTabBarClass@@@Z 00000001400ec294 f   TabCtrlBase.obj
 0001:000eb30c       ??1CTabPanelBase@@UEAA@XZ  00000001400ec30c f   TabCtrlBase.obj
 0001:000eb340       ??_ECTabPanelBase@@UEAAPEAXI@Z 00000001400ec340 f i TabCtrlBase.obj
 0001:000eb340       ??_GCTabPanelBase@@UEAAPEAXI@Z 00000001400ec340 f i TabCtrlBase.obj
 0001:000eb374       ?DoTabDrag@CTabPanelBase@@IEAAXI@Z 00000001400ec374 f   TabCtrlBase.obj
 0001:000eb660       ?EndTabDrag@CTabPanelBase@@IEAAXXZ 00000001400ec660 f   TabCtrlBase.obj
 0001:000eb690       ?FarSendChangeTab@CTabPanelBase@@QEAA_NHPEAVCVConGuard@@@Z 00000001400ec690 f   TabCtrlBase.obj
 0001:000eb894       ?InitTooltips@CTabPanelBase@@IEAAXPEAUHWND__@@@Z 00000001400ec894 f   TabCtrlBase.obj
 0001:000eba48       ?OnMouseRebar@CTabPanelBase@@QEAA_JIHH@Z 00000001400eca48 f   TabCtrlBase.obj
 0001:000ebc24       ?OnMouseTabbar@CTabPanelBase@@QEAA_JIHHH@Z 00000001400ecc24 f   TabCtrlBase.obj
 0001:000ec028       ?OnMouseToolbar@CTabPanelBase@@QEAA_JIHHH@Z 00000001400ed028 f   TabCtrlBase.obj
 0001:000ec174       ?OnSetCursorRebar@CTabPanelBase@@QEAA_NXZ 00000001400ed174 f   TabCtrlBase.obj
 0001:000ec224       ?OnTimerInt@CTabPanelBase@@UEAA_N_K@Z 00000001400ed224 f   TabCtrlBase.obj
 0001:000ec280       ?ShowTabErrorInt@CTabPanelBase@@QEAAXPEB_WH@Z 00000001400ed280 f   TabCtrlBase.obj
 0001:000ec3c4       ?UpdateTabFontInt@CTabPanelBase@@QEAAXXZ 00000001400ed3c4 f   TabCtrlBase.obj
 0001:000ec4d0       ??$SafeDelete@VCFindPanel@@@@YAXAEAPEAVCFindPanel@@@Z 00000001400ed4d0 f i TabCtrlWin.obj
 0001:000ec518       ??0CTabPanelWin@@QEAA@PEAVCTabBarClass@@@Z 00000001400ed518 f   TabCtrlWin.obj
 0001:000ec598       ??1CTabPanelWin@@UEAA@XZ   00000001400ed598 f   TabCtrlWin.obj
 0001:000ec5d0       ??_GCTabPanelWin@@UEAAPEAXI@Z 00000001400ed5d0 f i TabCtrlWin.obj
 0001:000ec5d0       ??_ECTabPanelWin@@UEAAPEAXI@Z 00000001400ed5d0 f i TabCtrlWin.obj
 0001:000ec604       ?ActivateSearchPaneInt@CTabPanelWin@@UEAAPEAUHWND__@@_N@Z 00000001400ed604 f   TabCtrlWin.obj
 0001:000ec640       ?AddTabInt@CTabPanelWin@@UEAAXPEB_WHIH@Z 00000001400ed640 f   TabCtrlWin.obj
 0001:000ec81c       ?CreateRebar@CTabPanelWin@@UEAAXXZ 00000001400ed81c f   TabCtrlWin.obj
 0001:000eca34       ?CreateTabbar@CTabPanelWin@@AEAAPEAUHWND__@@XZ 00000001400eda34 f   TabCtrlWin.obj
 0001:000ecc74       ?CreateToolbar@CTabPanelWin@@AEAAPEAUHWND__@@XZ 00000001400edc74 f   TabCtrlWin.obj
 0001:000ed138       ?DeleteItemInt@CTabPanelWin@@UEAAXH@Z 00000001400ee138 f   TabCtrlWin.obj
 0001:000ed160       ?DestroyRebar@CTabPanelWin@@UEAAXXZ 00000001400ee160 f   TabCtrlWin.obj
 0001:000ed1e0       ?GetCurSelInt@CTabPanelWin@@UEAAHXZ 00000001400ee1e0 f   TabCtrlWin.obj
 0001:000ed204       ?GetItemCountInt@CTabPanelWin@@UEAAHXZ 00000001400ee204 f   TabCtrlWin.obj
 0001:000ed220       ?GetRebarClientRect@CTabPanelWin@@UEAA_NPEAUtagRECT@@@Z 00000001400ee220 f   TabCtrlWin.obj
 0001:000ed280       ?GetRect@CTabPanelWin@@AEAA?AUtagRECT@@XZ 00000001400ee280 f   TabCtrlWin.obj
 0001:000ed360       ?GetTabBarClientRect@CTabPanelWin@@UEAA_NPEAUtagRECT@@@Z 00000001400ee360 f   TabCtrlWin.obj
 0001:000ed384       ?GetTabFromPoint@CTabPanelWin@@UEAAHUtagPOINT@@_N1@Z 00000001400ee384 f   TabCtrlWin.obj
 0001:000ed4bc       ?GetTabRect@CTabPanelWin@@UEAA_NHPEAUtagRECT@@@Z 00000001400ee4bc f   TabCtrlWin.obj
 0001:000ed5a0       ?GetTabText@CTabPanelWin@@UEAA_NHPEA_WH@Z 00000001400ee5a0 f   TabCtrlWin.obj
 0001:000ed5f8       ?GetToolBtnChecked@CTabPanelWin@@UEAA_NW4ToolbarCommandIdx@@@Z 00000001400ee5f8 f   TabCtrlWin.obj
 0001:000ed61c       ?GetToolBtnRect@CTabPanelWin@@UEAA_NHPEAUtagRECT@@@Z 00000001400ee61c f   TabCtrlWin.obj
 0001:000ed68c       ?HighlightTab@CTabPanelWin@@UEAAXH_N@Z 00000001400ee68c f   TabCtrlWin.obj
 0001:000ed6cc       ?InvalidateBar@CTabPanelWin@@UEAAXXZ 00000001400ee6cc f   TabCtrlWin.obj
 0001:000ed708       ?IsCreated@CTabPanelWin@@UEAA_NXZ 00000001400ee708 f   TabCtrlWin.obj
 0001:000ed71c       ?IsSearchShownInt@CTabPanelWin@@UEAA_N_N@Z 00000001400ee71c f   TabCtrlWin.obj
 0001:000ed78c       ?IsTabbarCreated@CTabPanelWin@@UEAA_NXZ 00000001400ee78c f   TabCtrlWin.obj
 0001:000ed7a0       ?IsTabbarNotify@CTabPanelWin@@UEAA_NPEAUtagNMHDR@@@Z 00000001400ee7a0 f   TabCtrlWin.obj
 0001:000ed7c0       ?IsToolbarCommand@CTabPanelWin@@UEAA_N_K_J@Z 00000001400ee7c0 f   TabCtrlWin.obj
 0001:000ed7d8       ?IsToolbarCreated@CTabPanelWin@@UEAA_NXZ 00000001400ee7d8 f   TabCtrlWin.obj
 0001:000ed7ec       ?IsToolbarNotify@CTabPanelWin@@UEAA_NPEAUtagNMHDR@@@Z 00000001400ee7ec f   TabCtrlWin.obj
 0001:000ed804       ?OnCaptionHiddenChanged@CTabPanelWin@@UEAAX_N@Z 00000001400ee804 f   TabCtrlWin.obj
 0001:000ed8f8       ?OnConsoleActivatedInt@CTabPanelWin@@UEAAXH@Z 00000001400ee8f8 f   TabCtrlWin.obj
 0001:000eda24       ?OnNotifyInt@CTabPanelWin@@UEAA_NPEAUtagNMHDR@@AEA_J@Z 00000001400eea24 f   TabCtrlWin.obj
 0001:000edb88       ?OnWindowStateChanged@CTabPanelWin@@UEAAXW4ConEmuWindowMode@@@Z 00000001400eeb88 f   TabCtrlWin.obj
 0001:000edbe8       ?QueryTabbarHeight@CTabPanelWin@@UEAAHXZ 00000001400eebe8 f   TabCtrlWin.obj
 0001:000edc88       ?ReBarProc@CTabPanelWin@@AEAA_JPEAUHWND__@@I_K_JP6A_J0I12@Z@Z 00000001400eec88 f   TabCtrlWin.obj
 0001:000ede34       ?RePaintInt@CTabPanelWin@@UEAAXXZ 00000001400eee34 f   TabCtrlWin.obj
 0001:000edee4       ?RepositionInt@CTabPanelWin@@UEAAXXZ 00000001400eeee4 f   TabCtrlWin.obj
 0001:000ee310       ?SelectTabInt@CTabPanelWin@@UEAAHH@Z 00000001400ef310 f   TabCtrlWin.obj
 0001:000ee3d8       ?SetTabbarFont@CTabPanelWin@@UEAAXPEAUHFONT__@@@Z 00000001400ef3d8 f   TabCtrlWin.obj
 0001:000ee418       ?SetToolBtnChecked@CTabPanelWin@@UEAAXW4ToolbarCommandIdx@@_N@Z 00000001400ef418 f   TabCtrlWin.obj
 0001:000ee440       ?ShowBar@CTabPanelWin@@UEAAX_N@Z 00000001400ef440 f   TabCtrlWin.obj
 0001:000ee484       ?ShowSearchPane@CTabPanelWin@@UEAA_N_N0@Z 00000001400ef484 f   TabCtrlWin.obj
 0001:000ee708       ?ShowTabsPane@CTabPanelWin@@UEAAX_N@Z 00000001400ef708 f   TabCtrlWin.obj
 0001:000ee7f8       ?ShowToolsPane@CTabPanelWin@@UEAAX_N@Z 00000001400ef7f8 f   TabCtrlWin.obj
 0001:000ee9cc       ?TabHitTest@CTabPanelWin@@AEAA_J_NPEAH@Z 00000001400ef9cc f   TabCtrlWin.obj
 0001:000eea68       ?TabProc@CTabPanelWin@@AEAA_JPEAUHWND__@@I_K_JP6A_J0I12@Z@Z 00000001400efa68 f   TabCtrlWin.obj
 0001:000eebec       ?ToolProc@CTabPanelWin@@AEAA_JPEAUHWND__@@I_K_JP6A_J0I12@Z@Z 00000001400efbec f   TabCtrlWin.obj
 0001:000eee0c       ?UpdateToolbarPos@CTabPanelWin@@AEAAXXZ 00000001400efe0c f   TabCtrlWin.obj
 0001:000eefa8       ?_ReBarProc@CTabPanelWin@@CA_JPEAUHWND__@@I_K_J@Z 00000001400effa8 f   TabCtrlWin.obj
 0001:000ef034       ?_TabProc@CTabPanelWin@@CA_JPEAUHWND__@@I_K_J@Z 00000001400f0034 f   TabCtrlWin.obj
 0001:000ef0c0       ?_ToolProc@CTabPanelWin@@CA_JPEAUHWND__@@I_K_J@Z 00000001400f00c0 f   TabCtrlWin.obj
 0001:000ef14c       ??0CTabID@@QEAA@PEAVCVirtualConsole@@PEB_WIHHH@Z 00000001400f014c f   TabID.obj
 0001:000ef22c       ??0CTabStack@@QEAA@XZ      00000001400f022c f   TabID.obj
 0001:000ef284       ??1CTab@@QEAA@XZ           00000001400f0284 f   TabID.obj
 0001:000ef2bc       ??1CTabID@@MEAA@XZ         00000001400f02bc f   TabID.obj
 0001:000ef2fc       ??1CTabStack@@QEAA@XZ      00000001400f02fc f   TabID.obj
 0001:000ef32c       ??_GCTabID@@MEAAPEAXI@Z    00000001400f032c f i TabID.obj
 0001:000ef32c       ??_ECTabID@@MEAAPEAXI@Z    00000001400f032c f i TabID.obj
 0001:000ef360       ?AddRef@CTab@@QEAAPEAVCTabID@@PEBDH@Z 00000001400f0360 f   TabID.obj
 0001:000ef370       ?AppendInt@CTabStack@@IEAAHPEAVCTabID@@HPEAUMSectionLockSimple@@@Z 00000001400f0370 f   TabID.obj
 0001:000ef408       ?CleanNulls@CTabStack@@IEAAXXZ 00000001400f0408 f   TabID.obj
 0001:000ef49c       ?Empty@TabName@@QEBA_NXZ   00000001400f049c f   TabID.obj
 0001:000ef4a8       ?GetCount@CTabStack@@QEAAHXZ 00000001400f04a8 f   TabID.obj
 0001:000ef4ac       ?GetIndexByTab@CTabStack@@QEAAHPEBVCTabID@@@Z 00000001400f04ac f   TabID.obj
 0001:000ef538       ?GetLabel@CTabID@@QEAAPEB_WXZ 00000001400f0538 f   TabID.obj
 0001:000ef56c       ?GetName@CTabID@@QEAAPEB_WXZ 00000001400f056c f   TabID.obj
 0001:000ef58c       ?GetTabByIndex@CTabStack@@QEAA_NHAEAVCTab@@@Z 00000001400f058c f   TabID.obj
 0001:000ef628       ?GetTabInfoByIndex@CTabStack@@QEAA_NHAEAUTabInfo@@@Z 00000001400f0628 f   TabID.obj
 0001:000ef6d0       ?GetVisualToRealIndex@CTabStack@@IEAAHH@Z 00000001400f06d0 f   TabID.obj
 0001:000ef70c       ?Init@CTab@@QEAAXAEAV1@@Z  00000001400f070c f   TabID.obj
 0001:000ef714       ?Init@CTab@@QEAAXPEAVCTabID@@@Z 00000001400f0714 f   TabID.obj
 0001:000ef76c       ?IsEqual@CTabID@@QEAA_NPEAVCVirtualConsole@@PEB_WIHHI@Z 00000001400f076c f   TabID.obj
 0001:000ef81c       ?MarkTabsInvalid@CTabStack@@QEAAXW4MatchTabEnum@1@K@Z 00000001400f081c f   TabID.obj
 0001:000ef8c0       ?Ptr@TabName@@QEBAPEB_WXZ  00000001400f08c0 f   TabID.obj
 0001:000ef8c8       ?RefreshFarStatus@CTabStack@@QEAA_NKAEAVCTab@@AEAH1AEA_N@Z 00000001400f08c8 f   TabID.obj
 0001:000efac4       ?ReleaseDrawRegion@CTabID@@QEAAXXZ 00000001400f0ac4 f   TabID.obj
 0001:000efaf0       ?ReleaseTabs@CTabStack@@QEAAXH@Z 00000001400f0af0 f   TabID.obj
 0001:000efc18       ?RequestSize@CTabStack@@IEAAXHPEAUMSectionLockSimple@@@Z 00000001400f0c18 f   TabID.obj
 0001:000efc88       ?Set@CTabID@@QEAA_NPEB_WIHHHI@Z 00000001400f0c88 f   TabID.obj
 0001:000efd34       ?Set@TabName@@QEAAPEB_WPEB_W_N@Z 00000001400f0d34 f   TabID.obj
 0001:000efdd0       ?SetLabel@CTabID@@QEAAXPEB_W@Z 00000001400f0dd0 f   TabID.obj
 0001:000efde0       ?SetName@CTabID@@QEAA_NPEB_W@Z 00000001400f0de0 f   TabID.obj
 0001:000efe54       ?UpdateAppend@CTabStack@@QEAAXPEAXAEAVCTab@@H@Z 00000001400f0e54 f   TabID.obj
 0001:000efe5c       ?UpdateAppend@CTabStack@@QEAAXPEAXPEAVCTabID@@H@Z 00000001400f0e5c f   TabID.obj
 0001:000eff64       ?UpdateBegin@CTabStack@@QEAAPEAXXZ 00000001400f0f64 f   TabID.obj
 0001:000effb8       ?UpdateEnd@CTabStack@@QEAA_NPEAXK@Z 00000001400f0fb8 f   TabID.obj
 0001:000f01c0       ?UpdateFarWindow@CTabStack@@QEAA_NPEAXPEAVCVirtualConsole@@PEB_WIHHHAEAVCTab@@@Z 00000001400f11c0 f   TabID.obj
 0001:000f03d4       ??0CTaskBar@@QEAA@PEAVCConEmuMain@@@Z 00000001400f13d4 f   TaskBar.obj
 0001:000f0444       ??1CTaskBar@@UEAA@XZ       00000001400f1444 f   TaskBar.obj
 0001:000f0498       ??_GCTaskBar@@UEAAPEAXI@Z  00000001400f1498 f i TaskBar.obj
 0001:000f0498       ??_ECTaskBar@@UEAAPEAXI@Z  00000001400f1498 f i TaskBar.obj
 0001:000f04cc       ?Taskbar_AddTabXP@CTaskBar@@QEAAJPEAUHWND__@@@Z 00000001400f14cc f   TaskBar.obj
 0001:000f04e4       ?Taskbar_DeleteTabXP@CTaskBar@@QEAAJPEAUHWND__@@@Z 00000001400f14e4 f   TaskBar.obj
 0001:000f04fc       ?Taskbar_GhostAppend@CTaskBar@@IEAAXPEAX@Z 00000001400f14fc f   TaskBar.obj
 0001:000f055c       ?Taskbar_GhostRemove@CTaskBar@@IEAAXPEAX@Z 00000001400f155c f   TaskBar.obj
 0001:000f05d0       ?Taskbar_GhostReorder@CTaskBar@@QEAAXXZ 00000001400f15d0 f   TaskBar.obj
 0001:000f06e4       ?Taskbar_GhostSnapshotRequired@CTaskBar@@QEAA_NXZ 00000001400f16e4 f   TaskBar.obj
 0001:000f06f0       ?Taskbar_Init@CTaskBar@@QEAAXXZ 00000001400f16f0 f   TaskBar.obj
 0001:000f07e8       ?Taskbar_MarkFullscreenWindow@CTaskBar@@QEAAJPEAUHWND__@@H@Z 00000001400f17e8 f   TaskBar.obj
 0001:000f0944       ?Taskbar_RegisterTab@CTaskBar@@QEAAJPEAUHWND__@@PEAXH@Z 00000001400f1944 f   TaskBar.obj
 0001:000f0a04       ?Taskbar_Release@CTaskBar@@QEAAXXZ 00000001400f1a04 f   TaskBar.obj
 0001:000f0a64       ?Taskbar_SetActiveTab@CTaskBar@@QEAAJPEAUHWND__@@@Z 00000001400f1a64 f   TaskBar.obj
 0001:000f0abc       ?Taskbar_SetOverlay@CTaskBar@@QEAAXPEAUHICON__@@@Z 00000001400f1abc f   TaskBar.obj
 0001:000f0b84       ?Taskbar_SetProgressState@CTaskBar@@QEAAJI@Z 00000001400f1b84 f   TaskBar.obj
 0001:000f0bd0       ?Taskbar_SetProgressValue@CTaskBar@@QEAAJH@Z 00000001400f1bd0 f   TaskBar.obj
 0001:000f0c48       ?Taskbar_SetShield@CTaskBar@@QEAAX_N@Z 00000001400f1c48 f   TaskBar.obj
 0001:000f0cb0       ?Taskbar_UnregisterTab@CTaskBar@@QEAAJPEAUHWND__@@PEAX@Z 00000001400f1cb0 f   TaskBar.obj
 0001:000f0d00       ?Taskbar_UpdateOverlay@CTaskBar@@QEAAXXZ 00000001400f1d00 f   TaskBar.obj
 0001:000f0dd8       ?_Reallocate_exactly@?$vector@PEAXV?$MArrayAllocator@PEAX@@@std@@AEAAX_K@Z 00000001400f1dd8 f i TaskBar.obj
 0001:000f0e78       ?isTaskbarSmallIcons@CTaskBar@@QEAA_NXZ 00000001400f1e78 f   TaskBar.obj
 0001:000f0f24       ??0CTaskBarGhost@@QEAA@PEAVCVirtualConsole@@@Z 00000001400f1f24 f   TaskBarGhost.obj
 0001:000f0fc8       ??1CTaskBarGhost@@UEAA@XZ  00000001400f1fc8 f   TaskBarGhost.obj
 0001:000f1054       ??_ECTaskBarGhost@@UEAAPEAXI@Z 00000001400f2054 f i TaskBarGhost.obj
 0001:000f1054       ??_GCTaskBarGhost@@UEAAPEAXI@Z 00000001400f2054 f i TaskBarGhost.obj
 0001:000f1088       ?ActivateTaskbar@CTaskBarGhost@@QEAAXXZ 00000001400f2088 f   TaskBarGhost.obj
 0001:000f10b4       ?CalcThumbnailSize@CTaskBarGhost@@IEAA_NHHAEAH0@Z 00000001400f20b4 f   TaskBarGhost.obj
 0001:000f112c       ?CheckTitle@CTaskBarGhost@@QEAAPEB_WH@Z 00000001400f212c f   TaskBarGhost.obj
 0001:000f11fc       ?Create@CTaskBarGhost@@SAPEAV1@PEAVCVirtualConsole@@@Z 00000001400f21fc f   TaskBarGhost.obj
 0001:000f13a4       ?CreateTabSnapshot@CTaskBarGhost@@QEAAHXZ 00000001400f23a4 f   TaskBarGhost.obj
 0001:000f1750       ?CreateThumbnail@CTaskBarGhost@@IEAAPEAUHBITMAP__@@HH@Z 00000001400f2750 f   TaskBarGhost.obj
 0001:000f1aa8       ?GetPreviewPosSize@CTaskBarGhost@@IEAAXPEAUtagPOINT@@000@Z 00000001400f2aa8 f   TaskBarGhost.obj
 0001:000f1ba4       ?GhostProc@CTaskBarGhost@@IEAA_JI_K_J@Z 00000001400f2ba4 f   TaskBarGhost.obj
 0001:000f1d0c       ?GhostStatic@CTaskBarGhost@@KA_JPEAUHWND__@@I_K_J@Z 00000001400f2d0c f   TaskBarGhost.obj
 0001:000f1dbc       ?GhostWnd@CTaskBarGhost@@QEAAPEAUHWND__@@XZ 00000001400f2dbc f   TaskBarGhost.obj
 0001:000f1dcc       ?NeedSnapshotCache@CTaskBarGhost@@QEAA_NXZ 00000001400f2dcc f   TaskBarGhost.obj
 0001:000f1e80       ?OnActivate@CTaskBarGhost@@IEAA_J_K_J@Z 00000001400f2e80 f   TaskBarGhost.obj
 0001:000f1fcc       ?OnClose@CTaskBarGhost@@IEAA_JXZ 00000001400f2fcc f   TaskBarGhost.obj
 0001:000f2008       ?OnCreate@CTaskBarGhost@@IEAA_JXZ 00000001400f3008 f   TaskBarGhost.obj
 0001:000f2134       ?OnDestroy@CTaskBarGhost@@IEAA_JXZ 00000001400f3134 f   TaskBarGhost.obj
 0001:000f217c       ?OnDwmSendIconicLivePreviewBitmap@CTaskBarGhost@@IEAA_JXZ 00000001400f317c f   TaskBarGhost.obj
 0001:000f222c       ?OnDwmSendIconicThumbnail@CTaskBarGhost@@IEAA_JFF@Z 00000001400f322c f   TaskBarGhost.obj
 0001:000f2278       ?OnSysCommand@CTaskBarGhost@@IEAA_J_K_J@Z 00000001400f3278 f   TaskBarGhost.obj
 0001:000f2360       ?OnTimer@CTaskBarGhost@@IEAA_J_K@Z 00000001400f3360 f   TaskBarGhost.obj
 0001:000f23c0       ?UpdateGhostSize@CTaskBarGhost@@IEAAXXZ 00000001400f33c0 f   TaskBarGhost.obj
 0001:000f24c0       ?UpdateTabSnapshot@CTaskBarGhost@@QEAAHHH@Z 00000001400f34c0 f   TaskBarGhost.obj
 0001:000f2560       ??$SafeDelete@VMModule@@@@YAXAEAPEAVMModule@@@Z 00000001400f3560 f i TaskScheduler.obj
 0001:000f25a8       ??0CTaskScheduler1@@QEAA@XZ 00000001400f35a8 f   TaskScheduler.obj
 0001:000f25e8       ??0CTaskScheduler2@@QEAA@XZ 00000001400f35e8 f   TaskScheduler.obj
 0001:000f2638       ??0CTaskSchedulerBase@@QEAA@XZ 00000001400f3638 f   TaskScheduler.obj
 0001:000f2694       ??1CTaskScheduler1@@UEAA@XZ 00000001400f3694 f   TaskScheduler.obj
 0001:000f2718       ??1CTaskScheduler2@@UEAA@XZ 00000001400f3718 f   TaskScheduler.obj
 0001:000f2868       ??1CTaskSchedulerBase@@UEAA@XZ 00000001400f3868 f   TaskScheduler.obj
 0001:000f28a4       ??_GCTaskScheduler1@@UEAAPEAXI@Z 00000001400f38a4 f i TaskScheduler.obj
 0001:000f28a4       ??_ECTaskScheduler1@@UEAAPEAXI@Z 00000001400f38a4 f i TaskScheduler.obj
 0001:000f28d8       ??_ECTaskScheduler2@@UEAAPEAXI@Z 00000001400f38d8 f i TaskScheduler.obj
 0001:000f28d8       ??_GCTaskScheduler2@@UEAAPEAXI@Z 00000001400f38d8 f i TaskScheduler.obj
 0001:000f290c       ??_GCTaskSchedulerBase@@UEAAPEAXI@Z 00000001400f390c f i TaskScheduler.obj
 0001:000f290c       ??_ECTaskSchedulerBase@@UEAAPEAXI@Z 00000001400f390c f i TaskScheduler.obj
 0001:000f2940       ?Create@CTaskScheduler1@@UEAAJ_NPEB_W111@Z 00000001400f3940 f   TaskScheduler.obj
 0001:000f2cdc       ?Create@CTaskScheduler2@@UEAAJ_NPEB_W111@Z 00000001400f3cdc f   TaskScheduler.obj
 0001:000f3320       ?CreateProcessScheduled@@YAH_NKPEA_WPEAU_SECURITY_ATTRIBUTES@@2HKPEAXPEB_WPEAU_STARTUPINFOW@@PEAU_PROCESS_INFORMATION@@PEAK@Z 00000001400f4320 f   TaskScheduler.obj
 0001:000f373c       ?DisplaySchedulerError@CTaskSchedulerBase@@QEAAXPEB_W@Z 00000001400f473c f   TaskScheduler.obj
 0001:000f3844       ?GetState@CTaskScheduler1@@UEAA?AW4TaskSchedulerState@@XZ 00000001400f4844 f   TaskScheduler.obj
 0001:000f39bc       ?GetState@CTaskScheduler2@@UEAA?AW4TaskSchedulerState@@XZ 00000001400f49bc f   TaskScheduler.obj
 0001:000f3b44       ?Run@CTaskScheduler1@@UEAAJXZ 00000001400f4b44 f   TaskScheduler.obj
 0001:000f3cc8       ?Run@CTaskScheduler2@@UEAAJXZ 00000001400f4cc8 f   TaskScheduler.obj
 0001:000f3e08       ??0TermX@@QEAA@XZ          00000001400f4e08 f   TermX.obj
 0001:000f3e20       ?GetSubstitute@TermX@@QEAA_NAEBU_KEY_EVENT_RECORD@@AEAUCEStr@@@Z 00000001400f4e20 f   TermX.obj
 0001:000f4430       ?GetSubstitute@TermX@@QEAA_NAEBU_MOUSE_EVENT_RECORD@@W4TermMouseMode@@AEAUCEStr@@@Z 00000001400f5430 f   TermX.obj
 0001:000f486c       ?Reset@TermX@@QEAAXXZ      00000001400f586c f   TermX.obj
 0001:000f489c       ??0CToolImg@@QEAA@XZ       00000001400f589c f   ToolImg.obj
 0001:000f48e4       ??1CToolImg@@QEAA@XZ       00000001400f58e4 f   ToolImg.obj
 0001:000f4904       ?AddBitmap@CToolImg@@IEAAHPEAUHBITMAP__@@H@Z 00000001400f5904 f   ToolImg.obj
 0001:000f49d8       ?AddButtons@CToolImg@@QEAAHPEAUHINSTANCE__@@_JH@Z 00000001400f59d8 f   ToolImg.obj
 0001:000f4a50       ?AddButtonsMapped@CToolImg@@QEAAHPEAUHINSTANCE__@@_JHHKKZZ 00000001400f5a50 f   ToolImg.obj
 0001:000f4ac8       ?Create@CToolImg@@QEAA_NHHHK@Z 00000001400f5ac8 f   ToolImg.obj
 0001:000f4b44       ?CreateButtonField@CToolImg@@IEAA_NPEB_WKPEAUButtonRowInfo@1@H_N@Z 00000001400f5b44 f   ToolImg.obj
 0001:000f4c48       ?CreateDonateButton@CToolImg@@SAPEAV1@XZ 00000001400f5c48 f   ToolImg.obj
 0001:000f4d3c       ?CreateField@CToolImg@@IEAA_NHHK@Z 00000001400f5d3c f   ToolImg.obj
 0001:000f4e94       ?CreateSearchButton@CToolImg@@SAPEAV1@XZ 00000001400f5e94 f   ToolImg.obj
 0001:000f4f98       ?FreeBMP@CToolImg@@IEAAXXZ 00000001400f5f98 f   ToolImg.obj
 0001:000f4fd0       ?FreeDC@CToolImg@@IEAAXXZ  00000001400f5fd0 f   ToolImg.obj
 0001:000f501c       ?GetBitmap@CToolImg@@QEAAPEAUHBITMAP__@@XZ 00000001400f601c f   ToolImg.obj
 0001:000f5034       ?GetSizeForHeight@CToolImg@@QEAA_NHAEAH0@Z 00000001400f6034 f   ToolImg.obj
 0001:000f5104       ?PaintBitmap@CToolImg@@IEAA_NPEAUHBITMAP__@@HHPEAUHDC__@@HHHH@Z 00000001400f6104 f   ToolImg.obj
 0001:000f51f4       ?PaintButton@CToolImg@@QEAA_NHPEAUHDC__@@HHHH@Z 00000001400f61f4 f   ToolImg.obj
 0001:000f54bc       ?AddTrayIcon@TrayIcon@@QEAAXXZ 00000001400f64bc f   TrayIcon.obj
 0001:000f5514       ?HideWindowToTray@TrayIcon@@QEAAXPEB_W@Z 00000001400f6514 f   TrayIcon.obj
 0001:000f55dc       ?LoadIconW@TrayIcon@@QEAAXPEAUHWND__@@H@Z 00000001400f65dc f   TrayIcon.obj
 0001:000f5614       ?OnTaskbarCreated@TrayIcon@@QEAAXXZ 00000001400f6614 f   TrayIcon.obj
 0001:000f5634       ?OnTryIcon@TrayIcon@@QEAA_JPEAUHWND__@@I_K_J@Z 00000001400f6634 f   TrayIcon.obj
 0001:000f5938       ?RemoveTrayIcon@TrayIcon@@QEAAX_N@Z 00000001400f6938 f   TrayIcon.obj
 0001:000f5988       ?RestoreWindowFromTray@TrayIcon@@QEAAX_N0@Z 00000001400f6988 f   TrayIcon.obj
 0001:000f5a70       ?SetMenuItemText@TrayIcon@@AEAAXPEAUHMENU__@@IPEB_W@Z 00000001400f6a70 f   TrayIcon.obj
 0001:000f5b04       ?SettingsChanged@TrayIcon@@QEAAXXZ 00000001400f6b04 f   TrayIcon.obj
 0001:000f5b8c       ?ShowTrayIcon@TrayIcon@@QEAAXPEB_WW4TrayIconMsgSource@@@Z 00000001400f6b8c f   TrayIcon.obj
 0001:000f5c18       ?UpdateTitle@TrayIcon@@QEAAXXZ 00000001400f6c18 f   TrayIcon.obj
 0001:000f5d00       ??$swprintf_c@$0IAA@@@YAHAEAY0IAA@_WPEB_WZZ 00000001400f6d00 f i Update.obj
 0001:000f5d2c       ??0CConEmuUpdate@@QEAA@XZ  00000001400f6d2c f   Update.obj
 0001:000f5ec4       ??1CConEmuUpdate@@QEAA@XZ  00000001400f6ec4 f   Update.obj
 0001:000f6184       ?Check7zipInstalled@CConEmuUpdate@@IEAA_NXZ 00000001400f7184 f   Update.obj
 0001:000f6240       ?CheckProcInt@CConEmuUpdate@@IEAAKXZ 00000001400f7240 f   Update.obj
 0001:000f6964       ?CheckThreadProc@CConEmuUpdate@@KAKPEAX@Z 00000001400f7964 f   Update.obj
 0001:000f69a4       ?CreateBatchFile@CConEmuUpdate@@IEAAPEA_WPEB_W@Z 00000001400f79a4 f   Update.obj
 0001:000f78d4       ?CreateTempFile@CConEmuUpdate@@IEAAPEA_WPEB_W0AEAPEAX@Z 00000001400f88d4 f   Update.obj
 0001:000f7c98       ?CreateVersionOnServerInfo@CConEmuUpdate@@IEAAPEA_W_NPEB_W@Z 00000001400f8c98 f   Update.obj
 0001:000f7d08       ?Deinit@wininet@CConEmuUpdate@@QEAA_N_N@Z 00000001400f8d08 f   Update.obj
 0001:000f7d34       ?DeleteBadTempFiles@CConEmuUpdate@@IEAAXXZ 00000001400f8d34 f   Update.obj
 0001:000f7dbc       ?DownloadFile@CConEmuUpdate@@IEAAHPEB_W0AEAKHPEAT_LARGE_INTEGER@@@Z 00000001400f8dbc f   Update.obj
 0001:000f7fdc       ?ErrorCallback@CConEmuUpdate@@KAXPEBUCEDownloadInfo@@@Z 00000001400f8fdc f   Update.obj
 0001:000f8008       ?GetCurVerInfo@CConEmuUpdate@@QEAAPEA_WXZ 00000001400f9008 f   Update.obj
 0001:000f80c4       ?GetFormatted@CEDownloadInfo@@QEBAPEA_W_N@Z 00000001400f90c4 f i Update.obj
 0001:000f8218       ?GetUpdateProgress@CConEmuUpdate@@QEAAFXZ 00000001400f9218 f   Update.obj
 0001:000f82b8       ?GetVersionsFromIni@CConEmuUpdate@@IEAAXPEB_WAEAY0GE@_W11@Z 00000001400f92b8 f   Update.obj
 0001:000f8518       ?InUpdate@CConEmuUpdate@@QEAA?AW4UpdateStep@1@XZ 00000001400f9518 f   Update.obj
 0001:000f8564       ?Init@wininet@CConEmuUpdate@@QEAA_NPEAV2@@Z 00000001400f9564 f   Update.obj
 0001:000f8718       ?IsLocalFile@CConEmuUpdate@@IEAA_NAEAPEA_W@Z 00000001400f9718 f   Update.obj
 0001:000f87d0       ?IsLocalFile@CConEmuUpdate@@IEAA_NAEAPEB_W@Z 00000001400f97d0 f   Update.obj
 0001:000f87fc       ?IsUpdatePackage@CConEmuUpdate@@SA_NPEB_W@Z 00000001400f97fc f   Update.obj
 0001:000f892c       ?LoadVersionInfoFromServer@CConEmuUpdate@@IEAA_NXZ 00000001400f992c f   Update.obj
 0001:000f8d58       ?LocalUpdate@CConEmuUpdate@@SA_NPEB_W@Z 00000001400f9d58 f   Update.obj
 0001:000f8dbc       ?LogCallback@CConEmuUpdate@@KAXPEBUCEDownloadInfo@@@Z 00000001400f9dbc f   Update.obj
 0001:000f8e50       ?NeedRunElevation@CConEmuUpdate@@SA_NXZ 00000001400f9e50 f   Update.obj
 0001:000f9028       ?ProgressCallback@CConEmuUpdate@@KAXPEBUCEDownloadInfo@@@Z 00000001400fa028 f   Update.obj
 0001:000f9070       ?QueryConfirmation@CConEmuUpdate@@IEAAHW4UpdateStep@1@@Z 00000001400fa070 f   Update.obj
 0001:000f9188       ?QueryConfirmationCallback@CConEmuUpdate@@KA_J_J@Z 00000001400fa188 f   Update.obj
 0001:000f91b8       ?QueryConfirmationDownload@CConEmuUpdate@@IEAAHXZ 00000001400fa1b8 f   Update.obj
 0001:000f95dc       ?QueryConfirmationNoNewVer@CConEmuUpdate@@IEAAHXZ 00000001400fa5dc f   Update.obj
 0001:000f9960       ?QueryConfirmationUpdate@CConEmuUpdate@@IEAAHXZ 00000001400fa960 f   Update.obj
 0001:000f9c1c       ?QueryRetryVersionCheck@CConEmuUpdate@@KA_J_J@Z 00000001400fac1c f   Update.obj
 0001:000f9dd4       ?ReportBrokenIni@CConEmuUpdate@@IEAAXPEB_W000@Z 00000001400fadd4 f   Update.obj
 0001:000f9ef0       ?ReportError@CConEmuUpdate@@IEAAXPEB_W00K@Z 00000001400faef0 f   Update.obj
 0001:000f9fbc       ?ReportError@CConEmuUpdate@@IEAAXPEB_W0K@Z 00000001400fafbc f   Update.obj
 0001:000fa068       ?ReportError@CConEmuUpdate@@IEAAXPEB_WK@Z 00000001400fb068 f   Update.obj
 0001:000fa0ec       ?ReportErrorInt@CConEmuUpdate@@IEAAXPEA_W@Z 00000001400fb0ec f   Update.obj
 0001:000fa2d0       ?RequestExitUpdate@CConEmuUpdate@@KA_J_J@Z 00000001400fb2d0 f   Update.obj
 0001:000fa318       ?RequestTerminate@CConEmuUpdate@@IEAAXXZ 00000001400fb318 f   Update.obj
 0001:000fa358       ?SetCallback@wininet@CConEmuUpdate@@QEAAXW4CEDownloadCommand@@P6AXPEBUCEDownloadInfo@@@Z_J@Z 00000001400fb358 f   Update.obj
 0001:000fa38c       ?ShowLastError@CConEmuUpdate@@KA_J_J@Z 00000001400fb38c f   Update.obj
 0001:000fa490       ?StartCheckProcedure@CConEmuUpdate@@QEAAXI@Z 00000001400fb490 f   Update.obj
 0001:000fa73c       ?StartLocalUpdate@CConEmuUpdate@@IEAA_NPEB_W@Z 00000001400fb73c f   Update.obj
 0001:000fac60       ?StopChecking@CConEmuUpdate@@QEAAXXZ 00000001400fbc60 f   Update.obj
 0001:000fad7c       ?WaitAllInstances@CConEmuUpdate@@IEAAXXZ 00000001400fbd7c f   Update.obj
 0001:000faed0       ??$wcscpy_c@$0BAG@@@YAHAEAY0BAG@_WPEB_W@Z 00000001400fbed0 f i UpdateSet.obj
 0001:000faf1c       ??0ConEmuUpdateSettings@@QEAA@XZ 00000001400fbf1c f   UpdateSet.obj
 0001:000faf5c       ??1ConEmuUpdateSettings@@QEAA@XZ 00000001400fbf5c f   UpdateSet.obj
 0001:000faf98       ?CheckHourlyUpdate@ConEmuUpdateSettings@@QEAAXXZ 00000001400fbf98 f   UpdateSet.obj
 0001:000fafdc       ?FreePointers@ConEmuUpdateSettings@@QEAAXXZ 00000001400fbfdc f   UpdateSet.obj
 0001:000fb094       ?GetDefaultUpdateChannel@ConEmuUpdateSettings@@SA?AW4Builds@1@XZ 00000001400fc094 f   UpdateSet.obj
 0001:000fb098       ?GetUpdateInetToolCmd@ConEmuUpdateSettings@@QEAAPEB_WXZ 00000001400fc098 f   UpdateSet.obj
 0001:000fb0b8       ?IsVerLocationDeprecated@ConEmuUpdateSettings@@QEAA_NPEB_W@Z 00000001400fc0b8 f   UpdateSet.obj
 0001:000fb1a8       ?LoadFrom@ConEmuUpdateSettings@@QEAAXPEAU1@@Z 00000001400fc1a8 f   UpdateSet.obj
 0001:000fb2bc       ?ResetToDefaults@ConEmuUpdateSettings@@QEAAXXZ 00000001400fc2bc f   UpdateSet.obj
 0001:000fb604       ?SetUpdateVerLocation@ConEmuUpdateSettings@@QEAAXPEB_W@Z 00000001400fc604 f   UpdateSet.obj
 0001:000fb6b4       ?UpdateArcCmdLine@ConEmuUpdateSettings@@QEAAPEB_WXZ 00000001400fc6b4 f   UpdateSet.obj
 0001:000fb6d8       ?UpdateDownloadSetup@ConEmuUpdateSettings@@QEAAEXZ 00000001400fc6d8 f   UpdateSet.obj
 0001:000fb8ac       ?UpdateExeCmdLine@ConEmuUpdateSettings@@QEAAPEB_WAEAY03_W@Z 00000001400fc8ac f   UpdateSet.obj
 0001:000fb908       ?UpdateVerLocation@ConEmuUpdateSettings@@QEAAPEB_WXZ 00000001400fc908 f   UpdateSet.obj
 0001:000fb920       ?UpdateVerLocationDefault@ConEmuUpdateSettings@@QEAAPEB_WXZ 00000001400fc920 f   UpdateSet.obj
 0001:000fb928       ?UpdatesAllowed@ConEmuUpdateSettings@@QEAA_NAEAY0IA@_W@Z 00000001400fc928 f   UpdateSet.obj
 0001:000fbb3c       ??0CConEmuChild@@QEAA@PEAVCVirtualConsole@@@Z 00000001400fcb3c f   VConChild.obj
 0001:000fbce0       ??1CConEmuChild@@MEAA@XZ   00000001400fcce0 f   VConChild.obj
 0001:000fbd30       ??_ECConEmuChild@@MEAAPEAXI@Z 00000001400fcd30 f i VConChild.obj
 0001:000fbd30       ??_GCConEmuChild@@MEAAPEAXI@Z 00000001400fcd30 f i VConChild.obj
 0001:000fbd64       ?BackWndProc@CConEmuChild@@SA_JPEAUHWND__@@I_K_J@Z 00000001400fcd64 f   VConChild.obj
 0001:000fc278       ?CalcDCMargins@CConEmuChild@@QEAA?AUtagRECT@@AEBU2@@Z 00000001400fd278 f   VConChild.obj
 0001:000fc4bc       ?CheckMouseOverScroll@CConEmuChild@@QEAA_NXZ 00000001400fd4bc f   VConChild.obj
 0001:000fc654       ?CheckPostRedraw@CConEmuChild@@QEAAXXZ 00000001400fd654 f   VConChild.obj
 0001:000fc690       ?ChildWndProc@CConEmuChild@@SA_JPEAUHWND__@@I_K_J@Z 00000001400fd690 f   VConChild.obj
 0001:000fce38       ?CreateView@CConEmuChild@@QEAAPEAUHWND__@@XZ 00000001400fde38 f   VConChild.obj
 0001:000fd050       ?DoDestroyDcWindow@CConEmuChild@@QEAAXXZ 00000001400fe050 f   VConChild.obj
 0001:000fd104       ?GetBack@CConEmuChild@@QEAAPEAUHWND__@@XZ 00000001400fe104 f   VConChild.obj
 0001:000fd114       ?GetView@CConEmuChild@@QEAAPEAUHWND__@@XZ 00000001400fe114 f   VConChild.obj
 0001:000fd124       ?HideScroll@CConEmuChild@@IEAAX_N@Z 00000001400fe124 f   VConChild.obj
 0001:000fd29c       ?InScroll@CConEmuChild@@QEAA_NXZ 00000001400fe29c f   VConChild.obj
 0001:000fd2d4       ?Invalidate@CConEmuChild@@QEAAXXZ 00000001400fe2d4 f   VConChild.obj
 0001:000fd308       ?InvalidateBack@CConEmuChild@@IEAAXXZ 00000001400fe308 f   VConChild.obj
 0001:000fd328       ?InvalidateView@CConEmuChild@@IEAAXXZ 00000001400fe328 f   VConChild.obj
 0001:000fd48c       ?IsDcLocked@CConEmuChild@@QEAAHPEAUtagRECT@@@Z 00000001400fe48c f   VConChild.obj
 0001:000fd4dc       ?IsInvalidatePending@CConEmuChild@@QEAA_NXZ 00000001400fe4dc f   VConChild.obj
 0001:000fd4ec       ?LockDcRect@CConEmuChild@@QEAAX_NPEAUtagRECT@@@Z 00000001400fe4ec f   VConChild.obj
 0001:000fd630       ?MySetScrollInfo@CConEmuChild@@IEAAX_N0@Z 00000001400fe630 f   VConChild.obj
 0001:000fd738       ?OnAlwaysShowScrollbar@CConEmuChild@@QEAAX_N@Z 00000001400fe738 f   VConChild.obj
 0001:000fd834       ?OnMove@CConEmuChild@@IEAA_J_K_J@Z 00000001400fe834 f   VConChild.obj
 0001:000fd8d4       ?OnPaint@CConEmuChild@@QEAA_JXZ 00000001400fe8d4 f   VConChild.obj
 0001:000fdb30       ?OnPaintGaps@CConEmuChild@@QEAA_JPEAUHDC__@@@Z 00000001400feb30 f   VConChild.obj
 0001:000fde0c       ?OnSize@CConEmuChild@@IEAA_J_K_J@Z 00000001400fee0c f   VConChild.obj
 0001:000fdeac       ?OnVConSizePosChanged@CConEmuChild@@QEAAXXZ 00000001400feeac f   VConChild.obj
 0001:000fdefc       ?PostDetach@CConEmuChild@@QEAAX_N@Z 00000001400feefc f   VConChild.obj
 0001:000fdf14       ?PostOnVConClosed@CConEmuChild@@IEAAXXZ 00000001400fef14 f   VConChild.obj
 0001:000fdf78       ?PostRestoreChildFocus@CConEmuChild@@QEAAXXZ 00000001400fef78 f   VConChild.obj
 0001:000fdfac       ?ProcessVConClosed@CConEmuChild@@SAXPEAVCVirtualConsole@@_N@Z 00000001400fefac f   VConChild.obj
 0001:000fe03c       ?Redraw@CConEmuChild@@QEAAX_N@Z 00000001400ff03c f   VConChild.obj
 0001:000fe120       ?RestoreChildFocusPending@CConEmuChild@@QEAAX_N@Z 00000001400ff120 f   VConChild.obj
 0001:000fe154       ?SetAutoCopyTimer@CConEmuChild@@QEAAX_N@Z 00000001400ff154 f   VConChild.obj
 0001:000fe198       ?SetRedraw@CConEmuChild@@QEAAX_N@Z 00000001400ff198 f   VConChild.obj
 0001:000fe1a4       ?SetScroll@CConEmuChild@@QEAAX_NHHH@Z 00000001400ff1a4 f   VConChild.obj
 0001:000fe2c8       ?SetVConSizePos@CConEmuChild@@QEAAXAEBUtagRECT@@0_N@Z 00000001400ff2c8 f   VConChild.obj
 0001:000fe398       ?SetVConSizePos@CConEmuChild@@QEAAXAEBUtagRECT@@_N@Z 00000001400ff398 f   VConChild.obj
 0001:000fe410       ?ShowScroll@CConEmuChild@@IEAAX_N@Z 00000001400ff410 f   VConChild.obj
 0001:000fe5b8       ?ShowView@CConEmuChild@@QEAA_NH@Z 00000001400ff5b8 f   VConChild.obj
 0001:000fe7cc       ?TrackMouse@CConEmuChild@@QEAA_NXZ 00000001400ff7cc f   VConChild.obj
 0001:000fe8e0       ?UpdateScrollRgn@CConEmuChild@@IEAAX_N@Z 00000001400ff8e0 f   VConChild.obj
 0001:000fea6c       ?isAlreadyDestroyed@CConEmuChild@@QEAA_NXZ 00000001400ffa6c f   VConChild.obj
 0001:000fea74       ??0CGroupGuard@@QEAA@PEAVCVConGroup@@@Z 00000001400ffa74 f   VConGroup.obj
 0001:000feac8       ??0CVConGroup@@AEAA@PEAV0@@Z 00000001400ffac8 f   VConGroup.obj
 0001:000febdc       ??1?$CRefGuard@VCVConGroup@@@@UEAA@XZ 00000001400ffbdc f i VConGroup.obj
 0001:000fec28       ??1CGroupGuard@@UEAA@XZ    00000001400ffc28 f   VConGroup.obj
 0001:000fec74       ??1CVConGroup@@MEAA@XZ     00000001400ffc74 f   VConGroup.obj
 0001:000fecd4       ??_G?$CRefGuard@VCVConGroup@@@@UEAAPEAXI@Z 00000001400ffcd4 f i VConGroup.obj
 0001:000fecd4       ??_E?$CRefGuard@VCVConGroup@@@@UEAAPEAXI@Z 00000001400ffcd4 f i VConGroup.obj
 0001:000fed40       ??_GCGroupGuard@@UEAAPEAXI@Z 00000001400ffd40 f i VConGroup.obj
 0001:000fed40       ??_ECGroupGuard@@UEAAPEAXI@Z 00000001400ffd40 f i VConGroup.obj
 0001:000fed74       ??_ECVConGroup@@MEAAPEAXI@Z 00000001400ffd74 f i VConGroup.obj
 0001:000fed74       ??_GCVConGroup@@MEAAPEAXI@Z 00000001400ffd74 f i VConGroup.obj
 0001:000feda8       ?Activate@CVConGroup@@SA_NPEAVCVirtualConsole@@@Z 00000001400ffda8 f   VConGroup.obj
 0001:000fee00       ?ActivateNextPane@CVConGroup@@SA_NPEAVCVirtualConsole@@HH@Z 00000001400ffe00 f   VConGroup.obj
 0001:000feee4       ?ActiveConNum@CVConGroup@@SAHXZ 00000001400ffee4 f   VConGroup.obj
 0001:000fef14       ?AllTextRect@CVConGroup@@SA?AUtagRECT@@PEAUtagSIZE@@_N@Z 00000001400fff14 f   VConGroup.obj
 0001:000ff15c       ?Attach@CGroupGuard@@UEAA_NPEAVCVConGroup@@@Z 000000014010015c f   VConGroup.obj
 0001:000ff204       ?AttachRequested@CVConGroup@@SAHPEAUHWND__@@PEBUCESERVER_REQ_STARTSTOP@@AEAUCESERVER_REQ_SRVSTARTSTOPRET@@@Z 0000000140100204 f   VConGroup.obj
 0001:000ff590       ?AttachRequestedGui@CVConGroup@@SAPEAVCRealConsole@@KPEB_WK@Z 0000000140100590 f   VConGroup.obj
 0001:000ff770       ?CalcRect@CVConGroup@@SA?AUtagRECT@@W4ConEmuRect@@U2@0PEAVCVirtualConsole@@W4ConEmuMargins@@@Z 0000000140100770 f   VConGroup.obj
 0001:000ffc20       ?CalcSplitRect@CVConGroup@@IEBAXIUtagRECT@@AEAU2@11@Z 0000000140100c20 f   VConGroup.obj
 0001:000fffe8       ?CalcSplitRootRect@CVConGroup@@IEBAXUtagRECT@@AEAU2@PEBV1@@Z 0000000140100fe8 f   VConGroup.obj
 0001:001000c4       ?CheckProcesses@CVConGroup@@SAKXZ 00000001401010c4 f   VConGroup.obj
 0001:00100124       ?CloseAllButActive@CVConGroup@@SAXPEAVCVirtualConsole@@W4CloseConsoleMode@1@_N@Z 0000000140101124 f   VConGroup.obj
 0001:001002d4       ?CloseGroup@CVConGroup@@SAXPEAVCVirtualConsole@@_N@Z 00000001401012d4 f   VConGroup.obj
 0001:001003d4       ?CloseQuery@CVConGroup@@CA_NPEAV?$MArray@PEAVCVConGuard@@@@PEA_N_N2@Z 00000001401013d4 f   VConGroup.obj
 0001:001007b8       ?ConActivate@CVConGroup@@CA_NAEAVCVConGuard@@H@Z 00000001401017b8 f   VConGroup.obj
 0001:00100a5c       ?ConActivate@CVConGroup@@SA_NH@Z 0000000140101a5c f   VConGroup.obj
 0001:00100b38       ?ConActivateByName@CVConGroup@@SA_NPEB_W@Z 0000000140101b38 f   VConGroup.obj
 0001:00100b94       ?ConActivateNext@CVConGroup@@SA_N_N@Z 0000000140101b94 f   VConGroup.obj
 0001:00100c44       ?CreateCon@CVConGroup@@SAPEAVCVirtualConsole@@AEAURConStartArgsEx@@_N1@Z 0000000140101c44 f   VConGroup.obj
 0001:001011a0       ?CreateVCon@CVConGroup@@CAPEAVCVirtualConsole@@AEAURConStartArgsEx@@AEAPEAV2@H@Z 00000001401021a0 f   VConGroup.obj
 0001:001013a8       ?CreateVConGroup@CVConGroup@@CAPEAV1@XZ 00000001401023a8 f   VConGroup.obj
 0001:001013d4       ?Deinitialize@CVConGroup@@SAXXZ 00000001401023d4 f   VConGroup.obj
 0001:001013e0       ?DestroyAllVCon@CVConGroup@@SAXXZ 00000001401023e0 f   VConGroup.obj
 0001:0010149c       ?DoCloseAllVCon@CVConGroup@@SA_N_N@Z 000000014010249c f   VConGroup.obj
 0001:00101658       ?DoSrvCreated@CVConGroup@@SAPEAUHWND__@@KQEAU2@KAEAK1AEAHAEAUCESERVER_REQ_SRVSTARTSTOPRET@@@Z 0000000140102658 f   VConGroup.obj
 0001:00101758       ?EnumVCon@CVConGroup@@SA_NW4EnumVConFlags@@V?$function@$$A6A_NPEAVCVirtualConsole@@_J@Z@std@@_J@Z 0000000140102758 f   VConGroup.obj
 0001:0010189c       ?ExchangePanes@CVConGroup@@SA_NPEAVCVirtualConsole@@HH@Z 000000014010289c f   VConGroup.obj
 0001:00101a3c       ?ExportEnvVarAll@CVConGroup@@SAXPEAUCESERVER_REQ@@PEAVCRealConsole@@@Z 0000000140102a3c f   VConGroup.obj
 0001:00101bd0       ?FindNextPane@CVConGroup@@IEBAPEAV1@AEBUtagRECT@@HH@Z 0000000140102bd0 f   VConGroup.obj
 0001:00101dc8       ?FindSplitGroup@CVConGroup@@KAPEAV1@UtagPOINT@@PEAV1@@Z 0000000140102dc8 f   VConGroup.obj
 0001:00101f00       ?FreePanesArray@CVConGroup@@SAXAEAV?$MArray@PEAVCVConGuard@@@@@Z 0000000140102f00 f   VConGroup.obj
 0001:00101fa8       ?GetActiveVCon@CVConGroup@@SAHPEAVCVConGuard@@PEAH@Z 0000000140102fa8 f   VConGroup.obj
 0001:00102050       ?GetAllTextSize@CVConGroup@@IEAAXAEAUtagSIZE@@0_N@Z 0000000140103050 f   VConGroup.obj
 0001:001021d0       ?GetConCount@CVConGroup@@SAH_N@Z 00000001401031d0 f   VConGroup.obj
 0001:00102230       ?GetExclusionRgn@CVConGroup@@SAPEAUHRGN__@@XZ 0000000140103230 f   VConGroup.obj
 0001:001022e0       ?GetFarPID@CVConGroup@@SAK_N@Z 00000001401032e0 f   VConGroup.obj
 0001:0010232c       ?GetGroupPanes@CVConGroup@@QEAAHPEAV?$MArray@PEAVCVConGuard@@@@@Z 000000014010332c f   VConGroup.obj
 0001:001023f0       ?GetProgressInfo@CVConGroup@@SA_NPEAFPEAH11@Z 00000001401033f0 f   VConGroup.obj
 0001:001025a4       ?GetRootOfVCon@CVConGroup@@KAPEAV1@PEAVCVirtualConsole@@@Z 00000001401035a4 f   VConGroup.obj
 0001:001025f4       ?GetTasks@CVConGroup@@SAPEA_WXZ 00000001401035f4 f   VConGroup.obj
 0001:00102a00       ?GetVCon@CVConGroup@@SA_NHPEAVCVConGuard@@_N@Z 0000000140103a00 f   VConGroup.obj
 0001:00102a50       ?GetVConByHWND@CVConGroup@@SA_NPEAUHWND__@@0PEAVCVConGuard@@@Z 0000000140103a50 f   VConGroup.obj
 0001:00102aac       ?GetVConByName@CVConGroup@@SA_NPEB_WPEAVCVConGuard@@@Z 0000000140103aac f   VConGroup.obj
 0001:00102bc8       ?GetVConBySrvPID@CVConGroup@@SA_NKKPEAVCVConGuard@@@Z 0000000140103bc8 f   VConGroup.obj
 0001:00102d10       ?GetVConFromPoint@CVConGroup@@SA_NUtagPOINT@@PEAVCVConGuard@@@Z 0000000140103d10 f   VConGroup.obj
 0001:00102e28       ?GetVConIndex@CVConGroup@@SAHPEAVCVirtualConsole@@@Z 0000000140103e28 f   VConGroup.obj
 0001:00102e4c       ?GroupInput@CVConGroup@@SAXPEAVCVirtualConsole@@W4GroupInputCmd@@@Z 0000000140103e4c f   VConGroup.obj
 0001:00102f64       ?GroupSelectedInput@CVConGroup@@SAXPEAVCVirtualConsole@@@Z 0000000140103f64 f   VConGroup.obj
 0001:00103000       ?InCreateGroup@CVConGroup@@SA_NXZ 0000000140104000 f   VConGroup.obj
 0001:00103008       ?Initialize@CVConGroup@@SAXXZ 0000000140104008 f   VConGroup.obj
 0001:0010303c       ?InvalidateAll@CVConGroup@@SAXXZ 000000014010403c f   VConGroup.obj
 0001:001030a4       ?InvalidateGaps@CVConGroup@@SAXXZ 00000001401040a4 f   VConGroup.obj
 0001:001030c4       ?LogInput@CVConGroup@@SAXI_K_JPEB_W@Z 00000001401040c4 f   VConGroup.obj
 0001:00103134       ?LogString@CVConGroup@@SAXPEBD@Z 0000000140104134 f   VConGroup.obj
 0001:00103174       ?LogString@CVConGroup@@SAXPEB_W@Z 0000000140104174 f   VConGroup.obj
 0001:001031b4       ?MoveActiveTab@CVConGroup@@SAXPEAVCVirtualConsole@@_N@Z 00000001401041b4 f   VConGroup.obj
 0001:00103258       ?MoveAllVCon@CVConGroup@@SAXPEAVCVirtualConsole@@UtagRECT@@@Z 0000000140104258 f   VConGroup.obj
 0001:001033a0       ?MoveToParent@CVConGroup@@IEAAXPEAV1@@Z 00000001401043a0 f   VConGroup.obj
 0001:00103434       ?NotifyChildrenWindows@CVConGroup@@SAXXZ 0000000140104434 f   VConGroup.obj
 0001:001034b0       ?OnAlwaysShowScrollbar@CVConGroup@@SAX_N@Z 00000001401044b0 f   VConGroup.obj
 0001:001034ec       ?OnCloseQuery@CVConGroup@@SA_NPEA_N@Z 00000001401044ec f   VConGroup.obj
 0001:0010354c       ?OnConActivated@CVConGroup@@SAXPEAVCVirtualConsole@@@Z 000000014010454c f   VConGroup.obj
 0001:00103570       ?OnConsoleResize@CVConGroup@@SAX_N@Z 0000000140104570 f   VConGroup.obj
 0001:00103814       ?OnCreateGroupBegin@CVConGroup@@SAXXZ 0000000140104814 f   VConGroup.obj
 0001:00103840       ?OnCreateGroupEnd@CVConGroup@@SAXXZ 0000000140104840 f   VConGroup.obj
 0001:00103864       ?OnDestroyConEmu@CVConGroup@@SAXXZ 0000000140104864 f   VConGroup.obj
 0001:00103904       ?OnFlashWindow@CVConGroup@@SA_NKKKPEAUHWND__@@@Z 0000000140104904 f   VConGroup.obj
 0001:00103b4c       ?OnGuiFocused@CVConGroup@@SAX_N0@Z 0000000140104b4c f   VConGroup.obj
 0001:00103bd8       ?OnMouseEvent@CVConGroup@@SA_JPEAUHWND__@@I_K_J@Z 0000000140104bd8 f   VConGroup.obj
 0001:00103e24       ?OnPaintGaps@CVConGroup@@SAXPEAUHDC__@@@Z 0000000140104e24 f   VConGroup.obj
 0001:00103fec       ?OnPaintSplitter@CVConGroup@@IEAAXPEAUHDC__@@PEAUHBRUSH__@@@Z 0000000140104fec f   VConGroup.obj
 0001:001040fc       ?OnPanelViewSettingsChanged@CVConGroup@@SAXXZ 00000001401050fc f   VConGroup.obj
 0001:0010412c       ?OnRConTimerCheck@CVConGroup@@SAXXZ 000000014010512c f   VConGroup.obj
 0001:0010418c       ?OnTaskbarCreated@CVConGroup@@SAXXZ 000000014010518c f   VConGroup.obj
 0001:001041f8       ?OnTaskbarSettingsChanged@CVConGroup@@SAXXZ 00000001401051f8 f   VConGroup.obj
 0001:0010424c       ?OnUpdateFarSettings@CVConGroup@@SAXXZ 000000014010524c f   VConGroup.obj
 0001:001042ac       ?OnUpdateGuiInfoMapping@CVConGroup@@SAXPEAUConEmuGuiMapping@@@Z 00000001401052ac f   VConGroup.obj
 0001:00104328       ?OnUpdateProcessDisplay@CVConGroup@@SAXPEAUHWND__@@@Z 0000000140105328 f   VConGroup.obj
 0001:001044d4       ?OnUpdateScrollInfo@CVConGroup@@SAXXZ 00000001401054d4 f   VConGroup.obj
 0001:00104544       ?OnUpdateTextColorSettings@CVConGroup@@SAX_N0PEBUAppSettings@@@Z 0000000140105544 f   VConGroup.obj
 0001:001045cc       ?OnVConClosed@CVConGroup@@SAXPEAVCVirtualConsole@@@Z 00000001401055cc f   VConGroup.obj
 0001:00104868       ?OnVConCreated@CVConGroup@@SAXPEAVCVirtualConsole@@PEBURConStartArgsEx@@@Z 0000000140105868 f   VConGroup.obj
 0001:001048c4       ?OnVConDestroyed@CVConGroup@@SAXPEAVCVirtualConsole@@@Z 00000001401058c4 f   VConGroup.obj
 0001:00104904       ?PaneActivateNext@CVConGroup@@SA_N_N@Z 0000000140105904 f   VConGroup.obj
 0001:00104a58       ?PaneMaximizeRestore@CVConGroup@@SAXPEAVCVirtualConsole@@@Z 0000000140105a58 f   VConGroup.obj
 0001:00104b80       ?PopulateSplitPanes@CVConGroup@@AEBAXAEAV?$MArray@PEAVCVConGuard@@@@@Z 0000000140105b80 f   VConGroup.obj
 0001:00104d80       ?PreReSize@CVConGroup@@SA_NIUtagRECT@@W4ConEmuRect@@_N@Z 0000000140105d80 f   VConGroup.obj
 0001:00104efc       ?ReSizePanes@CVConGroup@@SAXUtagRECT@@@Z 0000000140105efc f   VConGroup.obj
 0001:00104f48       ?ReSizeSplitter@CVConGroup@@IEAA_NH@Z 0000000140105f48 f   VConGroup.obj
 0001:00105240       ?ReSizeSplitter@CVConGroup@@SA_NPEAVCVirtualConsole@@HH@Z 0000000140106240 f   VConGroup.obj
 0001:001053ec       ?ReSizeSplitterHelper@CVConGroup@@KA_J_J@Z 00000001401063ec f   VConGroup.obj
 0001:0010541c       ?Redraw@CVConGroup@@SAXXZ  000000014010641c f   VConGroup.obj
 0001:00105484       ?RemoveGroup@CVConGroup@@IEAAXXZ 0000000140106484 f   VConGroup.obj
 0001:0010554c       ?RepositionVCon@CVConGroup@@IEAAXUtagRECT@@_N@Z 000000014010654c f   VConGroup.obj
 0001:001057cc       ?ResetGroupInput@CVConGroup@@SAXPEAVCConEmuMain@@W4GroupInputCmd@@@Z 00000001401067cc f   VConGroup.obj
 0001:0010588c       ?SetAllConsoleWindowsSize@CVConGroup@@SAXUtagRECT@@U_COORD@@_N@Z 000000014010688c f   VConGroup.obj
 0001:001059cc       ?SetConsoleSizes@CVConGroup@@IEAAXAEBU_COORD@@AEBUtagRECT@@_N@Z 00000001401069cc f   VConGroup.obj
 0001:00105d68       ?SetRedraw@CVConGroup@@SAX_N@Z 0000000140106d68 f   VConGroup.obj
 0001:00105dd4       ?ShowActiveGroup@CVConGroup@@KAXPEAVCVirtualConsole@@@Z 0000000140106dd4 f   VConGroup.obj
 0001:00105ecc       ?ShowAllVCon@CVConGroup@@IEAAXH@Z 0000000140106ecc f   VConGroup.obj
 0001:00105f80       ?SplitVConGroup@CVConGroup@@AEAAPEAV1@W4SplitType@RConStartArgs@@I@Z 0000000140106f80 f   VConGroup.obj
 0001:00106108       ?StopSignalAll@CVConGroup@@SAXXZ 0000000140107108 f   VConGroup.obj
 0001:00106140       ?StopSplitDragging@CVConGroup@@KAXXZ 0000000140107140 f   VConGroup.obj
 0001:00106270       ?StoreActiveVCon@CVConGroup@@IEAAXPEAVCVirtualConsole@@@Z 0000000140107270 f   VConGroup.obj
 0001:001062bc       ?SyncAllConsoles2Window@CVConGroup@@SAXUtagRECT@@_N@Z 00000001401072bc f   VConGroup.obj
 0001:001063a0       ?SyncConsoleToWindow@CVConGroup@@SAXPEAUtagRECT@@_N@Z 00000001401073a0 f   VConGroup.obj
 0001:00106474       ?Update@CVConGroup@@SAX_N@Z 0000000140107474 f   VConGroup.obj
 0001:00106504       ?UpdateWindowChild@CVConGroup@@SAXPEAVCVirtualConsole@@@Z 0000000140107504 f   VConGroup.obj
 0001:0010663c       ?isActiveGroupVCon@CVConGroup@@SA_NPEAVCVirtualConsole@@@Z 000000014010763c f   VConGroup.obj
 0001:001066f0       ?isChildWindowVisible@CVConGroup@@SA_NXZ 00000001401076f0 f   VConGroup.obj
 0001:00106790       ?isConSelectMode@CVConGroup@@SA_NXZ 0000000140107790 f   VConGroup.obj
 0001:001067e0       ?isConsolePID@CVConGroup@@SA_NK@Z 00000001401077e0 f   VConGroup.obj
 0001:0010687c       ?isDetached@CVConGroup@@SA_NXZ 000000014010787c f   VConGroup.obj
 0001:001068ec       ?isFar@CVConGroup@@SA_N_N@Z 00000001401078ec f   VConGroup.obj
 0001:00106950       ?isFarExist@CVConGroup@@SAHIPEA_WPEAVCVConGuard@@@Z 0000000140107950 f   VConGroup.obj
 0001:00106cb8       ?isFilePanel@CVConGroup@@SA_N_N@Z 0000000140107cb8 f   VConGroup.obj
 0001:00106d20       ?isGroup@CVConGroup@@SA_NPEAVCVirtualConsole@@PEAPEAV1@PEAVCVConGuard@@@Z 0000000140107d20 f   VConGroup.obj
 0001:00106dd4       ?isGroupVisible@CVConGroup@@KA_NPEAV1@@Z 0000000140107dd4 f   VConGroup.obj
 0001:00106e3c       ?isInCreateRoot@CVConGroup@@SA_NXZ 0000000140107e3c f   VConGroup.obj
 0001:00106eac       ?isNtvdm@CVConGroup@@SA_NH@Z 0000000140107eac f   VConGroup.obj
 0001:00106f54       ?isOurConsoleWindow@CVConGroup@@SA_NPEAUHWND__@@@Z 0000000140107f54 f   VConGroup.obj
 0001:00106fd4       ?isOurGuiChildWindow@CVConGroup@@SA_NPEAUHWND__@@@Z 0000000140107fd4 f   VConGroup.obj
 0001:0010708c       ?isOurWindow@CVConGroup@@SA_NPEAUHWND__@@@Z 000000014010808c f   VConGroup.obj
 0001:00107174       ?isPictureView@CVConGroup@@SA_NXZ 0000000140108174 f   VConGroup.obj
 0001:001072e8       ?isSplitterDragging@CVConGroup@@SA?AW4SplitType@RConStartArgs@@XZ 00000001401082e8 f   VConGroup.obj
 0001:00107324       ?isVConExists@CVConGroup@@SA_NH@Z 0000000140108324 f   VConGroup.obj
 0001:00107344       ?isVConHWND@CVConGroup@@SA_NPEAUHWND__@@PEAVCVConGuard@@@Z 0000000140108344 f   VConGroup.obj
 0001:00107404       ?isValid@CVConGroup@@SA_NPEAVCRealConsole@@@Z 0000000140108404 f   VConGroup.obj
 0001:00107474       ?isValid@CVConGroup@@SA_NPEAVCVirtualConsole@@@Z 0000000140108474 f   VConGroup.obj
 0001:0010749c       ?setActiveVConAndFlags@CVConGroup@@KAXPEAVCVirtualConsole@@@Z 000000014010849c f   VConGroup.obj
 0001:001075b4       ?setRef@CVConGroup@@KA_NAEAPEAVCVirtualConsole@@PEAV2@@Z 00000001401085b4 f   VConGroup.obj
 0001:0010768c       ??0CVConGuard@@QEAA@PEAVCVirtualConsole@@@Z 000000014010868c f   VConRelease.obj
 0001:001076e4       ??0CVConGuard@@QEAA@XZ     00000001401086e4 f   VConRelease.obj
 0001:0010771c       ??0CVConRelease@@QEAA@PEAVCVirtualConsole@@@Z 000000014010871c f   VConRelease.obj
 0001:00107740       ??1?$CRefGuard@VCVirtualConsole@@@@UEAA@XZ 0000000140108740 f i VConRelease.obj
 0001:0010778c       ??1CVConGuard@@UEAA@XZ     000000014010878c f   VConRelease.obj
 0001:001077d8       ??_E?$CRefGuard@VCVirtualConsole@@@@UEAAPEAXI@Z 00000001401087d8 f i VConRelease.obj
 0001:001077d8       ??_G?$CRefGuard@VCVirtualConsole@@@@UEAAPEAXI@Z 00000001401087d8 f i VConRelease.obj
 0001:00107844       ??_GCVConGuard@@UEAAPEAXI@Z 0000000140108844 f i VConRelease.obj
 0001:00107844       ??_ECVConGuard@@UEAAPEAXI@Z 0000000140108844 f i VConRelease.obj
 0001:00107878       ??_ECVConRelease@@UEAAPEAXI@Z 0000000140108878 f i VConRelease.obj
 0001:00107878       ??_GCVConRelease@@UEAAPEAXI@Z 0000000140108878 f i VConRelease.obj
 0001:001078a4       ?Attach@CVConGuard@@UEAA_NPEAVCVirtualConsole@@@Z 00000001401088a4 f   VConRelease.obj
 0001:00107908       ?DeleteFromMainThread@CVConRelease@@QEAAXXZ 0000000140108908 f   VConRelease.obj
 0001:00107928       ?FinalRelease@CVConRelease@@MEAAXXZ 0000000140108928 f   VConRelease.obj
 0001:00107974       ??0CVConLine@@QEAA@_N@Z    0000000140108974 f   VConText.obj
 0001:001079d8       ??1CVConLine@@QEAA@XZ      00000001401089d8 f   VConText.obj
 0001:001079e8       ??1Shrinker@@QEAA@XZ       00000001401089e8 f i VConText.obj
 0001:001079f4       ?AllocateMemory@CVConLine@@IEAA_NXZ 00000001401089f4 f   VConText.obj
 0001:00107a50       ?CropParts@CVConLine@@IEAAXIII@Z 0000000140108a50 f   VConText.obj
 0001:00107b14       ?DistributeParts@CVConLine@@IEAAXIII@Z 0000000140108b14 f   VConText.obj
 0001:00107cd8       ?DoShrink@CVConLine@@IEAAXAEAIAEAH00@Z 0000000140108cd8 f   VConText.obj
 0001:00107d2c       ?Done@VConTextPart@@QEAAXXZ 0000000140108d2c f   VConText.obj
 0001:00107d50       ?ExpandPart@CVConLine@@IEAAXAEAUVConTextPart@@I@Z 0000000140108d50 f   VConText.obj
 0001:00107db0       ?GetNextPart@CVConLine@@QEAA_NAEAIAEAPEAUVConTextPart@@1@Z 0000000140108db0 f   VConText.obj
 0001:00107e7c       ?ParseLine@CVConLine@@QEAA_N_NIIIPEA_WPEAUtag_CharAttr@@QEB_WQEBU2@@Z 0000000140108e7c f   VConText.obj
 0001:001085bc       ?PolishParts@CVConLine@@QEAAXPEAK@Z 00000001401095bc f   VConText.obj
 0001:00108818       ?ReleaseMemory@CVConLine@@IEAAXXZ 0000000140109818 f   VConText.obj
 0001:00108864       ?SetDialogs@CVConLine@@QEAAXHPEAU_SMALL_RECT@@PEAKKAEBU2@@Z 0000000140109864 f   VConText.obj
 0001:00108884       ?SetLen@VConTextPart@@QEAAXII@Z 0000000140109884 f   VConText.obj
 0001:00108958       ?eval_compression@Shrinker@@QEAA_NPEAUVConTextPart@@IIH@Z 0000000140109958 f i VConText.obj
 0001:00108bac       ?get_total@Shrinker@@QEAAXPEAUVConTextPart@@IIAEAMAEAH@Z 0000000140109bac f i VConText.obj
 0001:00108dd0       ?isCharNonWord@@YA_NH@Z    0000000140109dd0 f   VConText.obj
 0001:00108e08       ?isCharProgress@@YA_NH@Z   0000000140109e08 f   VConText.obj
 0001:00108e24       ?isCharPunctuation@@YA_NH@Z 0000000140109e24 f   VConText.obj
 0001:00108e64       ?isCharScroll@@YA_NH@Z     0000000140109e64 f   VConText.obj
 0001:00108e88       ?isCharSeparate@@YA_NH@Z   0000000140109e88 f   VConText.obj
 0001:00108ed0       ?isCharSpace@@YA_NH@Z      0000000140109ed0 f   VConText.obj
 0001:00108f08       ?isCharSpaceSingle@@YA_NH@Z 0000000140109f08 f   VConText.obj
 0001:00108f38       ?isDialogBorderCoord@CVConLine@@IEAAKI@Z 0000000140109f38 f   VConText.obj
 0001:001090c8       ??$SafeDelete@VCRealConsole@@@@YAXAEAPEAVCRealConsole@@@Z 000000014010a0c8 f i VirtualConsole.obj
 0001:00109110       ??$_Try_emplace@AEBH$$V@?$_Hash@V?$_Umap_traits@HGV?$_Uhash_compare@HU?$hash@H@std@@U?$equal_to@H@2@@std@@V?$allocator@U?$pair@$$CBHG@std@@@2@$0A@@std@@@std@@IEAA?AU?$pair@PEAU?$_List_node@U?$pair@$$CBHG@std@@PEAX@std@@_N@1@AEBH@Z 000000014010a110 f i VirtualConsole.obj
 0001:00109334       ??$find@X@?$_Hash@V?$_Umap_traits@HGV?$_Uhash_compare@HU?$hash@H@std@@U?$equal_to@H@2@@std@@V?$allocator@U?$pair@$$CBHG@std@@@2@$0A@@std@@@std@@QEAA?AV?$_List_iterator@V?$_List_val@U?$_List_simple_types@U?$pair@$$CBHG@std@@@std@@@std@@@1@AEBH@Z 000000014010a334 f i VirtualConsole.obj
 0001:001093a4       ??0CVirtualConsole@@IEAA@PEAVCConEmuMain@@H@Z 000000014010a3a4 f   VirtualConsole.obj
 0001:00109724       ??1?$_Alloc_construct_ptr@V?$allocator@U?$_List_node@U?$pair@$$CBHG@std@@PEAX@std@@@std@@@std@@QEAA@XZ 000000014010a724 f i VirtualConsole.obj
 0001:00109724       ??1?$_List_node_emplace_op2@V?$allocator@U?$_List_node@U?$pair@$$CBHG@std@@PEAX@std@@@std@@@std@@QEAA@XZ 000000014010a724 f i VirtualConsole.obj
 0001:00109740       ??1CVirtualConsole@@MEAA@XZ 000000014010a740 f   VirtualConsole.obj
 0001:00109934       ??1VConHeap@CVirtualConsole@@QEAA@XZ 000000014010a934 f   VirtualConsole.obj
 0001:00109958       ??_ECVirtualConsole@@OBI@EAAPEAXI@Z 000000014010a958 f i VirtualConsole.obj
 0001:00109964       ??_ECVirtualConsole@@MEAAPEAXI@Z 000000014010a964 f i VirtualConsole.obj
 0001:00109964       ??_GCVirtualConsole@@MEAAPEAXI@Z 000000014010a964 f i VirtualConsole.obj
 0001:00109998       ?Blit@CVirtualConsole@@QEAA_NPEAUHDC__@@HHHH@Z 000000014010a998 f   VirtualConsole.obj
 0001:001099f4       ?CalcHighlightRowCol@CVirtualConsole@@IEAA_NPEAU_COORD@@@Z 000000014010a9f4 f   VirtualConsole.obj
 0001:00109ba8       ?ChangeHighlightMouse@CVirtualConsole@@QEAAXHH@Z 000000014010aba8 f   VirtualConsole.obj
 0001:00109cf4       ?ChangePalette@CVirtualConsole@@QEAA_NH@Z 000000014010acf4 f   VirtualConsole.obj
 0001:00109d1c       ?ChangePalette@CVirtualConsole@@QEAA_NPEBUColorPalette@@@Z 000000014010ad1c f   VirtualConsole.obj
 0001:00109e94       ?ChangePalette@CVirtualConsole@@QEAA_NPEB_W@Z 000000014010ae94 f   VirtualConsole.obj
 0001:00109ebc       ?CharAttrFromConAttr@CVirtualConsole@@AEAAXGPEAUtag_CharAttr@@@Z 000000014010aebc f   VirtualConsole.obj
 0001:00109f3c       ?CharWidth@CVirtualConsole@@IEAAG_WAEBUtag_CharAttr@@@Z 000000014010af3c f   VirtualConsole.obj
 0001:0010a0d0       ?CheckChangedTextAttr@CVirtualConsole@@IEAA_NXZ 000000014010b0d0 f   VirtualConsole.obj
 0001:0010a2c8       ?CheckDialogsChanged@CVirtualConsole@@AEAA_NXZ 000000014010b2c8 f   VirtualConsole.obj
 0001:0010a39c       ?CheckTransparent@CVirtualConsole@@QEAA_NXZ 000000014010b39c f   VirtualConsole.obj
 0001:0010a468       ?CheckTransparentRgn@CVirtualConsole@@IEAA_N_N@Z 000000014010b468 f   VirtualConsole.obj
 0001:0010a8d8       ?ClearPartBrushes@CVirtualConsole@@SAXXZ 000000014010b8d8 f   VirtualConsole.obj
 0001:0010a920       ?ClientToConsole@CVirtualConsole@@QEAA?AU_COORD@@JJ_N@Z 000000014010b920 f   VirtualConsole.obj
 0001:0010aa38       ?ConsoleToClient@CVirtualConsole@@QEAA?AUtagPOINT@@JJ@Z 000000014010ba38 f   VirtualConsole.obj
 0001:0010ab10       ?Constructor@CVirtualConsole@@IEAA_NPEAURConStartArgsEx@@@Z 000000014010bb10 f   VirtualConsole.obj
 0001:0010ae08       ?CreateBackBrush@CVirtualConsole@@AEAAPEAUHBRUSH__@@_NAEA_N@Z 000000014010be08 f   VirtualConsole.obj
 0001:0010ae60       ?Dump@CVirtualConsole@@QEAA_NPEB_W@Z 000000014010be60 f   VirtualConsole.obj
 0001:0010b0a0       ?DumpConsole@CVirtualConsole@@QEAAXXZ 000000014010c0a0 f   VirtualConsole.obj
 0001:0010b188       ?FindChanges@CVirtualConsole@@IEAA_NHPEB_WPEBUtag_CharAttr@@01@Z 000000014010c188 f   VirtualConsole.obj
 0001:0010b210       ?FindOpaqueCell@CVirtualConsole@@QEAA?AU_COORD@@XZ 000000014010c210 f   VirtualConsole.obj
 0001:0010b30c       ?GetBackSize@CVirtualConsole@@QEAA?AUtagSIZE@@XZ 000000014010c30c f   VirtualConsole.obj
 0001:0010b32c       ?GetBackgroundObject@CVirtualConsole@@QEAAPEAVCBackgroundInfo@@XZ 000000014010c32c f   VirtualConsole.obj
 0001:0010b358       ?GetCellSize@CVirtualConsole@@QEAA?AUtagSIZE@@XZ 000000014010c358 f   VirtualConsole.obj
 0001:0010b370       ?GetColors@CVirtualConsole@@QEAA?AV?$array@K$0BA@@std@@_N@Z 000000014010c370 f   VirtualConsole.obj
 0001:0010b448       ?GetColors@CVirtualConsole@@QEAAAEBV?$array@K$0BA@@std@@XZ 000000014010c448 f   VirtualConsole.obj
 0001:0010b49c       ?GetCursor@CVirtualConsole@@QEAA?ATCECursorType@@_N@Z 000000014010c49c f   VirtualConsole.obj
 0001:0010b564       ?GetDcClientRect@CVirtualConsole@@QEAA?AUtagRECT@@XZ 000000014010c564 f   VirtualConsole.obj
 0001:0010b5b0       ?GetExclusionRgn@CVirtualConsole@@QEAAPEAUHRGN__@@XZ 000000014010c5b0 f   VirtualConsole.obj
 0001:0010b5ec       ?GetIntDC@CVirtualConsole@@IEAAPEAUHDC__@@XZ 000000014010c5ec f   VirtualConsole.obj
 0001:0010b5f4       ?GetPaletteIndex@CVirtualConsole@@QEAAHXZ 000000014010c5f4 f   VirtualConsole.obj
 0001:0010b68c       ?GetTextHeight@CVirtualConsole@@QEAAJXZ 000000014010c68c f   VirtualConsole.obj
 0001:0010b694       ?GetTextWidth@CVirtualConsole@@QEAAJXZ 000000014010c694 f   VirtualConsole.obj
 0001:0010b69c       ?GetUCharMapFontPtr@CVirtualConsole@@QEAA_NAEAVCFontPtr@@@Z 000000014010c69c f   VirtualConsole.obj
 0001:0010b6cc       ?GetVConHeight@CVirtualConsole@@QEAAJXZ 000000014010c6cc f   VirtualConsole.obj
 0001:0010b6d4       ?GetVConOffset@CVirtualConsole@@QEAA?AUtagPOINT@@XZ 000000014010c6d4 f   VirtualConsole.obj
 0001:0010b6f4       ?GetVConWidth@CVirtualConsole@@QEAAJXZ 000000014010c6f4 f   VirtualConsole.obj
 0001:0010b6fc       ?GhostWnd@CVirtualConsole@@QEAAPEAUHWND__@@XZ 000000014010c6fc f   VirtualConsole.obj
 0001:0010b714       ?GuiWnd@CVirtualConsole@@QEAAPEAUHWND__@@XZ 000000014010c714 f   VirtualConsole.obj
 0001:0010b72c       ?HasBackgroundImage@CVirtualConsole@@QEAA_NPEAJ0@Z 000000014010c72c f   VirtualConsole.obj
 0001:0010b784       ?ID@CVirtualConsole@@QEAAHXZ 000000014010c784 f   VirtualConsole.obj
 0001:0010b78c       ?IDStr@CVirtualConsole@@QEAAPEB_WXZ 000000014010c78c f   VirtualConsole.obj
 0001:0010b7b8       ?Index@CVirtualConsole@@QEAAHXZ 000000014010c7b8 f   VirtualConsole.obj
 0001:0010b7c0       ?IndexStr@CVirtualConsole@@QEAAPEB_WXZ 000000014010c7c0 f   VirtualConsole.obj
 0001:0010b7ec       ?InitDC@CVirtualConsole@@QEAA_N_N0PEAVMSectionLock@@1@Z 000000014010c7ec f   VirtualConsole.obj
 0001:0010badc       ?InitGhost@CVirtualConsole@@QEAAXXZ 000000014010cadc f   VirtualConsole.obj
 0001:0010bb34       ?IsPanelViews@CVirtualConsole@@QEAA_NXZ 000000014010cb34 f   VirtualConsole.obj
 0001:0010bb7c       ?LoadConsoleData@CVirtualConsole@@QEAA_NXZ 000000014010cb7c f   VirtualConsole.obj
 0001:0010be9c       ?LoadDumpConsole@CVirtualConsole@@QEAA_NXZ 000000014010ce9c f   VirtualConsole.obj
 0001:0010bfbc       ?Log@VConCreateLogger@@YAXPEAVCVirtualConsole@@W4EventType@1@@Z 000000014010cfbc f   VirtualConsole.obj
 0001:0010bff8       ?NeedBackgroundUpdate@CVirtualConsole@@QEAAXXZ 000000014010cff8 f   VirtualConsole.obj
 0001:0010c018       ?OnAppSettingsChanged@CVirtualConsole@@QEAAXH@Z 000000014010d018 f   VirtualConsole.obj
 0001:0010c0cc       ?OnConsoleSizeChanged@CVirtualConsole@@QEAAXXZ 000000014010d0cc f   VirtualConsole.obj
 0001:0010c10c       ?OnConsoleSizeReset@CVirtualConsole@@QEAAXGG@Z 000000014010d10c f   VirtualConsole.obj
 0001:0010c134       ?OnDestroy@CVirtualConsole@@MEAAXXZ 000000014010d134 f   VirtualConsole.obj
 0001:0010c168       ?OnFontChanged@CVirtualConsole@@QEAAXXZ 000000014010d168 f   VirtualConsole.obj
 0001:0010c178       ?OnPanelViewSettingsChanged@CVirtualConsole@@QEAAXXZ 000000014010d178 f   VirtualConsole.obj
 0001:0010c26c       ?OnTaskbarFocus@CVirtualConsole@@QEAAXXZ 000000014010d26c f   VirtualConsole.obj
 0001:0010c288       ?OnTaskbarSettingsChanged@CVirtualConsole@@QEAAXXZ 000000014010d288 f   VirtualConsole.obj
 0001:0010c2d8       ?OnTitleChanged@CVirtualConsole@@QEAAXXZ 000000014010d2d8 f   VirtualConsole.obj
 0001:0010c310       ?Owner@CVirtualConsole@@QEAAPEAVCConEmuMain@@XZ 000000014010d310 f   VirtualConsole.obj
 0001:0010c320       ?PaintBackgroundImage@CVirtualConsole@@QEAAXPEAUHDC__@@AEBUtagRECT@@K_N@Z 000000014010d320 f   VirtualConsole.obj
 0001:0010c554       ?PaintVCon@CVirtualConsole@@QEAAXPEAUHDC__@@@Z 000000014010d554 f   VirtualConsole.obj
 0001:0010c7d8       ?PaintVConDebug@CVirtualConsole@@IEAAXPEAUHDC__@@UtagRECT@@@Z 000000014010d7d8 f   VirtualConsole.obj
 0001:0010cd70       ?PaintVConNormal@CVirtualConsole@@IEAAXPEAUHDC__@@UtagRECT@@@Z 000000014010dd70 f   VirtualConsole.obj
 0001:0010d438       ?PaintVConSimple@CVirtualConsole@@IEAAXPEAUHDC__@@UtagRECT@@_N@Z 000000014010e438 f   VirtualConsole.obj
 0001:0010d638       ?PartBrush@CVirtualConsole@@KAPEAUHBRUSH__@@_WKK@Z 000000014010e638 f   VirtualConsole.obj
 0001:0010da74       ?PatInvertRect@CVirtualConsole@@IEAAXPEAUHDC__@@AEBUtagRECT@@0_N@Z 000000014010ea74 f   VirtualConsole.obj
 0001:0010db88       ?PointersAlloc@CVirtualConsole@@AEAA_NXZ 000000014010eb88 f   VirtualConsole.obj
 0001:0010dd00       ?PointersFree@CVirtualConsole@@AEAAXXZ 000000014010ed00 f   VirtualConsole.obj
 0001:0010de94       ?PointersZero@CVirtualConsole@@AEAAXXZ 000000014010ee94 f   VirtualConsole.obj
 0001:0010df64       ?PolishPanelViews@CVirtualConsole@@AEAAXXZ 000000014010ef64 f   VirtualConsole.obj
 0001:0010e63c       ?PrintClient@CVirtualConsole@@QEAA_NPEAUHDC__@@_NQEAUtagRECT@@@Z 000000014010f63c f   VirtualConsole.obj
 0001:0010e780       ?RCon@CVirtualConsole@@QEAAPEAVCRealConsole@@XZ 000000014010f780 f   VirtualConsole.obj
 0001:0010e7a8       ?RegisterPanelView@CVirtualConsole@@QEAA_NPEAUPanelViewInit@@@Z 000000014010f7a8 f   VirtualConsole.obj
 0001:0010e8f0       ?SavePaneSnapshot@CVirtualConsole@@QEAAXXZ 000000014010f8f0 f   VirtualConsole.obj
 0001:0010e940       ?SelectBrush@CVirtualConsole@@QEAAXPEAUHBRUSH__@@@Z 000000014010f940 f   VirtualConsole.obj
 0001:0010e9b4       ?SelectFont@CVirtualConsole@@IEAAXAEBVCFontPtr@@@Z 000000014010f9b4 f   VirtualConsole.obj
 0001:0010e9f4       ?SelectFont@CVirtualConsole@@QEAAXW4CEFontStyles@@@Z 000000014010f9f4 f   VirtualConsole.obj
 0001:0010ea60       ?SetBackgroundImageData@CVirtualConsole@@QEAAHPEAUCESERVER_REQ_SETBACKGROUND@@@Z 000000014010fa60 f   VirtualConsole.obj
 0001:0010ead0       ?SetFlags@CVirtualConsole@@IEAA_NKKH@Z 000000014010fad0 f   VirtualConsole.obj
 0001:0010eb44       ?SetSelfPalette@CVirtualConsole@@QEAAXGGAEAY0BA@$$CBK@Z 000000014010fb44 f   VirtualConsole.obj
 0001:0010ee38       ?StretchPaint@CVirtualConsole@@QEAA_NPEAUHDC__@@HHHH@Z 000000014010fe38 f   VirtualConsole.obj
 0001:0010ef2c       ?UndoHighlights@CVirtualConsole@@IEAAXXZ 000000014010ff2c f   VirtualConsole.obj
 0001:0010f064       ?Update@CVirtualConsole@@QEAA_N_NPEAPEAUHDC__@@@Z 0000000140110064 f   VirtualConsole.obj
 0001:0010f41c       ?UpdateCursor@CVirtualConsole@@QEAAXAEA_N@Z 000000014011041c f   VirtualConsole.obj
 0001:0010f728       ?UpdateCursorDraw@CVirtualConsole@@IEAAXPEAUHDC__@@UtagRECT@@U_COORD@@I@Z 0000000140110728 f   VirtualConsole.obj
 0001:0010fc34       ?UpdateCursorGroup@CVirtualConsole@@SA_NPEAV1@_J@Z 0000000140110c34 f   VirtualConsole.obj
 0001:0010fc6c       ?UpdateHighlights@CVirtualConsole@@IEAAXXZ 0000000140110c6c f   VirtualConsole.obj
 0001:0010fcfc       ?UpdateHighlightsHyperlink@CVirtualConsole@@IEAAXXZ 0000000140110cfc f   VirtualConsole.obj
 0001:0010fe94       ?UpdateHighlightsRowCol@CVirtualConsole@@IEAAXXZ 0000000140110e94 f   VirtualConsole.obj
 0001:00110114       ?UpdateInfo@CVirtualConsole@@QEAAXXZ 0000000140111114 f   VirtualConsole.obj
 0001:001103e4       ?UpdatePanelRgn@CVirtualConsole@@AEAA_N_N00@Z 00000001401113e4 f   VirtualConsole.obj
 0001:001108c0       ?UpdatePanelView@CVirtualConsole@@AEAA_N_N0@Z 00000001401118c0 f   VirtualConsole.obj
 0001:00110bac       ?UpdatePrepare@CVirtualConsole@@IEAA_NPEAPEAUHDC__@@PEAVMSectionLock@@1@Z 0000000140111bac f   VirtualConsole.obj
 0001:00111144       ?UpdateText@CVirtualConsole@@IEAAXXZ 0000000140112144 f   VirtualConsole.obj
 0001:00111cd4       ?UpdateThumbnail@CVirtualConsole@@QEAAX_N@Z 0000000140112cd4 f   VirtualConsole.obj
 0001:00111d28       ?WasHighlightRowColChanged@CVirtualConsole@@IEAA_NXZ 0000000140112d28 f   VirtualConsole.obj
 0001:00111edc       ?_Forced_rehash@?$_Hash@V?$_Umap_traits@HGV?$_Uhash_compare@HU?$hash@H@std@@U?$equal_to@H@2@@std@@V?$allocator@U?$pair@$$CBHG@std@@@2@$0A@@std@@@std@@IEAAX_K@Z 0000000140112edc f i VirtualConsole.obj
 0001:0011204c       ?isActive@CVirtualConsole@@QEAA_N_N@Z 000000014011304c f   VirtualConsole.obj
 0001:00112064       ?isGroupedInput@CVirtualConsole@@QEAA?AW4EnumVConFlags@@XZ 0000000140113064 f   VirtualConsole.obj
 0001:001120b0       ?isHighlightAny@CVirtualConsole@@IEAA_NXZ 00000001401130b0 f   VirtualConsole.obj
 0001:001120fc       ?isVisible@CVirtualConsole@@QEAA_NXZ 00000001401130fc f   VirtualConsole.obj
 0001:00112118       ?setFocus@CVirtualConsole@@QEAAXXZ 0000000140113118 f   VirtualConsole.obj
 0001:0011216c       ??0CWinObjBase@@QEAA@XZ    000000014011316c f   WinObjBase.obj
 0001:00112190       ??1CWinObjBase@@UEAA@XZ    0000000140113190 f   WinObjBase.obj
 0001:0011219c       ??_ECWinObjBase@@UEAAPEAXI@Z 000000014011319c f i WinObjBase.obj
 0001:0011219c       ??_GCWinObjBase@@UEAAPEAXI@Z 000000014011319c f i WinObjBase.obj
 0001:001121c8       ?GetObj@CWinObjBase@@KAPEAV1@PEAUHWND__@@PEAUTabPanelWinMap@@_N@Z 00000001401131c8 f   WinObjBase.obj
 0001:0011222c       ?InitObjMap@CWinObjBase@@SA_NXZ 000000014011322c f   WinObjBase.obj
 0001:001122a8       ?SetObj@CWinObjBase@@KAXPEAUHWND__@@PEAV1@P6A_J0I_K_J@Z@Z 00000001401132a8 f   WinObjBase.obj
 0001:00112304       ?DisplayLastError@@YAHPEB_WKK0PEAUHWND__@@@Z 0000000140113304 f   helper.obj
 0001:0011248c       ?DupCygwinPath@@YAPEB_WPEB_W_N0AEAUCEStr@@@Z 000000014011348c f   helper.obj
 0001:001126b0       ?FixDirEndSlash@@YA_NPEA_W@Z 00000001401136b0 f   helper.obj
 0001:00112718       ?GetWindowModeName@@YAPEB_WW4ConEmuWindowMode@@@Z 0000000140113718 f   helper.obj
 0001:0011276c       ?IntFromString@@YA_NAEAHPEB_WHPEAPEB_W@Z 000000014011376c f   helper.obj
 0001:00112818       ?MakeStraightSlashPath@@YAPEA_WPEB_W@Z 0000000140113818 f   helper.obj
 0001:00112854       ?MakeWinPath@@YAPEB_WPEB_W0AEAUCEStr@@@Z 0000000140113854 f   helper.obj
 0001:001129fc       ?StripLines@@YAXPEA_WPEB_W@Z 00000001401139fc f   helper.obj
 0001:00112b08       ?StripWords@@YAXPEA_WPEB_W@Z 0000000140113b08 f   helper.obj
 0001:00112c58       ?initMainThread@@YAXXZ     0000000140113c58 f   helper.obj
 0001:00112c70       ?isKey@@YA_NKK@Z           0000000140113c70 f   helper.obj
 0001:00112cb4       ?isMainThread@@YA_NXZ      0000000140113cb4 f   helper.obj
 0001:00112ccc       GetFileVersionInfoSizeW    0000000140113ccc f   version:VERSION.dll
 0001:00112cd2       GetFileVersionInfoW        0000000140113cd2 f   version:VERSION.dll
 0001:00112cd8       VerQueryValueW             0000000140113cd8 f   version:VERSION.dll
 0001:00112cde       NetUserEnum                0000000140113cde f   netapi32:NETAPI32.dll
 0001:00112ce4       NetApiBufferFree           0000000140113ce4 f   netapi32:NETAPI32.dll
 0001:00112cea       CreateToolhelp32Snapshot   0000000140113cea f   kernel32:KERNEL32.dll
 0001:00112cf0       Module32FirstW             0000000140113cf0 f   kernel32:KERNEL32.dll
 0001:00112cf6       Module32NextW              0000000140113cf6 f   kernel32:KERNEL32.dll
 0001:00112cfc       Process32FirstW            0000000140113cfc f   kernel32:KERNEL32.dll
 0001:00112d02       Process32NextW             0000000140113d02 f   kernel32:KERNEL32.dll
 0001:00112d08       ??2@YAPEAX_K@Z             0000000140113d08 f   common-kernel64:Memory.obj
 0001:00112d30       ??3@YAXPEAX@Z              0000000140113d30 f   common-kernel64:Memory.obj
 0001:00112d30       ??_V@YAXPEAX@Z             0000000140113d30 f   common-kernel64:Memory.obj
 0001:00112d38       ??_U@YAPEAX_K@Z            0000000140113d38 f   common-kernel64:Memory.obj
 0001:00112d40       ?HeapDeinitialize@@YAXXZ   0000000140113d40 f   common-kernel64:Memory.obj
 0001:00112da0       ?HeapInitialize@@YA_NXZ    0000000140113da0 f   common-kernel64:Memory.obj
 0001:00112ddc       ?IsHeapInitialized@@YA_NXZ 0000000140113ddc f   common-kernel64:Memory.obj
 0001:00112de8       ?xf_calloc@@YAPEAX_K0@Z    0000000140113de8 f   common-kernel64:Memory.obj
 0001:00112e18       ?xf_free@@YAXPEAX@Z        0000000140113e18 f   common-kernel64:Memory.obj
 0001:00112e8c       ?xf_malloc@@YAPEAX_K@Z     0000000140113e8c f   common-kernel64:Memory.obj
 0001:00112eb4       ?xf_realloc@@YAPEAXPEAX_K@Z 0000000140113eb4 f   common-kernel64:Memory.obj
 0001:00112edc       ?lstrcmpni@@YAHPEBD0H@Z    0000000140113edc f   common-kernel64:MStrSafe.obj
 0001:00112fbc       ?lstrcmpni@@YAHPEB_W0H@Z   0000000140113fbc f   common-kernel64:MStrSafe.obj
 0001:001130d0       ?msprintf@@YAPEB_WPEA_W_KPEB_WZZ 00000001401140d0 f   common-kernel64:MStrSafe.obj
 0001:001134d8       ?sprintf_c@@YAHPEAD_JPEBDZZ 00000001401144d8 f   common-kernel64:MStrSafe.obj
 0001:00113518       ?startswith@@YAHPEB_W0_N@Z 0000000140114518 f   common-kernel64:MStrSafe.obj
 0001:001135a0       ?swprintf_c@@YAHPEA_W_JPEB_WZZ 00000001401145a0 f   common-kernel64:MStrSafe.obj
 0001:001135e0       ?lstrdup@@YAPEA_WPEB_W_K@Z 00000001401145e0 f   common-kernel64:MStrDup.obj
 0001:00113654       ?lstrdupW@@YAPEA_WPEBDI@Z  0000000140114654 f   common-kernel64:MStrDup.obj
 0001:001136e0       ?lstrmerge@@YAPEA_WPEB_W00000000@Z 00000001401146e0 f   common-kernel64:MStrDup.obj
 0001:00113824       ?lstrmerge@@YA_NPEAPEA_WPEB_W1111111@Z 0000000140114824 f   common-kernel64:MStrDup.obj
 0001:0011389c       ??$_Emplace_reallocate@U?$pair@_JUCEStr@@@std@@@?$vector@U?$pair@_JUCEStr@@@std@@V?$MArrayAllocator@U?$pair@_JUCEStr@@@std@@@@@std@@QEAAPEAU?$pair@_JUCEStr@@@1@QEAU21@$$QEAU21@@Z 000000014011489c f i common-kernel64:CEStr.obj
 0001:00113a30       ??$_Uninitialized_copy@PEAU?$pair@_JUCEStr@@@std@@V?$MArrayAllocator@U?$pair@_JUCEStr@@@std@@@@@std@@YAPEAU?$pair@_JUCEStr@@@0@QEAU10@0PEAU10@AEAV?$MArrayAllocator@U?$pair@_JUCEStr@@@std@@@@@Z 0000000140114a30 f i common-kernel64:CEStr.obj
 0001:00113ac4       ??$_Uninitialized_move@PEAU?$pair@_JUCEStr@@@std@@V?$MArrayAllocator@U?$pair@_JUCEStr@@@std@@@@@std@@YAPEAU?$pair@_JUCEStr@@@0@QEAU10@0PEAU10@AEAV?$MArrayAllocator@U?$pair@_JUCEStr@@@std@@@@@Z 0000000140114ac4 f i common-kernel64:CEStr.obj
 0001:00113b38       ??0CEStr@@QEAA@$$QEAPEA_W@Z 0000000140114b38 f   common-kernel64:CEStr.obj
 0001:00113b58       ??0CEStr@@QEAA@$$QEAU0@@Z  0000000140114b58 f   common-kernel64:CEStr.obj
 0001:00113b80       ??0CEStr@@QEAA@AEBU0@@Z    0000000140114b80 f   common-kernel64:CEStr.obj
 0001:00113ba8       ??0CEStr@@QEAA@PEB_W00000000@Z 0000000140114ba8 f   common-kernel64:CEStr.obj
 0001:00113c40       ??0CEStr@@QEAA@XZ          0000000140114c40 f   common-kernel64:CEStr.obj
 0001:00113c40       ??0MGlobal@@QEAA@XZ        0000000140114c40 f   common-user64:MGlobal.obj
 0001:00113c50       ??0bad_alloc@stdext@@QEAA@AEBV01@@Z 0000000140114c50 f i common-kernel64:CEStr.obj
 0001:00113c70       ??0bad_alloc@stdext@@QEAA@XZ 0000000140114c70 f i common-kernel64:CEStr.obj
 0001:00113c8c       ??0exception@stdext@@QEAA@AEBV01@@Z 0000000140114c8c f i common-kernel64:CEStr.obj
 0001:00113ca4       ?clear@CEStrA@@QEAAXXZ     0000000140114ca4 f   common-kernel64:CEStr.obj
 0001:00113ca4       ??1CEStr@@QEAA@XZ          0000000140114ca4 f   common-kernel64:CEStr.obj
 0001:00113cc4       ??1bad_alloc@stdext@@UEAA@XZ 0000000140114cc4 f i common-kernel64:CEStr.obj
 0001:00113cd0       ??4CEStr@@QEAAAEAU0@$$QEAPEA_W@Z 0000000140114cd0 f   common-kernel64:CEStr.obj
 0001:00113ce8       ??4CEStr@@QEAAAEAU0@$$QEAU0@@Z 0000000140114ce8 f   common-kernel64:CEStr.obj
 0001:00113d30       ??4CEStr@@QEAAAEAU0@PEB_W@Z 0000000140114d30 f   common-kernel64:CEStr.obj
 0001:00113d30       ??4CmdArg@@QEAAAEAU0@PEB_W@Z 0000000140114d30 f   common-kernel64:CmdLine.obj
 0001:00113d4c       ??4CEStrA@@QEAAAEAU0@$$QEAPEAD@Z 0000000140114d4c f   common-kernel64:CEStr.obj
 0001:00113d88       ??BCEStr@@QEBA_NXZ         0000000140114d88 f   common-kernel64:CEStr.obj
 0001:00113d9c       ??_Gexception@stdext@@UEAAPEAXI@Z 0000000140114d9c f i common-kernel64:CEStr.obj
 0001:00113d9c       ??_Gbad_alloc@stdext@@UEAAPEAXI@Z 0000000140114d9c f i common-kernel64:CEStr.obj
 0001:00113d9c       ??_Ebad_alloc@stdext@@UEAAPEAXI@Z 0000000140114d9c f i common-kernel64:CEStr.obj
 0001:00113d9c       ??_Eexception@stdext@@UEAAPEAXI@Z 0000000140114d9c f i common-kernel64:CEStr.obj
 0001:00113dc8       ?Append@CEStr@@QEAAPEB_WPEB_W0000000@Z 0000000140114dc8 f   common-kernel64:CEStr.obj
 0001:00113e20       ?Append@CEStrConcat@@QEAAXPEB_W@Z 0000000140114e20 f   common-kernel64:CEStr.obj
 0001:00113ec0       ?Attach@CEStr@@QEAAPEB_W$$QEAPEA_W@Z 0000000140114ec0 f   common-kernel64:CEStr.obj
 0001:00113ec8       ?AttachInt@CEStr@@AEAAPEB_WAEAPEA_W@Z 0000000140114ec8 f   common-kernel64:CEStr.obj
 0001:00113f40       ?Clear@CEStr@@QEAAXXZ      0000000140114f40 f   common-kernel64:CEStr.obj
 0001:00113f64       ?Compare@CEStr@@QEBAHPEB_W_N@Z 0000000140114f64 f   common-kernel64:CEStr.obj
 0001:00113f94       ?Detach@CEStr@@QEAAPEA_WXZ 0000000140114f94 f   common-kernel64:CEStr.obj
 0001:00113fa4       ?Empty@CEStr@@QEAAXXZ      0000000140114fa4 f   common-kernel64:CEStr.obj
 0001:00113fb4       ?GetBuffer@CEStr@@QEAAPEA_W_J@Z 0000000140114fb4 f   common-kernel64:CEStr.obj
 0001:00114064       ?GetData@CEStrConcat@@QEBA?AUCEStr@@XZ 0000000140115064 f   common-kernel64:CEStr.obj
 0001:001140e8       ?GetLen@CEStr@@QEBA_JXZ    00000001401150e8 f   common-kernel64:CEStr.obj
 0001:00114110       ?GetMaxCount@CEStr@@QEAA_JXZ 0000000140115110 f   common-kernel64:CEStr.obj
 0001:0011413c       ?IsEmpty@CEStr@@QEBA_NXZ   000000014011513c f   common-kernel64:CEStr.obj
 0001:00114150       ?Mid@CEStr@@QEBAPEB_W_J@Z  0000000140115150 f   common-kernel64:CEStr.obj
 0001:00114190       ?Set@CEStr@@QEAAPEB_WPEB_W_J@Z 0000000140115190 f   common-kernel64:CEStr.obj
 0001:00114274       ?SetAt@CEStr@@QEAA_W_J_W@Z 0000000140115274 f   common-kernel64:CEStr.obj
 0001:00114294       ?StringCchCopyNW@@YAJPEA_W_KPEB_W1@Z 0000000140115294 f i common-kernel64:CEStr.obj
 0001:00114308       ?_Change_array@?$vector@U?$pair@_JUCEStr@@@std@@V?$MArrayAllocator@U?$pair@_JUCEStr@@@std@@@@@std@@AEAAXQEAU?$pair@_JUCEStr@@@2@_K1@Z 0000000140115308 f i common-kernel64:CEStr.obj
 0001:0011437c       ?_Doraise@bad_alloc@stdext@@MEBAXXZ 000000014011537c f i common-kernel64:CEStr.obj
 0001:00114398       ?c_str@CEStr@@QEBAPEB_WPEB_W@Z 0000000140115398 f   common-kernel64:CEStr.obj
 0001:00114398       ?c_str@CEStrA@@QEBAPEBDPEBD@Z 0000000140115398 f   common-kernel64:CEStr.obj
 0001:001143a4       ?getbuffer@CEStrA@@QEAAPEAD_J@Z 00000001401153a4 f   common-kernel64:CEStr.obj
 0001:001143f4       ?push_back@?$MArray@U?$pair@_JUCEStr@@@std@@@@QEAA_J$$QEAU?$pair@_JUCEStr@@@std@@@Z 00000001401153f4 f i common-kernel64:CEStr.obj
 0001:00114478       ?what@exception@stdext@@UEBAPEBDXZ 0000000140115478 f i common-kernel64:CEStr.obj
 0001:0011448c       ?ApplyExportEnvVar@@YAXPEB_W@Z 000000014011548c f   common-kernel64:WObjects.obj
 0001:001145d8       ?CoordInSmallRect@@YA_NAEBU_COORD@@AEBU_SMALL_RECT@@@Z 00000001401155d8 f   common-kernel64:WObjects.obj
 0001:001145fc       ?ExpandMacroValues@@YAPEA_WPEB_WPEAPEB_W_K@Z 00000001401155fc f   common-kernel64:WObjects.obj
 0001:00114770       ?FileExists@@YA_NPEB_WPEAK@Z 0000000140115770 f   common-kernel64:WObjects.obj
 0001:001148f0       ?FileExistsSearch@@YA_NPEB_WAEAUCEStr@@_N2@Z 00000001401158f0 f   common-kernel64:WObjects.obj
 0001:001149fc       ?FileSearchInDir@@YA_NPEB_WAEAUCEStr@@@Z 00000001401159fc f   common-kernel64:WObjects.obj
 0001:00114b54       ?GetComspec@@YAPEA_WPEBUConEmuComspec@@@Z 0000000140115b54 f   common-kernel64:WObjects.obj
 0001:00114c84       ?GetComspecFromEnvVar@@YAPEB_WPEA_WKW4ComSpecBits@@@Z 0000000140115c84 f   common-kernel64:WObjects.obj
 0001:00114e24       ?GetCpFromString@@YAIPEB_WPEAPEB_W@Z 0000000140115e24 f   common-kernel64:WObjects.obj
 0001:00114f88       ?GetOsVersionInformational@@YA_NPEAU_OSVERSIONINFOW@@@Z 0000000140115f88 f   common-kernel64:WObjects.obj
 0001:00114f9c       ?GetShortFileName@@YA_NPEB_WHPEA_WH@Z 0000000140115f9c f   common-kernel64:WObjects.obj
 0001:001150b8       ?GetShortFileNameEx@@YAPEA_WPEB_WH@Z 00000001401160b8 f   common-kernel64:WObjects.obj
 0001:00115410       ?IsExportEnvVarAllowed@@YA_NPEB_W@Z 0000000140116410 f   common-kernel64:WObjects.obj
 0001:001154a8       ?IsHwFullScreenAvailable@@YA_NXZ 00000001401164a8 f   common-kernel64:WObjects.obj
 0001:00115544       ?IsWin10@@YA_NXZ           0000000140116544 f   common-kernel64:WObjects.obj
 0001:001155c8       ?IsWin6@@YA_NXZ            00000001401165c8 f   common-kernel64:WObjects.obj
 0001:001155fc       ?IsWin7@@YA_NXZ            00000001401165fc f   common-kernel64:WObjects.obj
 0001:00115630       ?IsWin8@@YA_NXZ            0000000140116630 f   common-kernel64:WObjects.obj
 0001:00115664       ?IsWin8_1@@YA_NXZ          0000000140116664 f   common-kernel64:WObjects.obj
 0001:00115698       ?IsWinDBCS@@YA_NXZ         0000000140116698 f   common-kernel64:WObjects.obj
 0001:001156cc       ?IsWinPE@@YA_NXZ           00000001401166cc f   common-kernel64:WObjects.obj
 0001:0011574c       ?IsWinVerOrHigher@@YA_NG@Z 000000014011674c f   common-kernel64:WObjects.obj
 0001:001157e0       ?IsWinXP@@YA_NXZ           00000001401167e0 f   common-kernel64:WObjects.obj
 0001:00115890       ?IsWindows64@@YA_NXZ       0000000140116890 f   common-kernel64:WObjects.obj
 0001:001158b4       ?IsWine@@YA_NXZ            00000001401168b4 f   common-kernel64:WObjects.obj
 0001:0011592c       ?_VerifyVersionInfo@@YA_NPEAU_OSVERSIONINFOEXW@@K_K@Z 000000014011692c f   common-kernel64:WObjects.obj
 0001:001159dc       ?apiGetFullPathName@@YAHPEB_WAEAUCEStr@@@Z 00000001401169dc f   common-kernel64:WObjects.obj
 0001:00115acc       ?apiSearchPath@@YAHPEB_W00AEAUCEStr@@@Z 0000000140116acc f   common-kernel64:WObjects.obj
 0001:00115bdc       ??0MModule@@QEAA@PEAUHINSTANCE__@@@Z 0000000140116bdc f   common-kernel64:MModule.obj
 0001:00115be8       ??0MModule@@QEAA@PEB_W@Z   0000000140116be8 f   common-kernel64:MModule.obj
 0001:00115c08       ??0MSectionLockSimple@@QEAA@XZ 0000000140116c08 f   common-kernel64:MSectionSimple.obj
 0001:00115c08       ??0MModule@@QEAA@XZ        0000000140116c08 f   common-kernel64:MModule.obj
 0001:00115c14       ??1MModule@@QEAA@XZ        0000000140116c14 f   common-kernel64:MModule.obj
 0001:00115c1c       ?Free@MModule@@QEAAXXZ     0000000140116c1c f   common-kernel64:MModule.obj
 0001:00115c4c       ?Load@MModule@@QEAAPEAUHINSTANCE__@@PEB_W@Z 0000000140116c4c f   common-kernel64:MModule.obj
 0001:00115c84       ?isPressed@@YA_NG@Z        0000000140116c84 f   common-kernel64:Keyboard.obj
 0001:00115c9c       ??_GMNullDesc@@QEAAPEAXI@Z 0000000140116c9c f i common-kernel64:MSecurity.obj
 0001:00115d10       ?LoadAdvApi@MNullDesc@@IEAAHXZ 0000000140116d10 f i common-kernel64:MSecurity.obj
 0001:00115ec4       ?LocalSecurity@@YAPEAU_SECURITY_ATTRIBUTES@@XZ 0000000140116ec4 f   common-kernel64:MSecurity.obj
 0001:00115f1c       ?LocalSecurity@MNullDesc@@QEAAPEAU_SECURITY_ATTRIBUTES@@XZ 0000000140116f1c f i common-kernel64:MSecurity.obj
 0001:00116098       ?ShutdownSecurity@@YAXXZ   0000000140117098 f   common-kernel64:MSecurity.obj
 0001:001160c0       ??0CmdArg@@QEAA@XZ         00000001401170c0 f   common-kernel64:CmdLine.obj
 0001:001160e4       ??1CmdArg@@QEAA@XZ         00000001401170e4 f   common-kernel64:CmdLine.obj
 0001:00116100       ?CheckProcessName@@YA_NPEB_WPEAPEB_W@Z 0000000140117100 f   common-kernel64:CmdLine.obj
 0001:00116208       ?CompareFileMask@@YA_NPEB_W0@Z 0000000140117208 f   common-kernel64:CmdLine.obj
 0001:001163a4       ?CompareProcessNames@@YA_NPEB_W0@Z 00000001401173a4 f   common-kernel64:CmdLine.obj
 0001:00116520       ?CompareSwitch@CmdArg@@AEBA_NPEB_W@Z 0000000140117520 f   common-kernel64:CmdLine.obj
 0001:001165c4       ?Empty@CmdArg@@QEAAXXZ     00000001401175c4 f   common-kernel64:CmdLine.obj
 0001:001165e8       ?GetDrive@@YAPEB_WPEB_WPEA_WH@Z 00000001401175e8 f   common-kernel64:CmdLine.obj
 0001:00116704       ?GetParentPath@@YAPEA_WPEB_W@Z 0000000140117704 f   common-kernel64:CmdLine.obj
 0001:001167ac       ?GetPosFrom@CmdArg@@QEAAXAEBU1@@Z 00000001401177ac f   common-kernel64:CmdLine.obj
 0001:001167c8       ?IsCmdProcessor@@YA_NPEB_W@Z 00000001401177c8 f   common-kernel64:CmdLine.obj
 0001:00116814       ?IsConEmuGui@@YA_NPEB_W@Z  0000000140117814 f   common-kernel64:CmdLine.obj
 0001:00116860       ?IsConsoleHelper@@YA_NPEB_W@Z 0000000140117860 f   common-kernel64:CmdLine.obj
 0001:00116888       ?IsConsoleServer@@YA_NPEB_W@Z 0000000140117888 f   common-kernel64:CmdLine.obj
 0001:001168d4       ?IsConsoleService@@YA_NPEB_W@Z 00000001401178d4 f   common-kernel64:CmdLine.obj
 0001:00116920       ?IsExecutable@@YA_NPEB_WPEAPEA_W@Z 0000000140117920 f   common-kernel64:CmdLine.obj
 0001:001169f0       ?IsFarExe@@YA_NPEB_W@Z     00000001401179f0 f   common-kernel64:CmdLine.obj
 0001:00116a3c       ?IsFilePath@@YA_NPEB_W_N@Z 0000000140117a3c f   common-kernel64:CmdLine.obj
 0001:00116b8c       ?IsGitBashHelper@@YA_NPEB_W@Z 0000000140117b8c f   common-kernel64:CmdLine.obj
 0001:00116bd8       ?IsNeedCmd@@YA_NHPEB_WAEAUCEStr@@PEAPEB_WPEAH333@Z 0000000140117bd8 f   common-kernel64:CmdLine.obj
 0001:00117434       ?IsNeedDequote@@YA_NPEB_W_NPEAPEB_W@Z 0000000140118434 f   common-kernel64:CmdLine.obj
 0001:001175a4       ?IsPossibleSwitch@CmdArg@@QEBA_NXZ 00000001401185a4 f   common-kernel64:CmdLine.obj
 0001:00117614       ?IsQuotationNeeded@@YA_NPEB_W@Z 0000000140118614 f   common-kernel64:CmdLine.obj
 0001:0011763c       ?IsSwitch@CmdArg@@QEBA_NPEB_W@Z 000000014011863c f   common-kernel64:CmdLine.obj
 0001:0011767c       ?IsTerminalServer@@YA_NPEB_W@Z 000000014011867c f   common-kernel64:CmdLine.obj
 0001:001176ec       ?JoinPath@@YAPEA_WPEB_W00@Z 00000001401186ec f   common-kernel64:CmdLine.obj
 0001:001177fc       ?MergeCmdLine@@YAPEA_WPEB_W0@Z 00000001401187fc f   common-kernel64:CmdLine.obj
 0001:001178b8       ?NextArg@@YAPEB_WPEB_WAEAUCmdArg@@PEAPEB_W@Z 00000001401188b8 f   common-kernel64:CmdLine.obj
 0001:00117c5c       ?NextLine@@YAPEB_WPEB_WAEAUCEStr@@K@Z 0000000140118c5c f   common-kernel64:CmdLine.obj
 0001:00117d90       ?OneOfSwitches@CmdArg@@QEBA_NPEB_W000000000@Z 0000000140118d90 f   common-kernel64:CmdLine.obj
 0001:00117e88       ?PointToExt@@YAPEB_WPEB_W@Z 0000000140118e88 f   common-kernel64:CmdLine.obj
 0001:00117eac       ?PointToName@@YAPEB_WPEB_W@Z 0000000140118eac f   common-kernel64:CmdLine.obj
 0001:00117f08       ?SkipNonPrintable@@YAPEB_WPEB_W@Z 0000000140118f08 f   common-kernel64:CmdLine.obj
 0001:00117f34       ?Unquote@@YAPEB_WPEA_W_N@Z 0000000140118f34 f   common-kernel64:CmdLine.obj
 0001:00117f9c       ?ExecuteCmd@@YAPEAUCESERVER_REQ@@PEB_WPEAU1@KPEAUHWND__@@HKH@Z 0000000140118f9c f   common-kernel64:ConEmuCheck.obj
 0001:00118184       ?ExecuteFreeResult@@YAXAEAPEAUCESERVER_REQ@@@Z 0000000140119184 f   common-kernel64:ConEmuCheck.obj
 0001:001181a4       ?ExecuteGuiCmd@@YAPEAUCESERVER_REQ@@PEAUHWND__@@PEAU1@0H@Z 00000001401191a4 f   common-kernel64:ConEmuCheck.obj
 0001:00118264       ?ExecuteHkCmd@@YAPEAUCESERVER_REQ@@KPEAU1@PEAUHWND__@@HH@Z 0000000140119264 f   common-kernel64:ConEmuCheck.obj
 0001:00118328       ?ExecuteNewCmd@@YAPEAUCESERVER_REQ@@K_K@Z 0000000140119328 f   common-kernel64:ConEmuCheck.obj
 0001:0011838c       ?ExecuteNewCmd@@YA_NAEAPEAUCESERVER_REQ@@AEAKK_K@Z 000000014011938c f   common-kernel64:ConEmuCheck.obj
 0001:00118480       ?ExecuteOpenPipe@@YAPEAXPEB_WAEAY0CAI@_W0KKHPEAXH@Z 0000000140119480 f   common-kernel64:ConEmuCheck.obj
 0001:00118630       ?ExecutePrepareCmd@@YAXPEAUCESERVER_REQ@@K_K@Z 0000000140119630 f   common-kernel64:ConEmuCheck.obj
 0001:0011866c       ?ExecutePrepareCmd@@YAXPEAUCESERVER_REQ_HDR@@K_K@Z 000000014011966c f   common-kernel64:ConEmuCheck.obj
 0001:001186dc       ?ExecuteSrvCmd@@YAPEAUCESERVER_REQ@@KPEAU1@PEAUHWND__@@HKH@Z 00000001401196dc f   common-kernel64:ConEmuCheck.obj
 0001:001187b0       ?GuiMessageBox@@YAHPEAUHWND__@@PEB_W1H@Z 00000001401197b0 f   common-kernel64:ConEmuCheck.obj
 0001:00118918       ?LoadSrvMapping@@YAHPEAUHWND__@@AEAUCESERVER_CONSOLE_MAPPING_HDR@@@Z 0000000140119918 f   common-kernel64:ConEmuCheck.obj
 0001:00118b80       ?ModuleName@@YAPEB_WPEB_W@Z 0000000140119b80 f   common-kernel64:ConEmuCheck.obj
 0001:00118c40       ?isConsoleClass@@YA_NPEB_W@Z 0000000140119c40 f   common-kernel64:ConEmuCheck.obj
 0001:00118c90       ?isConsoleWindow@@YA_NPEAUHWND__@@@Z 0000000140119c90 f   common-kernel64:ConEmuCheck.obj
 0001:00118d80       ?myGetConsoleWindow@@YAPEAUHWND__@@XZ 0000000140119d80 f   common-kernel64:ConEmuCheck.obj
 0001:00118e1c       ?GetProcessBits@@YAHKPEAX@Z 0000000140119e1c f   common-kernel64:MProcessBits.obj
 0001:00118f48       ??$sprintf_c@$0CI@@@YAHAEAY0CI@DPEBDZZ 0000000140119f48 f i common-kernel64:WThreads.obj
 0001:00118f74       ?SetThreadName@@YAXKPEAD@Z 0000000140119f74 f   common-kernel64:WThreads.obj
 0001:00118fac       ?apiCreateThread@@YAPEAXP6AKPEAX@Z0PEAKPEBDH@Z 0000000140119fac f   common-kernel64:WThreads.obj
 0001:001190f4       ?apiTerminateThreadEx@@YAHPEAXKPEBDH@Z 000000014011a0f4 f   common-kernel64:WThreads.obj
 0001:001191fc       ?apiThreadHelper@@YAKPEAX@Z 000000014011a1fc f   common-kernel64:WThreads.obj
 0001:00119408       ?wasTerminateThreadCalled@@YA_NXZ 000000014011a408 f   common-kernel64:WThreads.obj
 0001:00119414       ??8@YA_NAEBU_COORD@@0@Z    000000014011a414 f   common-kernel64:MRect.obj
 0001:0011942c       ??8@YA_NAEBUtagRECT@@0@Z   000000014011a42c f   common-kernel64:MRect.obj
 0001:00119450       ??9@YA_NAEBU_COORD@@0@Z    000000014011a450 f   common-kernel64:MRect.obj
 0001:00119468       ??9@YA_NAEBUtagRECT@@0@Z   000000014011a468 f   common-kernel64:MRect.obj
 0001:0011948c       ?CoordCompare@@YAHAEBU_COORD@@0@Z 000000014011a48c f   common-kernel64:MRect.obj
 0001:001194c4       ?CoordInRect@@YA_NAEBU_COORD@@AEBUtagRECT@@@Z 000000014011a4c4 f   common-kernel64:MRect.obj
 0001:001194e4       ?IntersectSmallRect@@YA_NAEBUtagRECT@@AEBU_SMALL_RECT@@PEAU1@@Z 000000014011a4e4 f   common-kernel64:MRect.obj
 0001:00119554       ?MakeCoord@@YA?AU_COORD@@HH@Z 000000014011a554 f   common-kernel64:MRect.obj
 0001:00119564       ?MakePoint@@YA?AUtagPOINT@@HH@Z 000000014011a564 f   common-kernel64:MRect.obj
 0001:00119574       ?MakeRect@@YA?AUtagRECT@@HH@Z 000000014011a574 f   common-kernel64:MRect.obj
 0001:00119588       ?MakeRect@@YA?AUtagRECT@@HHHH@Z 000000014011a588 f   common-kernel64:MRect.obj
 0001:001195a0       ?MakeShort@@YAFH@Z         000000014011a5a0 f   common-kernel64:MRect.obj
 0001:001195a0       ?MakeUShort@@YAGI@Z        000000014011a5a0 f   common-kernel64:MRect.obj
 0001:001195a4       ?MakeSmallRect@@YA?AU_SMALL_RECT@@HHHH@Z 000000014011a5a4 f   common-kernel64:MRect.obj
 0001:001195c8       ?PtDiffTest@@YA_NHHHHII@Z  000000014011a5c8 f   common-kernel64:MRect.obj
 0001:001195f4       ?PtDiffTest@@YA_NUtagPOINT@@HHI@Z 000000014011a5f4 f   common-kernel64:MRect.obj
 0001:0011961c       ??0MSection@@QEAA@XZ       000000014011a61c f   common-kernel64:MSection.obj
 0001:001196a4       ??0MSectionLock@@QEAA@XZ   000000014011a6a4 f   common-kernel64:MSection.obj
 0001:001196b4       ??1MSection@@QEAA@XZ       000000014011a6b4 f   common-kernel64:MSection.obj
 0001:0011971c       ??1MSectionLock@@QEAA@XZ   000000014011a71c f   common-kernel64:MSection.obj
 0001:00119740       ?AddRef@MSection@@IEAAXK@Z 000000014011a740 f   common-kernel64:MSection.obj
 0001:001197d4       ?Lock@MSection@@IEAAHHK@Z  000000014011a7d4 f   common-kernel64:MSection.obj
 0001:001198d0       ?Lock@MSectionLock@@QEAAHPEAVMSection@@HK@Z 000000014011a8d0 f   common-kernel64:MSection.obj
 0001:00119924       ?MyEnterCriticalSection@MSection@@IEAA_NK@Z 000000014011a924 f   common-kernel64:MSection.obj
 0001:00119a50       ?ReleaseRef@MSection@@IEAAHK@Z 000000014011aa50 f   common-kernel64:MSection.obj
 0001:00119af0       ?RelockExclusive@MSectionLock@@QEAAHK@Z 000000014011aaf0 f   common-kernel64:MSection.obj
 0001:00119b40       ?Unlock@MSection@@IEAAXH@Z 000000014011ab40 f   common-kernel64:MSection.obj
 0001:00119b98       ?Unlock@MSectionLock@@QEAAXXZ 000000014011ab98 f   common-kernel64:MSection.obj
 0001:00119bc4       ?WaitUnlocked@MSection@@IEAAXKK@Z 000000014011abc4 f   common-kernel64:MSection.obj
 0001:00119c58       ?isLocked@MSectionLock@@QEAAHH@Z 000000014011ac58 f   common-kernel64:MSection.obj
 0001:00119c74       ??1CEnvRestorer@@QEAA@XZ   000000014011ac74 f   common-kernel64:EnvVar.obj
 0001:00119ce8       ?Clear@CEnvRestorer@@QEAAXXZ 000000014011ace8 f   common-kernel64:EnvVar.obj
 0001:00119d0c       ?ExpandEnvStr@@YAPEA_WPEB_W@Z 000000014011ad0c f   common-kernel64:EnvVar.obj
 0001:00119db8       ?GetEnvVar@@YAPEA_WPEB_W@Z 000000014011adb8 f   common-kernel64:EnvVar.obj
 0001:00119e5c       ?SavePathVar@CEnvRestorer@@QEAAXPEB_W@Z 000000014011ae5c f   common-kernel64:EnvVar.obj
 0001:00119e90       ?CommonShutdown@@YAXXZ     000000014011ae90 f   common-kernel64:Common.obj
 0001:00119ea0       ?GetCommand@CESERVER_REQ_NEWCMD@@QEAAPEA_WXZ 000000014011aea0 f   common-kernel64:Common.obj
 0001:00119ec0       ?GetEnvStrings@CESERVER_REQ_NEWCMD@@QEAAPEA_WXZ 000000014011aec0 f   common-kernel64:Common.obj
 0001:00119ee0       ?IsEnvBlockVariableValid@@YA_NPEB_W@Z 000000014011aee0 f   common-kernel64:Common.obj
 0001:00119f14       ?Mangle@STRPTR2@@QEAAPEAEPEAE@Z 000000014011af14 f   common-kernel64:Common.obj
 0001:00119f84       ?PackInputRecord@@YAHPEBU_INPUT_RECORD@@PEAUMsgStr@MSG64@@@Z 000000014011af84 f   common-kernel64:Common.obj
 0001:0011a0d8       ?Set@STRPTR2@@QEAAX$$QEAPEA_WH@Z 000000014011b0d8 f   common-kernel64:Common.obj
 0001:0011a110       ?SetCommand@CESERVER_REQ_NEWCMD@@QEAAXPEB_W@Z 000000014011b110 f   common-kernel64:Common.obj
 0001:0011a178       ?TranslateKeyPress@@YAXGK_WHPEAU_INPUT_RECORD@@1@Z 000000014011b178 f   common-kernel64:Common.obj
 0001:0011a304       ?GetImageSubsystem@@YA_NPEB_WAEAK11@Z 000000014011b304 f   common-kernel64:execute.obj
 0001:0011a5a0       ?IsFileBatch@@YA_NPEB_W@Z  000000014011b5a0 f   common-kernel64:execute.obj
 0001:0011a638       ??0MSectionLockSimple@@QEAA@AEAUMSectionSimple@@@Z 000000014011b638 f   common-kernel64:MSectionSimple.obj
 0001:0011a65c       ??0MSectionSimple@@QEAA@_N@Z 000000014011b65c f   common-kernel64:MSectionSimple.obj
 0001:0011a698       ??1MSectionLockSimple@@QEAA@XZ 000000014011b698 f   common-kernel64:MSectionSimple.obj
 0001:0011a6ac       ??1MSectionSimple@@QEAA@XZ 000000014011b6ac f   common-kernel64:MSectionSimple.obj
 0001:0011a6ac       ?Close@MSectionSimple@@QEAAXXZ 000000014011b6ac f   common-kernel64:MSectionSimple.obj
 0001:0011a6cc       ?Enter@MSectionSimple@@QEAAXXZ 000000014011b6cc f   common-kernel64:MSectionSimple.obj
 0001:0011a6cc       ?_Acquire@_ReentrantBlockingLock@details@Concurrency@@QEAAXXZ 000000014011b6cc f   libconcrt:rtlocks.obj
 0001:0011a6cc       ?_Acquire@_NonReentrantBlockingLock@details@Concurrency@@QEAAXXZ 000000014011b6cc f   libconcrt:rtlocks.obj
 0001:0011a6d4       ?Init@MSectionSimple@@QEAAXXZ 000000014011b6d4 f   common-kernel64:MSectionSimple.obj
 0001:0011a6f4       ?_Release@_ReentrantBlockingLock@details@Concurrency@@QEAAXXZ 000000014011b6f4 f   libconcrt:rtlocks.obj
 0001:0011a6f4       ?_Release@_NonReentrantBlockingLock@details@Concurrency@@QEAAXXZ 000000014011b6f4 f   libconcrt:rtlocks.obj
 0001:0011a6f4       ?Leave@MSectionSimple@@QEAAXXZ 000000014011b6f4 f   common-kernel64:MSectionSimple.obj
